; Listing generated by Microsoft (R) Optimizing Compiler Version 19.00.23026.0 

include listing.inc


PUBLIC	??_C@_0BC@EOODALEL@Unknown?5exception?$AA@	; `string'
PUBLIC	??_C@_05LAPONLG@false?$AA@			; `string'
PUBLIC	??_C@_04LOAJBDKD@true?$AA@			; `string'
PUBLIC	??_C@_00CNPNBAHC@?$AA@				; `string'
PUBLIC	??_C@_02LMMGGCAJ@?3?5?$AA@			; `string'
PUBLIC	??_C@_0BL@DKGNIMPN@Comments?5must?5start?5with?5?1?$AA@ ; `string'
PUBLIC	??_C@_0CC@BNBMBIGA@Type?5is?5not?5convertible?5to?5strin@ ; `string'
PUBLIC	??_C@_0CE@MKMAPPKF@integer?5out?5of?5signed?5integer?5ra@ ; `string'
PUBLIC	??_C@_0CB@PBEICPFN@Real?5out?5of?5signed?5integer?5range@ ; `string'
PUBLIC	??_C@_0BP@KDDCHLKA@Type?5is?5not?5convertible?5to?5int?$AA@ ; `string'
PUBLIC	??_C@_0DK@NAHIGMFE@Negative?5integer?5can?5not?5be?5conv@ ; `string'
PUBLIC	??_C@_0CD@PGCLDEBG@Real?5out?5of?5unsigned?5integer?5ran@ ; `string'
PUBLIC	??_C@_0CA@LEFAEJPN@Type?5is?5not?5convertible?5to?5uint?$AA@ ; `string'
PUBLIC	??_C@_0CC@ICOHKFIF@Type?5is?5not?5convertible?5to?5doubl@ ; `string'
PUBLIC	??_C@_02GLFAOOJA@?$FL?4?$AA@			; `string'
PUBLIC	??_C@_06ECBCCLMB@?$CF?$CD?416g?$AA@		; `string'
PUBLIC	??_C@_07FKPPGBGM@?$CC?2?$AI?$AM?6?$AN?7?$AA@	; `string'
PUBLIC	??_C@_01BJJEKLCA@?$CC?$AA@			; `string'
PUBLIC	??_C@_02MCKKLHBJ@?2?$CC?$AA@			; `string'
PUBLIC	??_C@_02HDBGODGB@?2?2?$AA@			; `string'
PUBLIC	??_C@_02DCNDPIBM@?2b?$AA@			; `string'
PUBLIC	??_C@_02FGLPDNBI@?2f?$AA@			; `string'
PUBLIC	??_C@_02JOGGLHBA@?2n?$AA@			; `string'
PUBLIC	??_C@_02HIBBOKEN@?2r?$AA@			; `string'
PUBLIC	??_C@_02COELENML@?2t?$AA@			; `string'
PUBLIC	??_C@_02DHFAHMIK@?2u?$AA@			; `string'
PUBLIC	??_C@_01EEMJAFIK@?6?$AA@			; `string'
PUBLIC	??_C@_04MLLLIHIP@null?$AA@			; `string'
PUBLIC	??_C@_01OHGJGJJP@?$FL?$AA@			; `string'
PUBLIC	??_C@_01IHBHIGKO@?0?$AA@			; `string'
PUBLIC	??_C@_01LBDDMOBJ@?$FN?$AA@			; `string'
PUBLIC	??_C@_01HCONENDN@?$HL?$AA@			; `string'
PUBLIC	??_C@_01JLIPDDHJ@?3?$AA@			; `string'
PUBLIC	??_C@_01CELHOKLL@?$HN?$AA@			; `string'
PUBLIC	??_C@_02MCILKGOH@?$HL?$HN?$AA@			; `string'
PUBLIC	??_C@_03MCPBMLDJ@?5?3?5?$AA@			; `string'
PUBLIC	??_C@_02GPECMEKF@?$FL?$FN?$AA@			; `string'
PUBLIC	??_C@_02PFNDMDBO@?$FL?5?$AA@			; `string'
PUBLIC	??_C@_02KEGNLNML@?0?5?$AA@			; `string'
PUBLIC	??_C@_02DHOGEDBE@?5?$FN?$AA@			; `string'
PUBLIC	??_C@_01CLKCMJKC@?5?$AA@			; `string'
PUBLIC	??_C@_01GPOEFGEJ@?7?$AA@			; `string'
PUBLIC	??_C@_0EC@HCHNIDLM@A?5valid?5JSON?5document?5must?5be?5ei@ ; `string'
PUBLIC	??_C@_0CP@GDDNKEK@Syntax?5error?3?5value?0?5object?5or?5a@ ; `string'
PUBLIC	??_C@_03FFDNHNKN@rue?$AA@			; `string'
PUBLIC	??_C@_04KCECFHEP@alse?$AA@			; `string'
PUBLIC	??_C@_03KNPGGKC@ull?$AA@			; `string'
PUBLIC	??_C@_0CF@GCCDMCPH@Missing?5?8?3?8?5after?5object?5member?5@ ; `string'
PUBLIC	??_C@_0CJ@NGKOAFKA@Missing?5?8?0?8?5or?5?8?$HN?8?5in?5object?5dec@ ; `string'
PUBLIC	??_C@_0CC@JNCGHFHN@Missing?5?8?$HN?8?5or?5object?5member?5nam@ ; `string'
PUBLIC	??_C@_0CI@DPCANLPO@Missing?5?8?0?8?5or?5?8?$FN?8?5in?5array?5decl@ ; `string'
PUBLIC	??_C@_0BD@HHNBFDKF@?8?5is?5not?5a?5number?4?$AA@ ; `string'
PUBLIC	??_C@_01GEODFPGF@?8?$AA@			; `string'
PUBLIC	??_C@_03DLDNIBIK@?$CFlf?$AA@			; `string'
PUBLIC	??_C@_0CA@DPGKPPOE@Empty?5escape?5sequence?5in?5string?$AA@ ; `string'
PUBLIC	??_C@_0BO@NDEEJNNB@Bad?5escape?5sequence?5in?5string?$AA@ ; `string'
PUBLIC	??_C@_0EE@LMPEHADE@additional?5six?5characters?5expect@ ; `string'
PUBLIC	??_C@_0FA@BGMMPLKB@expecting?5another?5?2u?5token?5to?5be@ ; `string'
PUBLIC	??_C@_0DN@BPAHJPFJ@Bad?5unicode?5escape?5sequence?5in?5s@ ; `string'
PUBLIC	??_C@_0ED@FIDDECIG@Bad?5unicode?5escape?5sequence?5in?5s@ ; `string'
PUBLIC	??_C@_0BD@LAMGIMLG@Line?5?$CFd?0?5Column?5?$CFd?$AA@ ; `string'
PUBLIC	??_C@_02KAOAMBHJ@?$CK?5?$AA@			; `string'
PUBLIC	??_C@_02KNHHEEKP@?5?5?$AA@			; `string'
PUBLIC	??_C@_0O@JBAGGIKP@?5for?5detail?4?6?$AA@	; `string'
PUBLIC	??_C@_04JBAOJHKB@See?5?$AA@			; `string'
PUBLIC	??_C@_0BC@KBDMBKEH@deque?$DMT?$DO?5too?5long?$AA@ ; `string'
PUBLIC	??_R4?$basic_ostringstream@DU?$char_traits@D@std@@V?$allocator@D@2@@std@@6B@ ; std::basic_ostringstream<char,std::char_traits<char>,std::allocator<char> >::`RTTI Complete Object Locator'
PUBLIC	??_7DefaultValueAllocator@Json@@6B@		; Json::DefaultValueAllocator::`vftable'
PUBLIC	??_R0?AVruntime_error@std@@@8			; std::runtime_error `RTTI Type Descriptor'
PUBLIC	??_R2StyledWriter@Json@@8			; Json::StyledWriter::`RTTI Base Class Array'
PUBLIC	??_R4exception@std@@6B@				; std::exception::`RTTI Complete Object Locator'
PUBLIC	??_R1A@?0A@EA@FastWriter@Json@@8		; Json::FastWriter::`RTTI Base Class Descriptor at (0,-1,0,64)'
PUBLIC	??_R4ValueAllocator@Json@@6B@			; Json::ValueAllocator::`RTTI Complete Object Locator'
PUBLIC	??_7?$basic_ostringstream@DU?$char_traits@D@std@@V?$allocator@D@2@@std@@6B@ ; std::basic_ostringstream<char,std::char_traits<char>,std::allocator<char> >::`vftable'
PUBLIC	??_7Writer@Json@@6B@				; Json::Writer::`vftable'
PUBLIC	??_R4runtime_error@std@@6B@			; std::runtime_error::`RTTI Complete Object Locator'
PUBLIC	??_R2FastWriter@Json@@8				; Json::FastWriter::`RTTI Base Class Array'
PUBLIC	??_R3StyledWriter@Json@@8			; Json::StyledWriter::`RTTI Class Hierarchy Descriptor'
PUBLIC	??_R3ValueAllocator@Json@@8			; Json::ValueAllocator::`RTTI Class Hierarchy Descriptor'
PUBLIC	??_R4StyledWriter@Json@@6B@			; Json::StyledWriter::`RTTI Complete Object Locator'
PUBLIC	??_R0?AV?$basic_stringbuf@DU?$char_traits@D@std@@V?$allocator@D@2@@std@@@8 ; std::basic_stringbuf<char,std::char_traits<char>,std::allocator<char> > `RTTI Type Descriptor'
PUBLIC	??_R0?AVFastWriter@Json@@@8			; Json::FastWriter `RTTI Type Descriptor'
PUBLIC	??_R0?AVios_base@std@@@8			; std::ios_base `RTTI Type Descriptor'
PUBLIC	??_R2?$basic_stringbuf@DU?$char_traits@D@std@@V?$allocator@D@2@@std@@8 ; std::basic_stringbuf<char,std::char_traits<char>,std::allocator<char> >::`RTTI Base Class Array'
PUBLIC	??_R3?$basic_ostringstream@DU?$char_traits@D@std@@V?$allocator@D@2@@std@@8 ; std::basic_ostringstream<char,std::char_traits<char>,std::allocator<char> >::`RTTI Class Hierarchy Descriptor'
PUBLIC	??_R1A@?0A@EA@runtime_error@std@@8		; std::runtime_error::`RTTI Base Class Descriptor at (0,-1,0,64)'
PUBLIC	??_R1A@?0A@EA@ValueAllocator@Json@@8		; Json::ValueAllocator::`RTTI Base Class Descriptor at (0,-1,0,64)'
PUBLIC	??_R17A@3EA@?$_Iosb@H@std@@8			; std::_Iosb<int>::`RTTI Base Class Descriptor at (8,0,4,64)'
PUBLIC	??_R1A@?0A@EA@DefaultValueAllocator@Json@@8	; Json::DefaultValueAllocator::`RTTI Base Class Descriptor at (0,-1,0,64)'
PUBLIC	??_R1A@?0A@EA@exception@std@@8			; std::exception::`RTTI Base Class Descriptor at (0,-1,0,64)'
PUBLIC	??_R1A@?0A@EA@?$basic_streambuf@DU?$char_traits@D@std@@@std@@8 ; std::basic_streambuf<char,std::char_traits<char> >::`RTTI Base Class Descriptor at (0,-1,0,64)'
PUBLIC	??_7StyledWriter@Json@@6B@			; Json::StyledWriter::`vftable'
PUBLIC	??_R3DefaultValueAllocator@Json@@8		; Json::DefaultValueAllocator::`RTTI Class Hierarchy Descriptor'
PUBLIC	??_R0?AV?$_Iosb@H@std@@@8			; std::_Iosb<int> `RTTI Type Descriptor'
PUBLIC	??_R3FastWriter@Json@@8				; Json::FastWriter::`RTTI Class Hierarchy Descriptor'
PUBLIC	??_R0?AV?$basic_streambuf@DU?$char_traits@D@std@@@std@@@8 ; std::basic_streambuf<char,std::char_traits<char> > `RTTI Type Descriptor'
PUBLIC	??_R1A@?0A@EA@?$basic_ostringstream@DU?$char_traits@D@std@@V?$allocator@D@2@@std@@8 ; std::basic_ostringstream<char,std::char_traits<char>,std::allocator<char> >::`RTTI Base Class Descriptor at (0,-1,0,64)'
PUBLIC	??_7FastWriter@Json@@6B@			; Json::FastWriter::`vftable'
PUBLIC	??_R3?$basic_stringbuf@DU?$char_traits@D@std@@V?$allocator@D@2@@std@@8 ; std::basic_stringbuf<char,std::char_traits<char>,std::allocator<char> >::`RTTI Class Hierarchy Descriptor'
PUBLIC	??_R2exception@std@@8				; std::exception::`RTTI Base Class Array'
PUBLIC	??_R2DefaultValueAllocator@Json@@8		; Json::DefaultValueAllocator::`RTTI Base Class Array'
PUBLIC	??_R2?$basic_ostream@DU?$char_traits@D@std@@@std@@8 ; std::basic_ostream<char,std::char_traits<char> >::`RTTI Base Class Array'
PUBLIC	??_R0?AV?$basic_ostringstream@DU?$char_traits@D@std@@V?$allocator@D@2@@std@@@8 ; std::basic_ostringstream<char,std::char_traits<char>,std::allocator<char> > `RTTI Type Descriptor'
PUBLIC	??_R4FastWriter@Json@@6B@			; Json::FastWriter::`RTTI Complete Object Locator'
PUBLIC	??_R3?$basic_ios@DU?$char_traits@D@std@@@std@@8	; std::basic_ios<char,std::char_traits<char> >::`RTTI Class Hierarchy Descriptor'
PUBLIC	_TI2?AVruntime_error@std@@
PUBLIC	??_R3Writer@Json@@8				; Json::Writer::`RTTI Class Hierarchy Descriptor'
PUBLIC	??_R4DefaultValueAllocator@Json@@6B@		; Json::DefaultValueAllocator::`RTTI Complete Object Locator'
PUBLIC	??_R0?AVStyledWriter@Json@@@8			; Json::StyledWriter `RTTI Type Descriptor'
PUBLIC	??_7?$basic_stringbuf@DU?$char_traits@D@std@@V?$allocator@D@2@@std@@6B@ ; std::basic_stringbuf<char,std::char_traits<char>,std::allocator<char> >::`vftable'
PUBLIC	??_R0?AVValueAllocator@Json@@@8			; Json::ValueAllocator `RTTI Type Descriptor'
PUBLIC	??_R2ValueAllocator@Json@@8			; Json::ValueAllocator::`RTTI Base Class Array'
PUBLIC	??_7exception@std@@6B@				; std::exception::`vftable'
PUBLIC	??_R2Writer@Json@@8				; Json::Writer::`RTTI Base Class Array'
PUBLIC	??_R1A@?0A@EA@ios_base@std@@8			; std::ios_base::`RTTI Base Class Descriptor at (0,-1,0,64)'
PUBLIC	??_R3exception@std@@8				; std::exception::`RTTI Class Hierarchy Descriptor'
PUBLIC	??_R1A@?0A@EA@?$basic_ostream@DU?$char_traits@D@std@@@std@@8 ; std::basic_ostream<char,std::char_traits<char> >::`RTTI Base Class Descriptor at (0,-1,0,64)'
PUBLIC	??_7runtime_error@std@@6B@			; std::runtime_error::`vftable'
PUBLIC	??_R0?AV?$basic_ios@DU?$char_traits@D@std@@@std@@@8 ; std::basic_ios<char,std::char_traits<char> > `RTTI Type Descriptor'
PUBLIC	??_R0?AVDefaultValueAllocator@Json@@@8		; Json::DefaultValueAllocator `RTTI Type Descriptor'
PUBLIC	??_7ValueAllocator@Json@@6B@			; Json::ValueAllocator::`vftable'
PUBLIC	??_R2?$basic_streambuf@DU?$char_traits@D@std@@@std@@8 ; std::basic_streambuf<char,std::char_traits<char> >::`RTTI Base Class Array'
PUBLIC	??_R1A@?0A@EA@?$_Iosb@H@std@@8			; std::_Iosb<int>::`RTTI Base Class Descriptor at (0,-1,0,64)'
PUBLIC	??_R1A@?0A@EA@?$basic_stringbuf@DU?$char_traits@D@std@@V?$allocator@D@2@@std@@8 ; std::basic_stringbuf<char,std::char_traits<char>,std::allocator<char> >::`RTTI Base Class Descriptor at (0,-1,0,64)'
PUBLIC	??_R1A@?0A@EA@Writer@Json@@8			; Json::Writer::`RTTI Base Class Descriptor at (0,-1,0,64)'
PUBLIC	_CT??_R0?AVruntime_error@std@@@8??0runtime_error@std@@QEAA@AEBV01@@Z24
PUBLIC	??_R4Writer@Json@@6B@				; Json::Writer::`RTTI Complete Object Locator'
PUBLIC	??_8?$basic_ostringstream@DU?$char_traits@D@std@@V?$allocator@D@2@@std@@7B@ ; std::basic_ostringstream<char,std::char_traits<char>,std::allocator<char> >::`vbtable'
PUBLIC	??_R4?$basic_stringbuf@DU?$char_traits@D@std@@V?$allocator@D@2@@std@@6B@ ; std::basic_stringbuf<char,std::char_traits<char>,std::allocator<char> >::`RTTI Complete Object Locator'
PUBLIC	_CTA2?AVruntime_error@std@@
PUBLIC	??_R2runtime_error@std@@8			; std::runtime_error::`RTTI Base Class Array'
PUBLIC	??_R1A@A@3FA@?$basic_ios@DU?$char_traits@D@std@@@std@@8 ; std::basic_ios<char,std::char_traits<char> >::`RTTI Base Class Descriptor at (0,0,4,80)'
PUBLIC	??_R0?AV?$basic_ostream@DU?$char_traits@D@std@@@std@@@8 ; std::basic_ostream<char,std::char_traits<char> > `RTTI Type Descriptor'
PUBLIC	??_R2ios_base@std@@8				; std::ios_base::`RTTI Base Class Array'
PUBLIC	??_R3?$basic_ostream@DU?$char_traits@D@std@@@std@@8 ; std::basic_ostream<char,std::char_traits<char> >::`RTTI Class Hierarchy Descriptor'
PUBLIC	??_R0?AVWriter@Json@@@8				; Json::Writer `RTTI Type Descriptor'
PUBLIC	??_R3ios_base@std@@8				; std::ios_base::`RTTI Class Hierarchy Descriptor'
PUBLIC	??_R3?$basic_streambuf@DU?$char_traits@D@std@@@std@@8 ; std::basic_streambuf<char,std::char_traits<char> >::`RTTI Class Hierarchy Descriptor'
PUBLIC	??_R2?$_Iosb@H@std@@8				; std::_Iosb<int>::`RTTI Base Class Array'
PUBLIC	_CT??_R0?AVexception@std@@@8??0exception@std@@QEAA@AEBV01@@Z24
PUBLIC	??_R1A@A@3EA@ios_base@std@@8			; std::ios_base::`RTTI Base Class Descriptor at (0,0,4,64)'
PUBLIC	??_R1A@?0A@EA@?$basic_ios@DU?$char_traits@D@std@@@std@@8 ; std::basic_ios<char,std::char_traits<char> >::`RTTI Base Class Descriptor at (0,-1,0,64)'
PUBLIC	??_R1A@?0A@EA@StyledWriter@Json@@8		; Json::StyledWriter::`RTTI Base Class Descriptor at (0,-1,0,64)'
PUBLIC	??_R3?$_Iosb@H@std@@8				; std::_Iosb<int>::`RTTI Class Hierarchy Descriptor'
PUBLIC	??_R0?AVexception@std@@@8			; std::exception `RTTI Type Descriptor'
PUBLIC	??_R17?0A@EA@?$_Iosb@H@std@@8			; std::_Iosb<int>::`RTTI Base Class Descriptor at (8,-1,0,64)'
PUBLIC	??_R3runtime_error@std@@8			; std::runtime_error::`RTTI Class Hierarchy Descriptor'
PUBLIC	??_R2?$basic_ios@DU?$char_traits@D@std@@@std@@8	; std::basic_ios<char,std::char_traits<char> >::`RTTI Base Class Array'
PUBLIC	??_R2?$basic_ostringstream@DU?$char_traits@D@std@@V?$allocator@D@2@@std@@8 ; std::basic_ostringstream<char,std::char_traits<char>,std::allocator<char> >::`RTTI Base Class Array'
EXTRN	__imp_?good@ios_base@std@@QEBA_NXZ:PROC
EXTRN	__imp_?flags@ios_base@std@@QEBAHXZ:PROC
EXTRN	__imp_?setf@ios_base@std@@QEAAHH@Z:PROC
EXTRN	__imp_?setf@ios_base@std@@QEAAHHH@Z:PROC
EXTRN	__imp_?width@ios_base@std@@QEBA_JXZ:PROC
EXTRN	__imp_?width@ios_base@std@@QEAA_J_J@Z:PROC
EXTRN	__imp_??6?$basic_ostream@DU?$char_traits@D@std@@@std@@QEAAAEAV01@H@Z:PROC
EXTRN	__imp_??6?$basic_ostream@DU?$char_traits@D@std@@@std@@QEAAAEAV01@P6AAEAVios_base@1@AEAV21@@Z@Z:PROC
EXTRN	__imp_??1?$basic_ostream@DU?$char_traits@D@std@@@std@@UEAA@XZ:PROC
EXTRN	?imbue@?$basic_streambuf@DU?$char_traits@D@std@@@std@@MEAAXAEBVlocale@2@@Z:PROC ; std::basic_streambuf<char,std::char_traits<char> >::imbue
EXTRN	__imp_?imbue@?$basic_streambuf@DU?$char_traits@D@std@@@std@@MEAAXAEBVlocale@2@@Z:PROC
EXTRN	?sync@?$basic_streambuf@DU?$char_traits@D@std@@@std@@MEAAHXZ:PROC ; std::basic_streambuf<char,std::char_traits<char> >::sync
EXTRN	__imp_?sync@?$basic_streambuf@DU?$char_traits@D@std@@@std@@MEAAHXZ:PROC
EXTRN	?setbuf@?$basic_streambuf@DU?$char_traits@D@std@@@std@@MEAAPEAV12@PEAD_J@Z:PROC ; std::basic_streambuf<char,std::char_traits<char> >::setbuf
EXTRN	__imp_?setbuf@?$basic_streambuf@DU?$char_traits@D@std@@@std@@MEAAPEAV12@PEAD_J@Z:PROC
EXTRN	?xsputn@?$basic_streambuf@DU?$char_traits@D@std@@@std@@MEAA_JPEBD_J@Z:PROC ; std::basic_streambuf<char,std::char_traits<char> >::xsputn
EXTRN	__imp_?xsputn@?$basic_streambuf@DU?$char_traits@D@std@@@std@@MEAA_JPEBD_J@Z:PROC
EXTRN	?xsgetn@?$basic_streambuf@DU?$char_traits@D@std@@@std@@MEAA_JPEAD_J@Z:PROC ; std::basic_streambuf<char,std::char_traits<char> >::xsgetn
EXTRN	__imp_?xsgetn@?$basic_streambuf@DU?$char_traits@D@std@@@std@@MEAA_JPEAD_J@Z:PROC
EXTRN	?uflow@?$basic_streambuf@DU?$char_traits@D@std@@@std@@MEAAHXZ:PROC ; std::basic_streambuf<char,std::char_traits<char> >::uflow
EXTRN	__imp_?uflow@?$basic_streambuf@DU?$char_traits@D@std@@@std@@MEAAHXZ:PROC
EXTRN	?showmanyc@?$basic_streambuf@DU?$char_traits@D@std@@@std@@MEAA_JXZ:PROC ; std::basic_streambuf<char,std::char_traits<char> >::showmanyc
EXTRN	__imp_?showmanyc@?$basic_streambuf@DU?$char_traits@D@std@@@std@@MEAA_JXZ:PROC
EXTRN	?_Unlock@?$basic_streambuf@DU?$char_traits@D@std@@@std@@UEAAXXZ:PROC ; std::basic_streambuf<char,std::char_traits<char> >::_Unlock
EXTRN	__imp_?_Unlock@?$basic_streambuf@DU?$char_traits@D@std@@@std@@UEAAXXZ:PROC
EXTRN	?_Lock@?$basic_streambuf@DU?$char_traits@D@std@@@std@@UEAAXXZ:PROC ; std::basic_streambuf<char,std::char_traits<char> >::_Lock
EXTRN	__imp_?_Lock@?$basic_streambuf@DU?$char_traits@D@std@@@std@@UEAAXXZ:PROC
EXTRN	__imp_??1?$basic_streambuf@DU?$char_traits@D@std@@@std@@UEAA@XZ:PROC
EXTRN	__imp_??1?$basic_ios@DU?$char_traits@D@std@@@std@@UEAA@XZ:PROC
EXTRN	__imp_??0?$basic_ostream@DU?$char_traits@D@std@@@std@@QEAA@PEAV?$basic_streambuf@DU?$char_traits@D@std@@@1@_N@Z:PROC
EXTRN	__imp_?_Pninc@?$basic_streambuf@DU?$char_traits@D@std@@@std@@IEAAPEADXZ:PROC
EXTRN	__imp_?setp@?$basic_streambuf@DU?$char_traits@D@std@@@std@@IEAAXPEAD00@Z:PROC
EXTRN	__imp_?setp@?$basic_streambuf@DU?$char_traits@D@std@@@std@@IEAAXPEAD0@Z:PROC
EXTRN	__imp_?pbump@?$basic_streambuf@DU?$char_traits@D@std@@@std@@IEAAXH@Z:PROC
EXTRN	__imp_?epptr@?$basic_streambuf@DU?$char_traits@D@std@@@std@@IEBAPEADXZ:PROC
EXTRN	__imp_?setg@?$basic_streambuf@DU?$char_traits@D@std@@@std@@IEAAXPEAD00@Z:PROC
EXTRN	__imp_?gbump@?$basic_streambuf@DU?$char_traits@D@std@@@std@@IEAAXH@Z:PROC
EXTRN	__imp_?egptr@?$basic_streambuf@DU?$char_traits@D@std@@@std@@IEBAPEADXZ:PROC
EXTRN	__imp_?pptr@?$basic_streambuf@DU?$char_traits@D@std@@@std@@IEBAPEADXZ:PROC
EXTRN	__imp_?pbase@?$basic_streambuf@DU?$char_traits@D@std@@@std@@IEBAPEADXZ:PROC
EXTRN	__imp_?gptr@?$basic_streambuf@DU?$char_traits@D@std@@@std@@IEBAPEADXZ:PROC
EXTRN	__imp_?eback@?$basic_streambuf@DU?$char_traits@D@std@@@std@@IEBAPEADXZ:PROC
EXTRN	__imp_??0?$basic_ios@DU?$char_traits@D@std@@@std@@IEAA@XZ:PROC
EXTRN	__imp_?fill@?$basic_ios@DU?$char_traits@D@std@@@std@@QEBADXZ:PROC
EXTRN	__imp_?rdbuf@?$basic_ios@DU?$char_traits@D@std@@@std@@QEBAPEAV?$basic_streambuf@DU?$char_traits@D@std@@@2@XZ:PROC
EXTRN	__imp_?setstate@?$basic_ios@DU?$char_traits@D@std@@@std@@QEAAXH_N@Z:PROC
EXTRN	__imp_?flush@?$basic_ostream@DU?$char_traits@D@std@@@std@@QEAAAEAV12@XZ:PROC
EXTRN	__imp_?_Osfx@?$basic_ostream@DU?$char_traits@D@std@@@std@@QEAAXXZ:PROC
EXTRN	__imp_??0?$basic_streambuf@DU?$char_traits@D@std@@@std@@IEAA@XZ:PROC
EXTRN	__imp_?tie@?$basic_ios@DU?$char_traits@D@std@@@std@@QEBAPEAV?$basic_ostream@DU?$char_traits@D@std@@@2@XZ:PROC
EXTRN	__imp_?sputc@?$basic_streambuf@DU?$char_traits@D@std@@@std@@QEAAHD@Z:PROC
EXTRN	__imp_?sgetc@?$basic_streambuf@DU?$char_traits@D@std@@@std@@QEAAHXZ:PROC
EXTRN	__imp_?sbumpc@?$basic_streambuf@DU?$char_traits@D@std@@@std@@QEAAHXZ:PROC
EXTRN	__imp_?sputn@?$basic_streambuf@DU?$char_traits@D@std@@@std@@QEAA_JPEBD_J@Z:PROC
EXTRN	__imp_?fill@?$basic_ios@DU?$char_traits@D@std@@@std@@QEAADD@Z:PROC
EXTRN	__imp_?snextc@?$basic_streambuf@DU?$char_traits@D@std@@@std@@QEAAHXZ:PROC
EXTRN	__imp_?_Ipfx@?$basic_istream@DU?$char_traits@D@std@@@std@@QEAA_N_N@Z:PROC
EXTRN	__imp_malloc:PROC
EXTRN	??_L@YAXPEAX_K1P6AX0@Z2@Z:PROC			; `eh vector constructor iterator'
EXTRN	__imp___stdio_common_vsscanf:PROC
EXTRN	__imp_strchr:PROC
EXTRN	__imp_free:PROC
EXTRN	__imp___stdio_common_vsprintf:PROC
EXTRN	_Init_thread_header:PROC
EXTRN	atexit:PROC
EXTRN	__imp___std_exception_copy:PROC
EXTRN	_Init_thread_footer:PROC
EXTRN	__imp_?setw@std@@YA?AU?$_Smanip@_J@1@_J@Z:PROC
EXTRN	__imp_?_BADOFF@std@@3_JB:QWORD
EXTRN	__imp_?uncaught_exception@std@@YA_NXZ:PROC
EXTRN	__imp_strpbrk:PROC
EXTRN	__report_rangecheckfailure:PROC
EXTRN	_Init_thread_epoch:DWORD
EXTRN	__imp___std_exception_destroy:PROC
;	COMDAT ?defaultAllocator@?1??valueAllocator@Json@@YAAEAPEAVValueAllocator@2@XZ@4VDefaultValueAllocator@2@A
_BSS	SEGMENT
?defaultAllocator@?1??valueAllocator@Json@@YAAEAPEAVValueAllocator@2@XZ@4VDefaultValueAllocator@2@A DQ 01H DUP (?) ; `Json::valueAllocator'::`2'::defaultAllocator
_BSS	ENDS
;	COMDAT ??_R2?$basic_ostringstream@DU?$char_traits@D@std@@V?$allocator@D@2@@std@@8
rdata$r	SEGMENT
??_R2?$basic_ostringstream@DU?$char_traits@D@std@@V?$allocator@D@2@@std@@8 DD imagerel ??_R1A@?0A@EA@?$basic_ostringstream@DU?$char_traits@D@std@@V?$allocator@D@2@@std@@8 ; std::basic_ostringstream<char,std::char_traits<char>,std::allocator<char> >::`RTTI Base Class Array'
	DD	imagerel ??_R1A@?0A@EA@?$basic_ostream@DU?$char_traits@D@std@@@std@@8
	DD	imagerel ??_R1A@A@3FA@?$basic_ios@DU?$char_traits@D@std@@@std@@8
	DD	imagerel ??_R1A@A@3EA@ios_base@std@@8
	DD	imagerel ??_R17A@3EA@?$_Iosb@H@std@@8
	ORG $+3
rdata$r	ENDS
;	COMDAT ??_R2?$basic_ios@DU?$char_traits@D@std@@@std@@8
rdata$r	SEGMENT
??_R2?$basic_ios@DU?$char_traits@D@std@@@std@@8 DD imagerel ??_R1A@?0A@EA@?$basic_ios@DU?$char_traits@D@std@@@std@@8 ; std::basic_ios<char,std::char_traits<char> >::`RTTI Base Class Array'
	DD	imagerel ??_R1A@?0A@EA@ios_base@std@@8
	DD	imagerel ??_R17?0A@EA@?$_Iosb@H@std@@8
	ORG $+3
rdata$r	ENDS
;	COMDAT ??_R3runtime_error@std@@8
rdata$r	SEGMENT
??_R3runtime_error@std@@8 DD 00H			; std::runtime_error::`RTTI Class Hierarchy Descriptor'
	DD	00H
	DD	02H
	DD	imagerel ??_R2runtime_error@std@@8
rdata$r	ENDS
;	COMDAT ??_R17?0A@EA@?$_Iosb@H@std@@8
rdata$r	SEGMENT
??_R17?0A@EA@?$_Iosb@H@std@@8 DD imagerel ??_R0?AV?$_Iosb@H@std@@@8 ; std::_Iosb<int>::`RTTI Base Class Descriptor at (8,-1,0,64)'
	DD	00H
	DD	08H
	DD	0ffffffffH
	DD	00H
	DD	040H
	DD	imagerel ??_R3?$_Iosb@H@std@@8
rdata$r	ENDS
;	COMDAT ??_R0?AVexception@std@@@8
data$r	SEGMENT
??_R0?AVexception@std@@@8 DQ FLAT:??_7type_info@@6B@	; std::exception `RTTI Type Descriptor'
	DQ	0000000000000000H
	DB	'.?AVexception@std@@', 00H
data$r	ENDS
;	COMDAT ??_R3?$_Iosb@H@std@@8
rdata$r	SEGMENT
??_R3?$_Iosb@H@std@@8 DD 00H				; std::_Iosb<int>::`RTTI Class Hierarchy Descriptor'
	DD	00H
	DD	01H
	DD	imagerel ??_R2?$_Iosb@H@std@@8
rdata$r	ENDS
;	COMDAT ??_R1A@?0A@EA@StyledWriter@Json@@8
rdata$r	SEGMENT
??_R1A@?0A@EA@StyledWriter@Json@@8 DD imagerel ??_R0?AVStyledWriter@Json@@@8 ; Json::StyledWriter::`RTTI Base Class Descriptor at (0,-1,0,64)'
	DD	01H
	DD	00H
	DD	0ffffffffH
	DD	00H
	DD	040H
	DD	imagerel ??_R3StyledWriter@Json@@8
rdata$r	ENDS
;	COMDAT ??_R1A@?0A@EA@?$basic_ios@DU?$char_traits@D@std@@@std@@8
rdata$r	SEGMENT
??_R1A@?0A@EA@?$basic_ios@DU?$char_traits@D@std@@@std@@8 DD imagerel ??_R0?AV?$basic_ios@DU?$char_traits@D@std@@@std@@@8 ; std::basic_ios<char,std::char_traits<char> >::`RTTI Base Class Descriptor at (0,-1,0,64)'
	DD	02H
	DD	00H
	DD	0ffffffffH
	DD	00H
	DD	040H
	DD	imagerel ??_R3?$basic_ios@DU?$char_traits@D@std@@@std@@8
rdata$r	ENDS
;	COMDAT ??_R1A@A@3EA@ios_base@std@@8
rdata$r	SEGMENT
??_R1A@A@3EA@ios_base@std@@8 DD imagerel ??_R0?AVios_base@std@@@8 ; std::ios_base::`RTTI Base Class Descriptor at (0,0,4,64)'
	DD	01H
	DD	00H
	DD	00H
	DD	04H
	DD	040H
	DD	imagerel ??_R3ios_base@std@@8
rdata$r	ENDS
;	COMDAT _CT??_R0?AVexception@std@@@8??0exception@std@@QEAA@AEBV01@@Z24
xdata$x	SEGMENT
_CT??_R0?AVexception@std@@@8??0exception@std@@QEAA@AEBV01@@Z24 DD 00H
	DD	imagerel ??_R0?AVexception@std@@@8
	DD	00H
	DD	0ffffffffH
	ORG $+4
	DD	018H
	DD	imagerel ??0exception@std@@QEAA@AEBV01@@Z
xdata$x	ENDS
;	COMDAT ??_R2?$_Iosb@H@std@@8
rdata$r	SEGMENT
??_R2?$_Iosb@H@std@@8 DD imagerel ??_R1A@?0A@EA@?$_Iosb@H@std@@8 ; std::_Iosb<int>::`RTTI Base Class Array'
	ORG $+3
rdata$r	ENDS
;	COMDAT ??_R3?$basic_streambuf@DU?$char_traits@D@std@@@std@@8
rdata$r	SEGMENT
??_R3?$basic_streambuf@DU?$char_traits@D@std@@@std@@8 DD 00H ; std::basic_streambuf<char,std::char_traits<char> >::`RTTI Class Hierarchy Descriptor'
	DD	00H
	DD	01H
	DD	imagerel ??_R2?$basic_streambuf@DU?$char_traits@D@std@@@std@@8
rdata$r	ENDS
;	COMDAT ??_R3ios_base@std@@8
rdata$r	SEGMENT
??_R3ios_base@std@@8 DD 00H				; std::ios_base::`RTTI Class Hierarchy Descriptor'
	DD	00H
	DD	02H
	DD	imagerel ??_R2ios_base@std@@8
rdata$r	ENDS
;	COMDAT ??_R0?AVWriter@Json@@@8
data$r	SEGMENT
??_R0?AVWriter@Json@@@8 DQ FLAT:??_7type_info@@6B@	; Json::Writer `RTTI Type Descriptor'
	DQ	0000000000000000H
	DB	'.?AVWriter@Json@@', 00H
data$r	ENDS
;	COMDAT ??_R3?$basic_ostream@DU?$char_traits@D@std@@@std@@8
rdata$r	SEGMENT
??_R3?$basic_ostream@DU?$char_traits@D@std@@@std@@8 DD 00H ; std::basic_ostream<char,std::char_traits<char> >::`RTTI Class Hierarchy Descriptor'
	DD	00H
	DD	04H
	DD	imagerel ??_R2?$basic_ostream@DU?$char_traits@D@std@@@std@@8
rdata$r	ENDS
;	COMDAT ??_R2ios_base@std@@8
rdata$r	SEGMENT
??_R2ios_base@std@@8 DD imagerel ??_R1A@?0A@EA@ios_base@std@@8 ; std::ios_base::`RTTI Base Class Array'
	DD	imagerel ??_R17?0A@EA@?$_Iosb@H@std@@8
	ORG $+3
rdata$r	ENDS
;	COMDAT ??_R0?AV?$basic_ostream@DU?$char_traits@D@std@@@std@@@8
data$r	SEGMENT
??_R0?AV?$basic_ostream@DU?$char_traits@D@std@@@std@@@8 DQ FLAT:??_7type_info@@6B@ ; std::basic_ostream<char,std::char_traits<char> > `RTTI Type Descriptor'
	DQ	0000000000000000H
	DB	'.?AV?$basic_ostream@DU?$char_traits@D@std@@@std@@', 00H
data$r	ENDS
;	COMDAT ??_R1A@A@3FA@?$basic_ios@DU?$char_traits@D@std@@@std@@8
rdata$r	SEGMENT
??_R1A@A@3FA@?$basic_ios@DU?$char_traits@D@std@@@std@@8 DD imagerel ??_R0?AV?$basic_ios@DU?$char_traits@D@std@@@std@@@8 ; std::basic_ios<char,std::char_traits<char> >::`RTTI Base Class Descriptor at (0,0,4,80)'
	DD	02H
	DD	00H
	DD	00H
	DD	04H
	DD	050H
	DD	imagerel ??_R3?$basic_ios@DU?$char_traits@D@std@@@std@@8
rdata$r	ENDS
;	COMDAT ??_R2runtime_error@std@@8
rdata$r	SEGMENT
??_R2runtime_error@std@@8 DD imagerel ??_R1A@?0A@EA@runtime_error@std@@8 ; std::runtime_error::`RTTI Base Class Array'
	DD	imagerel ??_R1A@?0A@EA@exception@std@@8
	ORG $+3
rdata$r	ENDS
;	COMDAT _CTA2?AVruntime_error@std@@
xdata$x	SEGMENT
_CTA2?AVruntime_error@std@@ DD 02H
	DD	imagerel _CT??_R0?AVruntime_error@std@@@8??0runtime_error@std@@QEAA@AEBV01@@Z24
	DD	imagerel _CT??_R0?AVexception@std@@@8??0exception@std@@QEAA@AEBV01@@Z24
xdata$x	ENDS
;	COMDAT ??_R4?$basic_stringbuf@DU?$char_traits@D@std@@V?$allocator@D@2@@std@@6B@
rdata$r	SEGMENT
??_R4?$basic_stringbuf@DU?$char_traits@D@std@@V?$allocator@D@2@@std@@6B@ DD 01H ; std::basic_stringbuf<char,std::char_traits<char>,std::allocator<char> >::`RTTI Complete Object Locator'
	DD	00H
	DD	00H
	DD	imagerel ??_R0?AV?$basic_stringbuf@DU?$char_traits@D@std@@V?$allocator@D@2@@std@@@8
	DD	imagerel ??_R3?$basic_stringbuf@DU?$char_traits@D@std@@V?$allocator@D@2@@std@@8
	DD	imagerel ??_R4?$basic_stringbuf@DU?$char_traits@D@std@@V?$allocator@D@2@@std@@6B@
rdata$r	ENDS
;	COMDAT ??_8?$basic_ostringstream@DU?$char_traits@D@std@@V?$allocator@D@2@@std@@7B@
CONST	SEGMENT
??_8?$basic_ostringstream@DU?$char_traits@D@std@@V?$allocator@D@2@@std@@7B@ DD 00H ; std::basic_ostringstream<char,std::char_traits<char>,std::allocator<char> >::`vbtable'
	DD	088H
CONST	ENDS
;	COMDAT ??_R4Writer@Json@@6B@
rdata$r	SEGMENT
??_R4Writer@Json@@6B@ DD 01H				; Json::Writer::`RTTI Complete Object Locator'
	DD	00H
	DD	00H
	DD	imagerel ??_R0?AVWriter@Json@@@8
	DD	imagerel ??_R3Writer@Json@@8
	DD	imagerel ??_R4Writer@Json@@6B@
rdata$r	ENDS
;	COMDAT _CT??_R0?AVruntime_error@std@@@8??0runtime_error@std@@QEAA@AEBV01@@Z24
xdata$x	SEGMENT
_CT??_R0?AVruntime_error@std@@@8??0runtime_error@std@@QEAA@AEBV01@@Z24 DD 00H
	DD	imagerel ??_R0?AVruntime_error@std@@@8
	DD	00H
	DD	0ffffffffH
	ORG $+4
	DD	018H
	DD	imagerel ??0runtime_error@std@@QEAA@AEBV01@@Z
xdata$x	ENDS
;	COMDAT ?valueAllocator@?1??0Json@@YAAEAPEAVValueAllocator@1@XZ@4PEAV21@EA
_DATA	SEGMENT
?valueAllocator@?1??0Json@@YAAEAPEAVValueAllocator@1@XZ@4PEAV21@EA DQ FLAT:?defaultAllocator@?1??valueAllocator@Json@@YAAEAPEAVValueAllocator@2@XZ@4VDefaultValueAllocator@2@A ; `Json::valueAllocator'::`2'::valueAllocator
_DATA	ENDS
;	COMDAT ??_R1A@?0A@EA@Writer@Json@@8
rdata$r	SEGMENT
??_R1A@?0A@EA@Writer@Json@@8 DD imagerel ??_R0?AVWriter@Json@@@8 ; Json::Writer::`RTTI Base Class Descriptor at (0,-1,0,64)'
	DD	00H
	DD	00H
	DD	0ffffffffH
	DD	00H
	DD	040H
	DD	imagerel ??_R3Writer@Json@@8
rdata$r	ENDS
;	COMDAT ??_R1A@?0A@EA@?$basic_stringbuf@DU?$char_traits@D@std@@V?$allocator@D@2@@std@@8
rdata$r	SEGMENT
??_R1A@?0A@EA@?$basic_stringbuf@DU?$char_traits@D@std@@V?$allocator@D@2@@std@@8 DD imagerel ??_R0?AV?$basic_stringbuf@DU?$char_traits@D@std@@V?$allocator@D@2@@std@@@8 ; std::basic_stringbuf<char,std::char_traits<char>,std::allocator<char> >::`RTTI Base Class Descriptor at (0,-1,0,64)'
	DD	01H
	DD	00H
	DD	0ffffffffH
	DD	00H
	DD	040H
	DD	imagerel ??_R3?$basic_stringbuf@DU?$char_traits@D@std@@V?$allocator@D@2@@std@@8
rdata$r	ENDS
;	COMDAT ??_R1A@?0A@EA@?$_Iosb@H@std@@8
rdata$r	SEGMENT
??_R1A@?0A@EA@?$_Iosb@H@std@@8 DD imagerel ??_R0?AV?$_Iosb@H@std@@@8 ; std::_Iosb<int>::`RTTI Base Class Descriptor at (0,-1,0,64)'
	DD	00H
	DD	00H
	DD	0ffffffffH
	DD	00H
	DD	040H
	DD	imagerel ??_R3?$_Iosb@H@std@@8
rdata$r	ENDS
;	COMDAT ??_R2?$basic_streambuf@DU?$char_traits@D@std@@@std@@8
rdata$r	SEGMENT
??_R2?$basic_streambuf@DU?$char_traits@D@std@@@std@@8 DD imagerel ??_R1A@?0A@EA@?$basic_streambuf@DU?$char_traits@D@std@@@std@@8 ; std::basic_streambuf<char,std::char_traits<char> >::`RTTI Base Class Array'
	ORG $+3
rdata$r	ENDS
;	COMDAT ??_7ValueAllocator@Json@@6B@
CONST	SEGMENT
??_7ValueAllocator@Json@@6B@ DQ FLAT:??_R4ValueAllocator@Json@@6B@ ; Json::ValueAllocator::`vftable'
	DQ	FLAT:??_EValueAllocator@Json@@UEAAPEAXI@Z
	DQ	FLAT:_purecall
	DQ	FLAT:_purecall
	DQ	FLAT:_purecall
	DQ	FLAT:_purecall
CONST	ENDS
;	COMDAT ??_R0?AVDefaultValueAllocator@Json@@@8
data$r	SEGMENT
??_R0?AVDefaultValueAllocator@Json@@@8 DQ FLAT:??_7type_info@@6B@ ; Json::DefaultValueAllocator `RTTI Type Descriptor'
	DQ	0000000000000000H
	DB	'.?AVDefaultValueAllocator@Json@@', 00H
data$r	ENDS
;	COMDAT ??_R0?AV?$basic_ios@DU?$char_traits@D@std@@@std@@@8
data$r	SEGMENT
??_R0?AV?$basic_ios@DU?$char_traits@D@std@@@std@@@8 DQ FLAT:??_7type_info@@6B@ ; std::basic_ios<char,std::char_traits<char> > `RTTI Type Descriptor'
	DQ	0000000000000000H
	DB	'.?AV?$basic_ios@DU?$char_traits@D@std@@@std@@', 00H
data$r	ENDS
;	COMDAT ??_7runtime_error@std@@6B@
CONST	SEGMENT
??_7runtime_error@std@@6B@ DQ FLAT:??_R4runtime_error@std@@6B@ ; std::runtime_error::`vftable'
	DQ	FLAT:??_Eruntime_error@std@@UEAAPEAXI@Z
	DQ	FLAT:?what@exception@std@@UEBAPEBDXZ
CONST	ENDS
;	COMDAT ??_R1A@?0A@EA@?$basic_ostream@DU?$char_traits@D@std@@@std@@8
rdata$r	SEGMENT
??_R1A@?0A@EA@?$basic_ostream@DU?$char_traits@D@std@@@std@@8 DD imagerel ??_R0?AV?$basic_ostream@DU?$char_traits@D@std@@@std@@@8 ; std::basic_ostream<char,std::char_traits<char> >::`RTTI Base Class Descriptor at (0,-1,0,64)'
	DD	03H
	DD	00H
	DD	0ffffffffH
	DD	00H
	DD	040H
	DD	imagerel ??_R3?$basic_ostream@DU?$char_traits@D@std@@@std@@8
rdata$r	ENDS
;	COMDAT ??_R3exception@std@@8
rdata$r	SEGMENT
??_R3exception@std@@8 DD 00H				; std::exception::`RTTI Class Hierarchy Descriptor'
	DD	00H
	DD	01H
	DD	imagerel ??_R2exception@std@@8
rdata$r	ENDS
;	COMDAT ??_R1A@?0A@EA@ios_base@std@@8
rdata$r	SEGMENT
??_R1A@?0A@EA@ios_base@std@@8 DD imagerel ??_R0?AVios_base@std@@@8 ; std::ios_base::`RTTI Base Class Descriptor at (0,-1,0,64)'
	DD	01H
	DD	00H
	DD	0ffffffffH
	DD	00H
	DD	040H
	DD	imagerel ??_R3ios_base@std@@8
rdata$r	ENDS
;	COMDAT ??_R2Writer@Json@@8
rdata$r	SEGMENT
??_R2Writer@Json@@8 DD imagerel ??_R1A@?0A@EA@Writer@Json@@8 ; Json::Writer::`RTTI Base Class Array'
	ORG $+3
rdata$r	ENDS
;	COMDAT ??_7exception@std@@6B@
CONST	SEGMENT
??_7exception@std@@6B@ DQ FLAT:??_R4exception@std@@6B@	; std::exception::`vftable'
	DQ	FLAT:??_Eexception@std@@UEAAPEAXI@Z
	DQ	FLAT:?what@exception@std@@UEBAPEBDXZ
CONST	ENDS
;	COMDAT ??_R2ValueAllocator@Json@@8
rdata$r	SEGMENT
??_R2ValueAllocator@Json@@8 DD imagerel ??_R1A@?0A@EA@ValueAllocator@Json@@8 ; Json::ValueAllocator::`RTTI Base Class Array'
	ORG $+3
rdata$r	ENDS
;	COMDAT ??_R0?AVValueAllocator@Json@@@8
data$r	SEGMENT
??_R0?AVValueAllocator@Json@@@8 DQ FLAT:??_7type_info@@6B@ ; Json::ValueAllocator `RTTI Type Descriptor'
	DQ	0000000000000000H
	DB	'.?AVValueAllocator@Json@@', 00H
data$r	ENDS
;	COMDAT ??_7?$basic_stringbuf@DU?$char_traits@D@std@@V?$allocator@D@2@@std@@6B@
CONST	SEGMENT
??_7?$basic_stringbuf@DU?$char_traits@D@std@@V?$allocator@D@2@@std@@6B@ DQ FLAT:??_R4?$basic_stringbuf@DU?$char_traits@D@std@@V?$allocator@D@2@@std@@6B@ ; std::basic_stringbuf<char,std::char_traits<char>,std::allocator<char> >::`vftable'
	DQ	FLAT:??_E?$basic_stringbuf@DU?$char_traits@D@std@@V?$allocator@D@2@@std@@UEAAPEAXI@Z
	DQ	FLAT:?_Lock@?$basic_streambuf@DU?$char_traits@D@std@@@std@@UEAAXXZ
	DQ	FLAT:?_Unlock@?$basic_streambuf@DU?$char_traits@D@std@@@std@@UEAAXXZ
	DQ	FLAT:?overflow@?$basic_stringbuf@DU?$char_traits@D@std@@V?$allocator@D@2@@std@@MEAAHH@Z
	DQ	FLAT:?pbackfail@?$basic_stringbuf@DU?$char_traits@D@std@@V?$allocator@D@2@@std@@MEAAHH@Z
	DQ	FLAT:?showmanyc@?$basic_streambuf@DU?$char_traits@D@std@@@std@@MEAA_JXZ
	DQ	FLAT:?underflow@?$basic_stringbuf@DU?$char_traits@D@std@@V?$allocator@D@2@@std@@MEAAHXZ
	DQ	FLAT:?uflow@?$basic_streambuf@DU?$char_traits@D@std@@@std@@MEAAHXZ
	DQ	FLAT:?xsgetn@?$basic_streambuf@DU?$char_traits@D@std@@@std@@MEAA_JPEAD_J@Z
	DQ	FLAT:?xsputn@?$basic_streambuf@DU?$char_traits@D@std@@@std@@MEAA_JPEBD_J@Z
	DQ	FLAT:?seekoff@?$basic_stringbuf@DU?$char_traits@D@std@@V?$allocator@D@2@@std@@MEAA?AV?$fpos@U_Mbstatet@@@2@_JHH@Z
	DQ	FLAT:?seekpos@?$basic_stringbuf@DU?$char_traits@D@std@@V?$allocator@D@2@@std@@MEAA?AV?$fpos@U_Mbstatet@@@2@V32@H@Z
	DQ	FLAT:?setbuf@?$basic_streambuf@DU?$char_traits@D@std@@@std@@MEAAPEAV12@PEAD_J@Z
	DQ	FLAT:?sync@?$basic_streambuf@DU?$char_traits@D@std@@@std@@MEAAHXZ
	DQ	FLAT:?imbue@?$basic_streambuf@DU?$char_traits@D@std@@@std@@MEAAXAEBVlocale@2@@Z
CONST	ENDS
;	COMDAT ??_R0?AVStyledWriter@Json@@@8
data$r	SEGMENT
??_R0?AVStyledWriter@Json@@@8 DQ FLAT:??_7type_info@@6B@ ; Json::StyledWriter `RTTI Type Descriptor'
	DQ	0000000000000000H
	DB	'.?AVStyledWriter@Json@@', 00H
data$r	ENDS
;	COMDAT ??_R4DefaultValueAllocator@Json@@6B@
rdata$r	SEGMENT
??_R4DefaultValueAllocator@Json@@6B@ DD 01H		; Json::DefaultValueAllocator::`RTTI Complete Object Locator'
	DD	00H
	DD	00H
	DD	imagerel ??_R0?AVDefaultValueAllocator@Json@@@8
	DD	imagerel ??_R3DefaultValueAllocator@Json@@8
	DD	imagerel ??_R4DefaultValueAllocator@Json@@6B@
rdata$r	ENDS
;	COMDAT ??_R3Writer@Json@@8
rdata$r	SEGMENT
??_R3Writer@Json@@8 DD 00H				; Json::Writer::`RTTI Class Hierarchy Descriptor'
	DD	00H
	DD	01H
	DD	imagerel ??_R2Writer@Json@@8
rdata$r	ENDS
;	COMDAT _TI2?AVruntime_error@std@@
xdata$x	SEGMENT
_TI2?AVruntime_error@std@@ DD 00H
	DD	imagerel ??1runtime_error@std@@UEAA@XZ
	DD	00H
	DD	imagerel _CTA2?AVruntime_error@std@@
xdata$x	ENDS
;	COMDAT ??_R3?$basic_ios@DU?$char_traits@D@std@@@std@@8
rdata$r	SEGMENT
??_R3?$basic_ios@DU?$char_traits@D@std@@@std@@8 DD 00H	; std::basic_ios<char,std::char_traits<char> >::`RTTI Class Hierarchy Descriptor'
	DD	00H
	DD	03H
	DD	imagerel ??_R2?$basic_ios@DU?$char_traits@D@std@@@std@@8
rdata$r	ENDS
;	COMDAT ??_R4FastWriter@Json@@6B@
rdata$r	SEGMENT
??_R4FastWriter@Json@@6B@ DD 01H			; Json::FastWriter::`RTTI Complete Object Locator'
	DD	00H
	DD	00H
	DD	imagerel ??_R0?AVFastWriter@Json@@@8
	DD	imagerel ??_R3FastWriter@Json@@8
	DD	imagerel ??_R4FastWriter@Json@@6B@
rdata$r	ENDS
;	COMDAT ??_R0?AV?$basic_ostringstream@DU?$char_traits@D@std@@V?$allocator@D@2@@std@@@8
data$r	SEGMENT
??_R0?AV?$basic_ostringstream@DU?$char_traits@D@std@@V?$allocator@D@2@@std@@@8 DQ FLAT:??_7type_info@@6B@ ; std::basic_ostringstream<char,std::char_traits<char>,std::allocator<char> > `RTTI Type Descriptor'
	DQ	0000000000000000H
	DB	'.?AV?$basic_ostringstream@DU?$char_traits@D@std@@V?$allo'
	DB	'cator@D@2@@std@@', 00H
data$r	ENDS
;	COMDAT ??_R2?$basic_ostream@DU?$char_traits@D@std@@@std@@8
rdata$r	SEGMENT
??_R2?$basic_ostream@DU?$char_traits@D@std@@@std@@8 DD imagerel ??_R1A@?0A@EA@?$basic_ostream@DU?$char_traits@D@std@@@std@@8 ; std::basic_ostream<char,std::char_traits<char> >::`RTTI Base Class Array'
	DD	imagerel ??_R1A@A@3FA@?$basic_ios@DU?$char_traits@D@std@@@std@@8
	DD	imagerel ??_R1A@A@3EA@ios_base@std@@8
	DD	imagerel ??_R17A@3EA@?$_Iosb@H@std@@8
	ORG $+3
rdata$r	ENDS
;	COMDAT ??_R2DefaultValueAllocator@Json@@8
rdata$r	SEGMENT
??_R2DefaultValueAllocator@Json@@8 DD imagerel ??_R1A@?0A@EA@DefaultValueAllocator@Json@@8 ; Json::DefaultValueAllocator::`RTTI Base Class Array'
	DD	imagerel ??_R1A@?0A@EA@ValueAllocator@Json@@8
	ORG $+3
rdata$r	ENDS
;	COMDAT ??_R2exception@std@@8
rdata$r	SEGMENT
??_R2exception@std@@8 DD imagerel ??_R1A@?0A@EA@exception@std@@8 ; std::exception::`RTTI Base Class Array'
	ORG $+3
rdata$r	ENDS
;	COMDAT ??_R3?$basic_stringbuf@DU?$char_traits@D@std@@V?$allocator@D@2@@std@@8
rdata$r	SEGMENT
??_R3?$basic_stringbuf@DU?$char_traits@D@std@@V?$allocator@D@2@@std@@8 DD 00H ; std::basic_stringbuf<char,std::char_traits<char>,std::allocator<char> >::`RTTI Class Hierarchy Descriptor'
	DD	00H
	DD	02H
	DD	imagerel ??_R2?$basic_stringbuf@DU?$char_traits@D@std@@V?$allocator@D@2@@std@@8
rdata$r	ENDS
;	COMDAT ??_7FastWriter@Json@@6B@
CONST	SEGMENT
??_7FastWriter@Json@@6B@ DQ FLAT:??_R4FastWriter@Json@@6B@ ; Json::FastWriter::`vftable'
	DQ	FLAT:??_EFastWriter@Json@@UEAAPEAXI@Z
	DQ	FLAT:?write@FastWriter@Json@@UEAA?AV?$basic_string@DU?$char_traits@D@std@@V?$allocator@D@2@@std@@AEBVValue@2@@Z
CONST	ENDS
;	COMDAT ??_R1A@?0A@EA@?$basic_ostringstream@DU?$char_traits@D@std@@V?$allocator@D@2@@std@@8
rdata$r	SEGMENT
??_R1A@?0A@EA@?$basic_ostringstream@DU?$char_traits@D@std@@V?$allocator@D@2@@std@@8 DD imagerel ??_R0?AV?$basic_ostringstream@DU?$char_traits@D@std@@V?$allocator@D@2@@std@@@8 ; std::basic_ostringstream<char,std::char_traits<char>,std::allocator<char> >::`RTTI Base Class Descriptor at (0,-1,0,64)'
	DD	04H
	DD	00H
	DD	0ffffffffH
	DD	00H
	DD	040H
	DD	imagerel ??_R3?$basic_ostringstream@DU?$char_traits@D@std@@V?$allocator@D@2@@std@@8
rdata$r	ENDS
;	COMDAT ??_R0?AV?$basic_streambuf@DU?$char_traits@D@std@@@std@@@8
data$r	SEGMENT
??_R0?AV?$basic_streambuf@DU?$char_traits@D@std@@@std@@@8 DQ FLAT:??_7type_info@@6B@ ; std::basic_streambuf<char,std::char_traits<char> > `RTTI Type Descriptor'
	DQ	0000000000000000H
	DB	'.?AV?$basic_streambuf@DU?$char_traits@D@std@@@std@@', 00H
data$r	ENDS
;	COMDAT ??_R3FastWriter@Json@@8
rdata$r	SEGMENT
??_R3FastWriter@Json@@8 DD 00H				; Json::FastWriter::`RTTI Class Hierarchy Descriptor'
	DD	00H
	DD	02H
	DD	imagerel ??_R2FastWriter@Json@@8
rdata$r	ENDS
;	COMDAT ??_R0?AV?$_Iosb@H@std@@@8
data$r	SEGMENT
??_R0?AV?$_Iosb@H@std@@@8 DQ FLAT:??_7type_info@@6B@	; std::_Iosb<int> `RTTI Type Descriptor'
	DQ	0000000000000000H
	DB	'.?AV?$_Iosb@H@std@@', 00H
data$r	ENDS
;	COMDAT ??_R3DefaultValueAllocator@Json@@8
rdata$r	SEGMENT
??_R3DefaultValueAllocator@Json@@8 DD 00H		; Json::DefaultValueAllocator::`RTTI Class Hierarchy Descriptor'
	DD	00H
	DD	02H
	DD	imagerel ??_R2DefaultValueAllocator@Json@@8
rdata$r	ENDS
;	COMDAT ??_7StyledWriter@Json@@6B@
CONST	SEGMENT
??_7StyledWriter@Json@@6B@ DQ FLAT:??_R4StyledWriter@Json@@6B@ ; Json::StyledWriter::`vftable'
	DQ	FLAT:??_EStyledWriter@Json@@UEAAPEAXI@Z
	DQ	FLAT:?write@StyledWriter@Json@@UEAA?AV?$basic_string@DU?$char_traits@D@std@@V?$allocator@D@2@@std@@AEBVValue@2@@Z
CONST	ENDS
;	COMDAT ??_R1A@?0A@EA@?$basic_streambuf@DU?$char_traits@D@std@@@std@@8
rdata$r	SEGMENT
??_R1A@?0A@EA@?$basic_streambuf@DU?$char_traits@D@std@@@std@@8 DD imagerel ??_R0?AV?$basic_streambuf@DU?$char_traits@D@std@@@std@@@8 ; std::basic_streambuf<char,std::char_traits<char> >::`RTTI Base Class Descriptor at (0,-1,0,64)'
	DD	00H
	DD	00H
	DD	0ffffffffH
	DD	00H
	DD	040H
	DD	imagerel ??_R3?$basic_streambuf@DU?$char_traits@D@std@@@std@@8
rdata$r	ENDS
;	COMDAT ??_R1A@?0A@EA@exception@std@@8
rdata$r	SEGMENT
??_R1A@?0A@EA@exception@std@@8 DD imagerel ??_R0?AVexception@std@@@8 ; std::exception::`RTTI Base Class Descriptor at (0,-1,0,64)'
	DD	00H
	DD	00H
	DD	0ffffffffH
	DD	00H
	DD	040H
	DD	imagerel ??_R3exception@std@@8
rdata$r	ENDS
;	COMDAT ??_R1A@?0A@EA@DefaultValueAllocator@Json@@8
rdata$r	SEGMENT
??_R1A@?0A@EA@DefaultValueAllocator@Json@@8 DD imagerel ??_R0?AVDefaultValueAllocator@Json@@@8 ; Json::DefaultValueAllocator::`RTTI Base Class Descriptor at (0,-1,0,64)'
	DD	01H
	DD	00H
	DD	0ffffffffH
	DD	00H
	DD	040H
	DD	imagerel ??_R3DefaultValueAllocator@Json@@8
rdata$r	ENDS
;	COMDAT ??_R17A@3EA@?$_Iosb@H@std@@8
rdata$r	SEGMENT
??_R17A@3EA@?$_Iosb@H@std@@8 DD imagerel ??_R0?AV?$_Iosb@H@std@@@8 ; std::_Iosb<int>::`RTTI Base Class Descriptor at (8,0,4,64)'
	DD	00H
	DD	08H
	DD	00H
	DD	04H
	DD	040H
	DD	imagerel ??_R3?$_Iosb@H@std@@8
rdata$r	ENDS
;	COMDAT ??_R1A@?0A@EA@ValueAllocator@Json@@8
rdata$r	SEGMENT
??_R1A@?0A@EA@ValueAllocator@Json@@8 DD imagerel ??_R0?AVValueAllocator@Json@@@8 ; Json::ValueAllocator::`RTTI Base Class Descriptor at (0,-1,0,64)'
	DD	00H
	DD	00H
	DD	0ffffffffH
	DD	00H
	DD	040H
	DD	imagerel ??_R3ValueAllocator@Json@@8
rdata$r	ENDS
;	COMDAT ??_R1A@?0A@EA@runtime_error@std@@8
rdata$r	SEGMENT
??_R1A@?0A@EA@runtime_error@std@@8 DD imagerel ??_R0?AVruntime_error@std@@@8 ; std::runtime_error::`RTTI Base Class Descriptor at (0,-1,0,64)'
	DD	01H
	DD	00H
	DD	0ffffffffH
	DD	00H
	DD	040H
	DD	imagerel ??_R3runtime_error@std@@8
rdata$r	ENDS
;	COMDAT ??_R3?$basic_ostringstream@DU?$char_traits@D@std@@V?$allocator@D@2@@std@@8
rdata$r	SEGMENT
??_R3?$basic_ostringstream@DU?$char_traits@D@std@@V?$allocator@D@2@@std@@8 DD 00H ; std::basic_ostringstream<char,std::char_traits<char>,std::allocator<char> >::`RTTI Class Hierarchy Descriptor'
	DD	00H
	DD	05H
	DD	imagerel ??_R2?$basic_ostringstream@DU?$char_traits@D@std@@V?$allocator@D@2@@std@@8
rdata$r	ENDS
;	COMDAT ??_R2?$basic_stringbuf@DU?$char_traits@D@std@@V?$allocator@D@2@@std@@8
rdata$r	SEGMENT
??_R2?$basic_stringbuf@DU?$char_traits@D@std@@V?$allocator@D@2@@std@@8 DD imagerel ??_R1A@?0A@EA@?$basic_stringbuf@DU?$char_traits@D@std@@V?$allocator@D@2@@std@@8 ; std::basic_stringbuf<char,std::char_traits<char>,std::allocator<char> >::`RTTI Base Class Array'
	DD	imagerel ??_R1A@?0A@EA@?$basic_streambuf@DU?$char_traits@D@std@@@std@@8
	ORG $+3
rdata$r	ENDS
;	COMDAT ??_R0?AVios_base@std@@@8
data$r	SEGMENT
??_R0?AVios_base@std@@@8 DQ FLAT:??_7type_info@@6B@	; std::ios_base `RTTI Type Descriptor'
	DQ	0000000000000000H
	DB	'.?AVios_base@std@@', 00H
data$r	ENDS
;	COMDAT ??_R0?AVFastWriter@Json@@@8
data$r	SEGMENT
??_R0?AVFastWriter@Json@@@8 DQ FLAT:??_7type_info@@6B@	; Json::FastWriter `RTTI Type Descriptor'
	DQ	0000000000000000H
	DB	'.?AVFastWriter@Json@@', 00H
data$r	ENDS
;	COMDAT ??_R0?AV?$basic_stringbuf@DU?$char_traits@D@std@@V?$allocator@D@2@@std@@@8
data$r	SEGMENT
??_R0?AV?$basic_stringbuf@DU?$char_traits@D@std@@V?$allocator@D@2@@std@@@8 DQ FLAT:??_7type_info@@6B@ ; std::basic_stringbuf<char,std::char_traits<char>,std::allocator<char> > `RTTI Type Descriptor'
	DQ	0000000000000000H
	DB	'.?AV?$basic_stringbuf@DU?$char_traits@D@std@@V?$allocato'
	DB	'r@D@2@@std@@', 00H
data$r	ENDS
;	COMDAT ??_R4StyledWriter@Json@@6B@
rdata$r	SEGMENT
??_R4StyledWriter@Json@@6B@ DD 01H			; Json::StyledWriter::`RTTI Complete Object Locator'
	DD	00H
	DD	00H
	DD	imagerel ??_R0?AVStyledWriter@Json@@@8
	DD	imagerel ??_R3StyledWriter@Json@@8
	DD	imagerel ??_R4StyledWriter@Json@@6B@
rdata$r	ENDS
;	COMDAT ??_R3ValueAllocator@Json@@8
rdata$r	SEGMENT
??_R3ValueAllocator@Json@@8 DD 00H			; Json::ValueAllocator::`RTTI Class Hierarchy Descriptor'
	DD	00H
	DD	01H
	DD	imagerel ??_R2ValueAllocator@Json@@8
rdata$r	ENDS
;	COMDAT ??_R3StyledWriter@Json@@8
rdata$r	SEGMENT
??_R3StyledWriter@Json@@8 DD 00H			; Json::StyledWriter::`RTTI Class Hierarchy Descriptor'
	DD	00H
	DD	02H
	DD	imagerel ??_R2StyledWriter@Json@@8
rdata$r	ENDS
;	COMDAT ??_R2FastWriter@Json@@8
rdata$r	SEGMENT
??_R2FastWriter@Json@@8 DD imagerel ??_R1A@?0A@EA@FastWriter@Json@@8 ; Json::FastWriter::`RTTI Base Class Array'
	DD	imagerel ??_R1A@?0A@EA@Writer@Json@@8
	ORG $+3
rdata$r	ENDS
;	COMDAT ??_R4runtime_error@std@@6B@
rdata$r	SEGMENT
??_R4runtime_error@std@@6B@ DD 01H			; std::runtime_error::`RTTI Complete Object Locator'
	DD	00H
	DD	00H
	DD	imagerel ??_R0?AVruntime_error@std@@@8
	DD	imagerel ??_R3runtime_error@std@@8
	DD	imagerel ??_R4runtime_error@std@@6B@
rdata$r	ENDS
;	COMDAT ??_7Writer@Json@@6B@
CONST	SEGMENT
??_7Writer@Json@@6B@ DQ FLAT:??_R4Writer@Json@@6B@	; Json::Writer::`vftable'
	DQ	FLAT:??_EWriter@Json@@UEAAPEAXI@Z
	DQ	FLAT:_purecall
CONST	ENDS
;	COMDAT ??_7?$basic_ostringstream@DU?$char_traits@D@std@@V?$allocator@D@2@@std@@6B@
CONST	SEGMENT
??_7?$basic_ostringstream@DU?$char_traits@D@std@@V?$allocator@D@2@@std@@6B@ DQ FLAT:??_R4?$basic_ostringstream@DU?$char_traits@D@std@@V?$allocator@D@2@@std@@6B@ ; std::basic_ostringstream<char,std::char_traits<char>,std::allocator<char> >::`vftable'
	DQ	FLAT:??_E?$basic_ostringstream@DU?$char_traits@D@std@@V?$allocator@D@2@@std@@$4PPPPPPPM@A@EAAPEAXI@Z
CONST	ENDS
;	COMDAT ??_R4ValueAllocator@Json@@6B@
rdata$r	SEGMENT
??_R4ValueAllocator@Json@@6B@ DD 01H			; Json::ValueAllocator::`RTTI Complete Object Locator'
	DD	00H
	DD	00H
	DD	imagerel ??_R0?AVValueAllocator@Json@@@8
	DD	imagerel ??_R3ValueAllocator@Json@@8
	DD	imagerel ??_R4ValueAllocator@Json@@6B@
rdata$r	ENDS
;	COMDAT ??_R1A@?0A@EA@FastWriter@Json@@8
rdata$r	SEGMENT
??_R1A@?0A@EA@FastWriter@Json@@8 DD imagerel ??_R0?AVFastWriter@Json@@@8 ; Json::FastWriter::`RTTI Base Class Descriptor at (0,-1,0,64)'
	DD	01H
	DD	00H
	DD	0ffffffffH
	DD	00H
	DD	040H
	DD	imagerel ??_R3FastWriter@Json@@8
rdata$r	ENDS
;	COMDAT ??_R4exception@std@@6B@
rdata$r	SEGMENT
??_R4exception@std@@6B@ DD 01H				; std::exception::`RTTI Complete Object Locator'
	DD	00H
	DD	00H
	DD	imagerel ??_R0?AVexception@std@@@8
	DD	imagerel ??_R3exception@std@@8
	DD	imagerel ??_R4exception@std@@6B@
rdata$r	ENDS
;	COMDAT ??_R2StyledWriter@Json@@8
rdata$r	SEGMENT
??_R2StyledWriter@Json@@8 DD imagerel ??_R1A@?0A@EA@StyledWriter@Json@@8 ; Json::StyledWriter::`RTTI Base Class Array'
	DD	imagerel ??_R1A@?0A@EA@Writer@Json@@8
	ORG $+3
rdata$r	ENDS
;	COMDAT ??_R0?AVruntime_error@std@@@8
data$r	SEGMENT
??_R0?AVruntime_error@std@@@8 DQ FLAT:??_7type_info@@6B@ ; std::runtime_error `RTTI Type Descriptor'
	DQ	0000000000000000H
	DB	'.?AVruntime_error@std@@', 00H
data$r	ENDS
;	COMDAT ??_7DefaultValueAllocator@Json@@6B@
CONST	SEGMENT
??_7DefaultValueAllocator@Json@@6B@ DQ FLAT:??_R4DefaultValueAllocator@Json@@6B@ ; Json::DefaultValueAllocator::`vftable'
	DQ	FLAT:??_EDefaultValueAllocator@Json@@UEAAPEAXI@Z
	DQ	FLAT:?makeMemberName@DefaultValueAllocator@Json@@UEAAPEADPEBD@Z
	DQ	FLAT:?releaseMemberName@DefaultValueAllocator@Json@@UEAAXPEAD@Z
	DQ	FLAT:?duplicateStringValue@DefaultValueAllocator@Json@@UEAAPEADPEBDI@Z
	DQ	FLAT:?releaseStringValue@DefaultValueAllocator@Json@@UEAAXPEAD@Z
CONST	ENDS
;	COMDAT ??_R4?$basic_ostringstream@DU?$char_traits@D@std@@V?$allocator@D@2@@std@@6B@
rdata$r	SEGMENT
??_R4?$basic_ostringstream@DU?$char_traits@D@std@@V?$allocator@D@2@@std@@6B@ DD 01H ; std::basic_ostringstream<char,std::char_traits<char>,std::allocator<char> >::`RTTI Complete Object Locator'
	DD	088H
	DD	04H
	DD	imagerel ??_R0?AV?$basic_ostringstream@DU?$char_traits@D@std@@V?$allocator@D@2@@std@@@8
	DD	imagerel ??_R3?$basic_ostringstream@DU?$char_traits@D@std@@V?$allocator@D@2@@std@@8
	DD	imagerel ??_R4?$basic_ostringstream@DU?$char_traits@D@std@@V?$allocator@D@2@@std@@6B@
rdata$r	ENDS
;	COMDAT ??_C@_0BC@KBDMBKEH@deque?$DMT?$DO?5too?5long?$AA@
CONST	SEGMENT
??_C@_0BC@KBDMBKEH@deque?$DMT?$DO?5too?5long?$AA@ DB 'deque<T> too long', 00H ; `string'
CONST	ENDS
;	COMDAT ??_C@_04JBAOJHKB@See?5?$AA@
CONST	SEGMENT
??_C@_04JBAOJHKB@See?5?$AA@ DB 'See ', 00H		; `string'
CONST	ENDS
;	COMDAT ??_C@_0O@JBAGGIKP@?5for?5detail?4?6?$AA@
CONST	SEGMENT
??_C@_0O@JBAGGIKP@?5for?5detail?4?6?$AA@ DB ' for detail.', 0aH, 00H ; `string'
CONST	ENDS
;	COMDAT ??_C@_02KNHHEEKP@?5?5?$AA@
CONST	SEGMENT
??_C@_02KNHHEEKP@?5?5?$AA@ DB '  ', 00H			; `string'
CONST	ENDS
;	COMDAT ??_C@_02KAOAMBHJ@?$CK?5?$AA@
CONST	SEGMENT
??_C@_02KAOAMBHJ@?$CK?5?$AA@ DB '* ', 00H		; `string'
CONST	ENDS
;	COMDAT ??_C@_0BD@LAMGIMLG@Line?5?$CFd?0?5Column?5?$CFd?$AA@
CONST	SEGMENT
??_C@_0BD@LAMGIMLG@Line?5?$CFd?0?5Column?5?$CFd?$AA@ DB 'Line %d, Column '
	DB	'%d', 00H					; `string'
CONST	ENDS
;	COMDAT ??_C@_0ED@FIDDECIG@Bad?5unicode?5escape?5sequence?5in?5s@
CONST	SEGMENT
??_C@_0ED@FIDDECIG@Bad?5unicode?5escape?5sequence?5in?5s@ DB 'Bad unicode'
	DB	' escape sequence in string: hexadecimal digit expected.', 00H ; `string'
CONST	ENDS
;	COMDAT ??_C@_0DN@BPAHJPFJ@Bad?5unicode?5escape?5sequence?5in?5s@
CONST	SEGMENT
??_C@_0DN@BPAHJPFJ@Bad?5unicode?5escape?5sequence?5in?5s@ DB 'Bad unicode'
	DB	' escape sequence in string: four digits expected.', 00H ; `string'
CONST	ENDS
;	COMDAT ??_C@_0FA@BGMMPLKB@expecting?5another?5?2u?5token?5to?5be@
CONST	SEGMENT
??_C@_0FA@BGMMPLKB@expecting?5another?5?2u?5token?5to?5be@ DB 'expecting '
	DB	'another \u token to begin the second half of a unicode surrog'
	DB	'ate pair', 00H				; `string'
CONST	ENDS
;	COMDAT ??_C@_0EE@LMPEHADE@additional?5six?5characters?5expect@
CONST	SEGMENT
??_C@_0EE@LMPEHADE@additional?5six?5characters?5expect@ DB 'additional si'
	DB	'x characters expected to parse unicode surrogate pair.', 00H ; `string'
CONST	ENDS
;	COMDAT ??_C@_0BO@NDEEJNNB@Bad?5escape?5sequence?5in?5string?$AA@
CONST	SEGMENT
??_C@_0BO@NDEEJNNB@Bad?5escape?5sequence?5in?5string?$AA@ DB 'Bad escape '
	DB	'sequence in string', 00H			; `string'
CONST	ENDS
;	COMDAT ??_C@_0CA@DPGKPPOE@Empty?5escape?5sequence?5in?5string?$AA@
CONST	SEGMENT
??_C@_0CA@DPGKPPOE@Empty?5escape?5sequence?5in?5string?$AA@ DB 'Empty esc'
	DB	'ape sequence in string', 00H		; `string'
CONST	ENDS
;	COMDAT ??_C@_03DLDNIBIK@?$CFlf?$AA@
CONST	SEGMENT
??_C@_03DLDNIBIK@?$CFlf?$AA@ DB '%lf', 00H		; `string'
CONST	ENDS
;	COMDAT ??_C@_01GEODFPGF@?8?$AA@
CONST	SEGMENT
??_C@_01GEODFPGF@?8?$AA@ DB '''', 00H			; `string'
CONST	ENDS
;	COMDAT ??_C@_0BD@HHNBFDKF@?8?5is?5not?5a?5number?4?$AA@
CONST	SEGMENT
??_C@_0BD@HHNBFDKF@?8?5is?5not?5a?5number?4?$AA@ DB ''' is not a number.', 00H ; `string'
CONST	ENDS
;	COMDAT ??_C@_0CI@DPCANLPO@Missing?5?8?0?8?5or?5?8?$FN?8?5in?5array?5decl@
CONST	SEGMENT
??_C@_0CI@DPCANLPO@Missing?5?8?0?8?5or?5?8?$FN?8?5in?5array?5decl@ DB 'Mi'
	DB	'ssing '','' or '']'' in array declaration', 00H ; `string'
CONST	ENDS
;	COMDAT ??_C@_0CC@JNCGHFHN@Missing?5?8?$HN?8?5or?5object?5member?5nam@
CONST	SEGMENT
??_C@_0CC@JNCGHFHN@Missing?5?8?$HN?8?5or?5object?5member?5nam@ DB 'Missin'
	DB	'g ''}'' or object member name', 00H		; `string'
CONST	ENDS
;	COMDAT ??_C@_0CJ@NGKOAFKA@Missing?5?8?0?8?5or?5?8?$HN?8?5in?5object?5dec@
CONST	SEGMENT
??_C@_0CJ@NGKOAFKA@Missing?5?8?0?8?5or?5?8?$HN?8?5in?5object?5dec@ DB 'Mi'
	DB	'ssing '','' or ''}'' in object declaration', 00H ; `string'
CONST	ENDS
;	COMDAT ??_C@_0CF@GCCDMCPH@Missing?5?8?3?8?5after?5object?5member?5@
CONST	SEGMENT
??_C@_0CF@GCCDMCPH@Missing?5?8?3?8?5after?5object?5member?5@ DB 'Missing '
	DB	''':'' after object member name', 00H	; `string'
CONST	ENDS
;	COMDAT ??_C@_03KNPGGKC@ull?$AA@
CONST	SEGMENT
??_C@_03KNPGGKC@ull?$AA@ DB 'ull', 00H			; `string'
CONST	ENDS
;	COMDAT ??_C@_04KCECFHEP@alse?$AA@
CONST	SEGMENT
??_C@_04KCECFHEP@alse?$AA@ DB 'alse', 00H		; `string'
CONST	ENDS
;	COMDAT ??_C@_03FFDNHNKN@rue?$AA@
CONST	SEGMENT
??_C@_03FFDNHNKN@rue?$AA@ DB 'rue', 00H			; `string'
CONST	ENDS
;	COMDAT ??_C@_0CP@GDDNKEK@Syntax?5error?3?5value?0?5object?5or?5a@
CONST	SEGMENT
??_C@_0CP@GDDNKEK@Syntax?5error?3?5value?0?5object?5or?5a@ DB 'Syntax err'
	DB	'or: value, object or array expected.', 00H	; `string'
CONST	ENDS
;	COMDAT ??_C@_0EC@HCHNIDLM@A?5valid?5JSON?5document?5must?5be?5ei@
CONST	SEGMENT
??_C@_0EC@HCHNIDLM@A?5valid?5JSON?5document?5must?5be?5ei@ DB 'A valid JS'
	DB	'ON document must be either an array or an object value.', 00H ; `string'
CONST	ENDS
;	COMDAT ??_C@_01GPOEFGEJ@?7?$AA@
CONST	SEGMENT
??_C@_01GPOEFGEJ@?7?$AA@ DB 09H, 00H			; `string'
CONST	ENDS
;	COMDAT ??_C@_01CLKCMJKC@?5?$AA@
CONST	SEGMENT
??_C@_01CLKCMJKC@?5?$AA@ DB ' ', 00H			; `string'
CONST	ENDS
;	COMDAT ??_C@_02DHOGEDBE@?5?$FN?$AA@
CONST	SEGMENT
??_C@_02DHOGEDBE@?5?$FN?$AA@ DB ' ]', 00H		; `string'
CONST	ENDS
;	COMDAT ??_C@_02KEGNLNML@?0?5?$AA@
CONST	SEGMENT
??_C@_02KEGNLNML@?0?5?$AA@ DB ', ', 00H			; `string'
CONST	ENDS
;	COMDAT ??_C@_02PFNDMDBO@?$FL?5?$AA@
CONST	SEGMENT
??_C@_02PFNDMDBO@?$FL?5?$AA@ DB '[ ', 00H		; `string'
CONST	ENDS
;	COMDAT ??_C@_02GPECMEKF@?$FL?$FN?$AA@
CONST	SEGMENT
??_C@_02GPECMEKF@?$FL?$FN?$AA@ DB '[]', 00H		; `string'
CONST	ENDS
;	COMDAT ??_C@_03MCPBMLDJ@?5?3?5?$AA@
CONST	SEGMENT
??_C@_03MCPBMLDJ@?5?3?5?$AA@ DB ' : ', 00H		; `string'
CONST	ENDS
;	COMDAT ??_C@_02MCILKGOH@?$HL?$HN?$AA@
CONST	SEGMENT
??_C@_02MCILKGOH@?$HL?$HN?$AA@ DB '{}', 00H		; `string'
CONST	ENDS
;	COMDAT ??_C@_01CELHOKLL@?$HN?$AA@
CONST	SEGMENT
??_C@_01CELHOKLL@?$HN?$AA@ DB '}', 00H			; `string'
CONST	ENDS
;	COMDAT ??_C@_01JLIPDDHJ@?3?$AA@
CONST	SEGMENT
??_C@_01JLIPDDHJ@?3?$AA@ DB ':', 00H			; `string'
CONST	ENDS
;	COMDAT ??_C@_01HCONENDN@?$HL?$AA@
CONST	SEGMENT
??_C@_01HCONENDN@?$HL?$AA@ DB '{', 00H			; `string'
CONST	ENDS
;	COMDAT ??_C@_01LBDDMOBJ@?$FN?$AA@
CONST	SEGMENT
??_C@_01LBDDMOBJ@?$FN?$AA@ DB ']', 00H			; `string'
CONST	ENDS
;	COMDAT ??_C@_01IHBHIGKO@?0?$AA@
CONST	SEGMENT
??_C@_01IHBHIGKO@?0?$AA@ DB ',', 00H			; `string'
CONST	ENDS
;	COMDAT ??_C@_01OHGJGJJP@?$FL?$AA@
CONST	SEGMENT
??_C@_01OHGJGJJP@?$FL?$AA@ DB '[', 00H			; `string'
CONST	ENDS
;	COMDAT ??_C@_04MLLLIHIP@null?$AA@
CONST	SEGMENT
??_C@_04MLLLIHIP@null?$AA@ DB 'null', 00H		; `string'
CONST	ENDS
;	COMDAT ??_C@_01EEMJAFIK@?6?$AA@
CONST	SEGMENT
??_C@_01EEMJAFIK@?6?$AA@ DB 0aH, 00H			; `string'
CONST	ENDS
;	COMDAT ??_C@_02DHFAHMIK@?2u?$AA@
CONST	SEGMENT
??_C@_02DHFAHMIK@?2u?$AA@ DB '\u', 00H			; `string'
CONST	ENDS
;	COMDAT ??_C@_02COELENML@?2t?$AA@
CONST	SEGMENT
??_C@_02COELENML@?2t?$AA@ DB '\t', 00H			; `string'
CONST	ENDS
;	COMDAT ??_C@_02HIBBOKEN@?2r?$AA@
CONST	SEGMENT
??_C@_02HIBBOKEN@?2r?$AA@ DB '\r', 00H			; `string'
CONST	ENDS
;	COMDAT ??_C@_02JOGGLHBA@?2n?$AA@
CONST	SEGMENT
??_C@_02JOGGLHBA@?2n?$AA@ DB '\n', 00H			; `string'
CONST	ENDS
;	COMDAT ??_C@_02FGLPDNBI@?2f?$AA@
CONST	SEGMENT
??_C@_02FGLPDNBI@?2f?$AA@ DB '\f', 00H			; `string'
CONST	ENDS
;	COMDAT ??_C@_02DCNDPIBM@?2b?$AA@
CONST	SEGMENT
??_C@_02DCNDPIBM@?2b?$AA@ DB '\b', 00H			; `string'
CONST	ENDS
;	COMDAT ??_C@_02HDBGODGB@?2?2?$AA@
CONST	SEGMENT
??_C@_02HDBGODGB@?2?2?$AA@ DB '\\', 00H			; `string'
CONST	ENDS
;	COMDAT ??_C@_02MCKKLHBJ@?2?$CC?$AA@
CONST	SEGMENT
??_C@_02MCKKLHBJ@?2?$CC?$AA@ DB '\"', 00H		; `string'
CONST	ENDS
;	COMDAT ??_C@_01BJJEKLCA@?$CC?$AA@
CONST	SEGMENT
??_C@_01BJJEKLCA@?$CC?$AA@ DB '"', 00H			; `string'
CONST	ENDS
;	COMDAT ??_C@_07FKPPGBGM@?$CC?2?$AI?$AM?6?$AN?7?$AA@
CONST	SEGMENT
??_C@_07FKPPGBGM@?$CC?2?$AI?$AM?6?$AN?7?$AA@ DB '"\', 08H, 0cH, 0aH, 0dH, 09H
	DB	00H						; `string'
CONST	ENDS
;	COMDAT ??_C@_06ECBCCLMB@?$CF?$CD?416g?$AA@
CONST	SEGMENT
??_C@_06ECBCCLMB@?$CF?$CD?416g?$AA@ DB '%#.16g', 00H	; `string'
CONST	ENDS
;	COMDAT ??_C@_02GLFAOOJA@?$FL?4?$AA@
CONST	SEGMENT
??_C@_02GLFAOOJA@?$FL?4?$AA@ DB '[.', 00H		; `string'
CONST	ENDS
;	COMDAT ??_C@_0CC@ICOHKFIF@Type?5is?5not?5convertible?5to?5doubl@
CONST	SEGMENT
??_C@_0CC@ICOHKFIF@Type?5is?5not?5convertible?5to?5doubl@ DB 'Type is not'
	DB	' convertible to double', 00H		; `string'
CONST	ENDS
;	COMDAT ??_C@_0CA@LEFAEJPN@Type?5is?5not?5convertible?5to?5uint?$AA@
CONST	SEGMENT
??_C@_0CA@LEFAEJPN@Type?5is?5not?5convertible?5to?5uint?$AA@ DB 'Type is '
	DB	'not convertible to uint', 00H		; `string'
CONST	ENDS
;	COMDAT ??_C@_0CD@PGCLDEBG@Real?5out?5of?5unsigned?5integer?5ran@
CONST	SEGMENT
??_C@_0CD@PGCLDEBG@Real?5out?5of?5unsigned?5integer?5ran@ DB 'Real out of'
	DB	' unsigned integer range', 00H		; `string'
CONST	ENDS
;	COMDAT ??_C@_0DK@NAHIGMFE@Negative?5integer?5can?5not?5be?5conv@
CONST	SEGMENT
??_C@_0DK@NAHIGMFE@Negative?5integer?5can?5not?5be?5conv@ DB 'Negative in'
	DB	'teger can not be converted to unsigned integer', 00H ; `string'
CONST	ENDS
;	COMDAT ??_C@_0BP@KDDCHLKA@Type?5is?5not?5convertible?5to?5int?$AA@
CONST	SEGMENT
??_C@_0BP@KDDCHLKA@Type?5is?5not?5convertible?5to?5int?$AA@ DB 'Type is n'
	DB	'ot convertible to int', 00H			; `string'
CONST	ENDS
;	COMDAT ??_C@_0CB@PBEICPFN@Real?5out?5of?5signed?5integer?5range@
CONST	SEGMENT
??_C@_0CB@PBEICPFN@Real?5out?5of?5signed?5integer?5range@ DB 'Real out of'
	DB	' signed integer range', 00H			; `string'
CONST	ENDS
;	COMDAT ??_C@_0CE@MKMAPPKF@integer?5out?5of?5signed?5integer?5ra@
CONST	SEGMENT
??_C@_0CE@MKMAPPKF@integer?5out?5of?5signed?5integer?5ra@ DB 'integer out'
	DB	' of signed integer range', 00H		; `string'
CONST	ENDS
;	COMDAT ??_C@_0CC@BNBMBIGA@Type?5is?5not?5convertible?5to?5strin@
CONST	SEGMENT
??_C@_0CC@BNBMBIGA@Type?5is?5not?5convertible?5to?5strin@ DB 'Type is not'
	DB	' convertible to string', 00H		; `string'
CONST	ENDS
;	COMDAT ??_C@_0BL@DKGNIMPN@Comments?5must?5start?5with?5?1?$AA@
CONST	SEGMENT
??_C@_0BL@DKGNIMPN@Comments?5must?5start?5with?5?1?$AA@ DB 'Comments must'
	DB	' start with /', 00H				; `string'
CONST	ENDS
;	COMDAT ??_C@_02LMMGGCAJ@?3?5?$AA@
CONST	SEGMENT
??_C@_02LMMGGCAJ@?3?5?$AA@ DB ': ', 00H			; `string'
CONST	ENDS
;	COMDAT ??_C@_00CNPNBAHC@?$AA@
CONST	SEGMENT
??_C@_00CNPNBAHC@?$AA@ DB 00H				; `string'
CONST	ENDS
;	COMDAT ??_C@_04LOAJBDKD@true?$AA@
CONST	SEGMENT
??_C@_04LOAJBDKD@true?$AA@ DB 'true', 00H		; `string'
CONST	ENDS
;	COMDAT ??_C@_05LAPONLG@false?$AA@
CONST	SEGMENT
??_C@_05LAPONLG@false?$AA@ DB 'false', 00H		; `string'
CONST	ENDS
;	COMDAT ??_C@_0BC@EOODALEL@Unknown?5exception?$AA@
CONST	SEGMENT
??_C@_0BC@EOODALEL@Unknown?5exception?$AA@ DB 'Unknown exception', 00H ; `string'
CONST	ENDS
PUBLIC	??_E?$basic_ostringstream@DU?$char_traits@D@std@@V?$allocator@D@2@@std@@$4PPPPPPPM@A@EAAPEAXI@Z ; std::basic_ostringstream<char,std::char_traits<char>,std::allocator<char> >::`vector deleting destructor'
PUBLIC	??0?$pair@$$CBVCZString@Value@Json@@V23@@std@@QEAA@AEBU01@@Z ; std::pair<Json::Value::CZString const ,Json::Value>::pair<Json::Value::CZString const ,Json::Value>
PUBLIC	??$forward@V?$_Tree_iterator@V?$_Tree_val@U?$_Tree_simple_types@U?$pair@$$CBVCZString@Value@Json@@V23@@std@@@std@@@std@@@std@@@std@@YA$$QEAV?$_Tree_iterator@V?$_Tree_val@U?$_Tree_simple_types@U?$pair@$$CBVCZString@Value@Json@@V23@@std@@@std@@@std@@@0@AEAV10@@Z ; std::forward<std::_Tree_iterator<std::_Tree_val<std::_Tree_simple_types<std::pair<Json::Value::CZString const ,Json::Value> > > > >
PUBLIC	??$construct@U?$pair@$$CBVCZString@Value@Json@@V23@@std@@AEAU12@@?$allocator@U?$_Tree_node@U?$pair@$$CBVCZString@Value@Json@@V23@@std@@PEAX@std@@@std@@QEAAXPEAU?$pair@$$CBVCZString@Value@Json@@V23@@1@AEAU21@@Z ; std::allocator<std::_Tree_node<std::pair<Json::Value::CZString const ,Json::Value>,void * __ptr64> >::construct<std::pair<Json::Value::CZString const ,Json::Value>,std::pair<Json::Value::CZString const ,Json::Value> & __ptr64>
PUBLIC	??$construct@VErrorInfo@Reader@Json@@$$V@?$allocator@VErrorInfo@Reader@Json@@@std@@QEAAXPEAVErrorInfo@Reader@Json@@@Z ; std::allocator<Json::Reader::ErrorInfo>::construct<Json::Reader::ErrorInfo>
PUBLIC	??$?0AEAV?$_Tree_iterator@V?$_Tree_val@U?$_Tree_simple_types@U?$pair@$$CBVCZString@Value@Json@@V23@@std@@@std@@@std@@@std@@_NX@?$pair@V?$_Tree_iterator@V?$_Tree_val@U?$_Tree_simple_types@U?$pair@$$CBVCZString@Value@Json@@V23@@std@@@std@@@std@@@std@@_N@std@@QEAA@AEAV?$_Tree_iterator@V?$_Tree_val@U?$_Tree_simple_types@U?$pair@$$CBVCZString@Value@Json@@V23@@std@@@std@@@std@@@1@$$QEA_N@Z ; std::pair<std::_Tree_iterator<std::_Tree_val<std::_Tree_simple_types<std::pair<Json::Value::CZString const ,Json::Value> > > >,bool>::pair<std::_Tree_iterator<std::_Tree_val<std::_Tree_simple_types<std::pair<Json::Value::CZString const ,Json::Value> > > >,bool><std::_Tree_iterator<std::_Tree_val<std::_Tree_simple_types<std::pair<Json::Value::CZString const ,Json::Value> > > > & __ptr64,bool,void>
PUBLIC	??$?0V?$_Tree_iterator@V?$_Tree_val@U?$_Tree_simple_types@U?$pair@$$CBVCZString@Value@Json@@V23@@std@@@std@@@std@@@std@@_NX@?$pair@V?$_Tree_iterator@V?$_Tree_val@U?$_Tree_simple_types@U?$pair@$$CBVCZString@Value@Json@@V23@@std@@@std@@@std@@@std@@_N@std@@QEAA@$$QEAV?$_Tree_iterator@V?$_Tree_val@U?$_Tree_simple_types@U?$pair@$$CBVCZString@Value@Json@@V23@@std@@@std@@@std@@@1@$$QEA_N@Z ; std::pair<std::_Tree_iterator<std::_Tree_val<std::_Tree_simple_types<std::pair<Json::Value::CZString const ,Json::Value> > > >,bool>::pair<std::_Tree_iterator<std::_Tree_val<std::_Tree_simple_types<std::pair<Json::Value::CZString const ,Json::Value> > > >,bool><std::_Tree_iterator<std::_Tree_val<std::_Tree_simple_types<std::pair<Json::Value::CZString const ,Json::Value> > > >,bool,void>
PUBLIC	??$_Buynode_if_nil@AEAU?$pair@$$CBVCZString@Value@Json@@V23@@std@@@?$_Tree@V?$_Tmap_traits@VCZString@Value@Json@@V23@U?$less@VCZString@Value@Json@@@std@@V?$allocator@U?$pair@$$CBVCZString@Value@Json@@V23@@std@@@5@$0A@@std@@@std@@IEAAPEAU?$_Tree_node@U?$pair@$$CBVCZString@Value@Json@@V23@@std@@PEAX@1@PEAU21@AEAU?$pair@$$CBVCZString@Value@Json@@V23@@1@@Z ; std::_Tree<std::_Tmap_traits<Json::Value::CZString,Json::Value,std::less<Json::Value::CZString>,std::allocator<std::pair<Json::Value::CZString const ,Json::Value> >,0> >::_Buynode_if_nil<std::pair<Json::Value::CZString const ,Json::Value> & __ptr64>
PUBLIC	??$construct@U?$pair@$$CBVCZString@Value@Json@@V23@@std@@AEAU12@@?$allocator_traits@V?$allocator@U?$_Tree_node@U?$pair@$$CBVCZString@Value@Json@@V23@@std@@PEAX@std@@@std@@@std@@SAXAEAV?$allocator@U?$_Tree_node@U?$pair@$$CBVCZString@Value@Json@@V23@@std@@PEAX@std@@@1@PEAU?$pair@$$CBVCZString@Value@Json@@V23@@1@AEAU31@@Z ; std::allocator_traits<std::allocator<std::_Tree_node<std::pair<Json::Value::CZString const ,Json::Value>,void * __ptr64> > >::construct<std::pair<Json::Value::CZString const ,Json::Value>,std::pair<Json::Value::CZString const ,Json::Value> & __ptr64>
PUBLIC	??$?0U?$pair@$$CBVCZString@Value@Json@@V23@@std@@@?$allocator@U?$_Tree_node@U?$pair@$$CBVCZString@Value@Json@@V23@@std@@PEAX@std@@@std@@QEAA@AEBV?$allocator@U?$pair@$$CBVCZString@Value@Json@@V23@@std@@@1@@Z ; std::allocator<std::_Tree_node<std::pair<Json::Value::CZString const ,Json::Value>,void * __ptr64> >::allocator<std::_Tree_node<std::pair<Json::Value::CZString const ,Json::Value>,void * __ptr64> ><std::pair<Json::Value::CZString const ,Json::Value> >
PUBLIC	?max_size@?$allocator@U?$_Tree_node@U?$pair@$$CBVCZString@Value@Json@@V23@@std@@PEAX@std@@@std@@QEBA_KXZ ; std::allocator<std::_Tree_node<std::pair<Json::Value::CZString const ,Json::Value>,void * __ptr64> >::max_size
PUBLIC	?max_size@?$allocator_traits@V?$allocator@U?$_Tree_node@U?$pair@$$CBVCZString@Value@Json@@V23@@std@@PEAX@std@@@std@@@std@@SA_KAEBV?$allocator@U?$_Tree_node@U?$pair@$$CBVCZString@Value@Json@@V23@@std@@PEAX@std@@@2@@Z ; std::allocator_traits<std::allocator<std::_Tree_node<std::pair<Json::Value::CZString const ,Json::Value>,void * __ptr64> > >::max_size
PUBLIC	?max_size@?$_Wrap_alloc@V?$allocator@U?$_Tree_node@U?$pair@$$CBVCZString@Value@Json@@V23@@std@@PEAX@std@@@std@@@std@@QEBA_KU_Nil@2@@Z ; std::_Wrap_alloc<std::allocator<std::_Tree_node<std::pair<Json::Value::CZString const ,Json::Value>,void * __ptr64> > >::max_size
PUBLIC	?max_size@?$_Tree@V?$_Tmap_traits@VCZString@Value@Json@@V23@U?$less@VCZString@Value@Json@@@std@@V?$allocator@U?$pair@$$CBVCZString@Value@Json@@V23@@std@@@5@$0A@@std@@@std@@QEBA_KXZ ; std::_Tree<std::_Tmap_traits<Json::Value::CZString,Json::Value,std::less<Json::Value::CZString>,std::allocator<std::pair<Json::Value::CZString const ,Json::Value> >,0> >::max_size
PUBLIC	??_GErrorInfo@Reader@Json@@QEAAPEAXI@Z		; Json::Reader::ErrorInfo::`scalar deleting destructor'
PUBLIC	??_G?$pair@$$CBVCZString@Value@Json@@V23@@std@@QEAAPEAXI@Z ; std::pair<Json::Value::CZString const ,Json::Value>::`scalar deleting destructor'
PUBLIC	??0ErrorInfo@Reader@Json@@QEAA@AEBV012@@Z	; Json::Reader::ErrorInfo::ErrorInfo
PUBLIC	??$construct@PEAU?$_Tree_node@U?$pair@$$CBVCZString@Value@Json@@V23@@std@@PEAX@std@@AEAPEAU12@@?$allocator@U?$_Tree_node@U?$pair@$$CBVCZString@Value@Json@@V23@@std@@PEAX@std@@@std@@QEAAXPEAPEAU?$_Tree_node@U?$pair@$$CBVCZString@Value@Json@@V23@@std@@PEAX@1@AEAPEAU21@@Z ; std::allocator<std::_Tree_node<std::pair<Json::Value::CZString const ,Json::Value>,void * __ptr64> >::construct<std::_Tree_node<std::pair<Json::Value::CZString const ,Json::Value>,void * __ptr64> * __ptr64,std::_Tree_node<std::pair<Json::Value::CZString const ,Json::Value>,void * __ptr64> * __ptr64 & __ptr64>
PUBLIC	??$?0V?$allocator@U?$pair@$$CBVCZString@Value@Json@@V23@@std@@@std@@@?$_Wrap_alloc@V?$allocator@U?$_Tree_node@U?$pair@$$CBVCZString@Value@Json@@V23@@std@@PEAX@std@@@std@@@std@@QEAA@AEBV?$allocator@U?$pair@$$CBVCZString@Value@Json@@V23@@std@@@1@@Z ; std::_Wrap_alloc<std::allocator<std::_Tree_node<std::pair<Json::Value::CZString const ,Json::Value>,void * __ptr64> > >::_Wrap_alloc<std::allocator<std::_Tree_node<std::pair<Json::Value::CZString const ,Json::Value>,void * __ptr64> > ><std::allocator<std::pair<Json::Value::CZString const ,Json::Value> > >
PUBLIC	??$destroy@PEAU?$_Tree_node@U?$pair@$$CBVCZString@Value@Json@@V23@@std@@PEAX@std@@@?$allocator@U?$_Tree_node@U?$pair@$$CBVCZString@Value@Json@@V23@@std@@PEAX@std@@@std@@QEAAXPEAPEAU?$_Tree_node@U?$pair@$$CBVCZString@Value@Json@@V23@@std@@PEAX@1@@Z ; std::allocator<std::_Tree_node<std::pair<Json::Value::CZString const ,Json::Value>,void * __ptr64> >::destroy<std::_Tree_node<std::pair<Json::Value::CZString const ,Json::Value>,void * __ptr64> * __ptr64>
PUBLIC	??$_Fill_n@PEAPEAPEAVValue@Json@@_KPEAPEAV12@@std@@YAPEAPEAPEAVValue@Json@@PEAPEAPEAV12@_KAEBQEAPEAV12@@Z ; std::_Fill_n<Json::Value * __ptr64 * __ptr64 * __ptr64,unsigned __int64,Json::Value * __ptr64 * __ptr64>
PUBLIC	??$_Uninit_copy@PEAPEAVValue@Json@@PEAPEAV12@@std@@YAPEAPEAPEAVValue@Json@@PEAPEAPEAV12@00AEAU?$_Wrap_alloc@V?$allocator@PEAPEAVValue@Json@@@std@@@0@U_Scalar_ptr_iterator_tag@0@@Z ; std::_Uninit_copy<Json::Value * __ptr64 * __ptr64,Json::Value * __ptr64 * __ptr64>
PUBLIC	??$construct@U_Container_proxy@std@@U12@@?$allocator@U_Container_proxy@std@@@std@@QEAAXPEAU_Container_proxy@1@$$QEAU21@@Z ; std::allocator<std::_Container_proxy>::construct<std::_Container_proxy,std::_Container_proxy>
PUBLIC	??$destroy@U_Container_proxy@std@@@?$allocator@U_Container_proxy@std@@@std@@QEAAXPEAU_Container_proxy@1@@Z ; std::allocator<std::_Container_proxy>::destroy<std::_Container_proxy>
PUBLIC	??$_Copy_or_move@U?$pair@$$CBVCZString@Value@Json@@V23@@std@@U?$integral_constant@_N$0A@@2@@?$_Tree@V?$_Tmap_traits@VCZString@Value@Json@@V23@U?$less@VCZString@Value@Json@@@std@@V?$allocator@U?$pair@$$CBVCZString@Value@Json@@V23@@std@@@5@$0A@@std@@@std@@IEAAPEAU?$_Tree_node@U?$pair@$$CBVCZString@Value@Json@@V23@@std@@PEAX@1@AEAU?$pair@$$CBVCZString@Value@Json@@V23@@1@U_Copy_tag@01@U?$integral_constant@_N$0A@@1@@Z ; std::_Tree<std::_Tmap_traits<Json::Value::CZString,Json::Value,std::less<Json::Value::CZString>,std::allocator<std::pair<Json::Value::CZString const ,Json::Value> >,0> >::_Copy_or_move<std::pair<Json::Value::CZString const ,Json::Value>,std::integral_constant<bool,0> >
PUBLIC	??$forward@AEAV?$_Tree_iterator@V?$_Tree_val@U?$_Tree_simple_types@U?$pair@$$CBVCZString@Value@Json@@V23@@std@@@std@@@std@@@std@@@std@@YAAEAV?$_Tree_iterator@V?$_Tree_val@U?$_Tree_simple_types@U?$pair@$$CBVCZString@Value@Json@@V23@@std@@@std@@@std@@@0@AEAV10@@Z ; std::forward<std::_Tree_iterator<std::_Tree_val<std::_Tree_simple_types<std::pair<Json::Value::CZString const ,Json::Value> > > > & __ptr64>
PUBLIC	??$destroy@VErrorInfo@Reader@Json@@@?$allocator@VErrorInfo@Reader@Json@@@std@@QEAAXPEAVErrorInfo@Reader@Json@@@Z ; std::allocator<Json::Reader::ErrorInfo>::destroy<Json::Reader::ErrorInfo>
PUBLIC	??$_Fill_n@PEAPEAVErrorInfo@Reader@Json@@_KPEAV123@@std@@YAPEAPEAVErrorInfo@Reader@Json@@PEAPEAV123@_KAEBQEAV123@@Z ; std::_Fill_n<Json::Reader::ErrorInfo * __ptr64 * __ptr64,unsigned __int64,Json::Reader::ErrorInfo * __ptr64>
PUBLIC	??$_Uninit_copy@PEAVErrorInfo@Reader@Json@@PEAV123@@std@@YAPEAPEAVErrorInfo@Reader@Json@@PEAPEAV123@00AEAU?$_Wrap_alloc@V?$allocator@PEAVErrorInfo@Reader@Json@@@std@@@0@U_Scalar_ptr_iterator_tag@0@@Z ; std::_Uninit_copy<Json::Reader::ErrorInfo * __ptr64,Json::Reader::ErrorInfo * __ptr64>
PUBLIC	??$destroy@PEAVErrorInfo@Reader@Json@@@?$allocator@VErrorInfo@Reader@Json@@@std@@QEAAXPEAPEAVErrorInfo@Reader@Json@@@Z ; std::allocator<Json::Reader::ErrorInfo>::destroy<Json::Reader::ErrorInfo * __ptr64>
PUBLIC	??$construct@PEAVValue@Json@@PEAV12@@?$allocator@PEAVValue@Json@@@std@@QEAAXPEAPEAVValue@Json@@$$QEAPEAV23@@Z ; std::allocator<Json::Value * __ptr64>::construct<Json::Value * __ptr64,Json::Value * __ptr64>
PUBLIC	??$destroy@PEAVValue@Json@@@?$allocator@PEAVValue@Json@@@std@@QEAAXPEAPEAVValue@Json@@@Z ; std::allocator<Json::Value * __ptr64>::destroy<Json::Value * __ptr64>
PUBLIC	??$destroy@PEAPEAVValue@Json@@@?$allocator@PEAVValue@Json@@@std@@QEAAXPEAPEAPEAVValue@Json@@@Z ; std::allocator<Json::Value * __ptr64>::destroy<Json::Value * __ptr64 * __ptr64>
PUBLIC	??$destroy@U?$pair@$$CBVCZString@Value@Json@@V23@@std@@@?$allocator@U?$_Tree_node@U?$pair@$$CBVCZString@Value@Json@@V23@@std@@PEAX@std@@@std@@QEAAXPEAU?$pair@$$CBVCZString@Value@Json@@V23@@1@@Z ; std::allocator<std::_Tree_node<std::pair<Json::Value::CZString const ,Json::Value>,void * __ptr64> >::destroy<std::pair<Json::Value::CZString const ,Json::Value> >
PUBLIC	??$construct@VErrorInfo@Reader@Json@@$$V@?$allocator_traits@V?$allocator@VErrorInfo@Reader@Json@@@std@@@std@@SAXAEAV?$allocator@VErrorInfo@Reader@Json@@@1@PEAVErrorInfo@Reader@Json@@@Z ; std::allocator_traits<std::allocator<Json::Reader::ErrorInfo> >::construct<Json::Reader::ErrorInfo>
PUBLIC	??$construct@VErrorInfo@Reader@Json@@AEBV123@@?$allocator@VErrorInfo@Reader@Json@@@std@@QEAAXPEAVErrorInfo@Reader@Json@@AEBV234@@Z ; std::allocator<Json::Reader::ErrorInfo>::construct<Json::Reader::ErrorInfo,Json::Reader::ErrorInfo const & __ptr64>
PUBLIC	??$_Insert_nohint@AEAU?$pair@$$CBVCZString@Value@Json@@V23@@std@@PEAU?$_Tree_node@U?$pair@$$CBVCZString@Value@Json@@V23@@std@@PEAX@2@@?$_Tree@V?$_Tmap_traits@VCZString@Value@Json@@V23@U?$less@VCZString@Value@Json@@@std@@V?$allocator@U?$pair@$$CBVCZString@Value@Json@@V23@@std@@@5@$0A@@std@@@std@@IEAA?AU?$pair@V?$_Tree_iterator@V?$_Tree_val@U?$_Tree_simple_types@U?$pair@$$CBVCZString@Value@Json@@V23@@std@@@std@@@std@@@std@@_N@1@_NAEAU?$pair@$$CBVCZString@Value@Json@@V23@@1@PEAU?$_Tree_node@U?$pair@$$CBVCZString@Value@Json@@V23@@std@@PEAX@1@@Z ; std::_Tree<std::_Tmap_traits<Json::Value::CZString,Json::Value,std::less<Json::Value::CZString>,std::allocator<std::pair<Json::Value::CZString const ,Json::Value> >,0> >::_Insert_nohint<std::pair<Json::Value::CZString const ,Json::Value> & __ptr64,std::_Tree_node<std::pair<Json::Value::CZString const ,Json::Value>,void * __ptr64> * __ptr64>
PUBLIC	??$_Insert_at@AEAU?$pair@$$CBVCZString@Value@Json@@V23@@std@@PEAU?$_Tree_node@U?$pair@$$CBVCZString@Value@Json@@V23@@std@@PEAX@2@@?$_Tree@V?$_Tmap_traits@VCZString@Value@Json@@V23@U?$less@VCZString@Value@Json@@@std@@V?$allocator@U?$pair@$$CBVCZString@Value@Json@@V23@@std@@@5@$0A@@std@@@std@@IEAA?AV?$_Tree_iterator@V?$_Tree_val@U?$_Tree_simple_types@U?$pair@$$CBVCZString@Value@Json@@V23@@std@@@std@@@std@@@1@_NPEAU?$_Tree_node@U?$pair@$$CBVCZString@Value@Json@@V23@@std@@PEAX@1@AEAU?$pair@$$CBVCZString@Value@Json@@V23@@1@1@Z ; std::_Tree<std::_Tmap_traits<Json::Value::CZString,Json::Value,std::less<Json::Value::CZString>,std::allocator<std::pair<Json::Value::CZString const ,Json::Value> >,0> >::_Insert_at<std::pair<Json::Value::CZString const ,Json::Value> & __ptr64,std::_Tree_node<std::pair<Json::Value::CZString const ,Json::Value>,void * __ptr64> * __ptr64>
PUBLIC	??$construct@U?$pair@$$CBVCZString@Value@Json@@V23@@std@@AEAU12@@?$_Wrap_alloc@V?$allocator@U?$_Tree_node@U?$pair@$$CBVCZString@Value@Json@@V23@@std@@PEAX@std@@@std@@@std@@QEAAXPEAU?$pair@$$CBVCZString@Value@Json@@V23@@1@AEAU21@@Z ; std::_Wrap_alloc<std::allocator<std::_Tree_node<std::pair<Json::Value::CZString const ,Json::Value>,void * __ptr64> > >::construct<std::pair<Json::Value::CZString const ,Json::Value>,std::pair<Json::Value::CZString const ,Json::Value> & __ptr64>
PUBLIC	?_Destroy_if_not_nil@?$_Tree@V?$_Tmap_traits@VCZString@Value@Json@@V23@U?$less@VCZString@Value@Json@@@std@@V?$allocator@U?$pair@$$CBVCZString@Value@Json@@V23@@std@@@5@$0A@@std@@@std@@IEAAXPEAU?$_Tree_node@U?$pair@$$CBVCZString@Value@Json@@V23@@std@@PEAX@2@@Z ; std::_Tree<std::_Tmap_traits<Json::Value::CZString,Json::Value,std::less<Json::Value::CZString>,std::allocator<std::pair<Json::Value::CZString const ,Json::Value> >,0> >::_Destroy_if_not_nil
PUBLIC	?_Buynode0@?$_Tree_comp_alloc@V?$_Tmap_traits@VCZString@Value@Json@@V23@U?$less@VCZString@Value@Json@@@std@@V?$allocator@U?$pair@$$CBVCZString@Value@Json@@V23@@std@@@5@$0A@@std@@@std@@QEAAPEAU?$_Tree_node@U?$pair@$$CBVCZString@Value@Json@@V23@@std@@PEAX@2@XZ ; std::_Tree_comp_alloc<std::_Tmap_traits<Json::Value::CZString,Json::Value,std::less<Json::Value::CZString>,std::allocator<std::pair<Json::Value::CZString const ,Json::Value> >,0> >::_Buynode0
PUBLIC	?_Freenode0@?$_Tree_comp_alloc@V?$_Tmap_traits@VCZString@Value@Json@@V23@U?$less@VCZString@Value@Json@@@std@@V?$allocator@U?$pair@$$CBVCZString@Value@Json@@V23@@std@@@5@$0A@@std@@@std@@QEAAXPEAU?$_Tree_node@U?$pair@$$CBVCZString@Value@Json@@V23@@std@@PEAX@2@@Z ; std::_Tree_comp_alloc<std::_Tmap_traits<Json::Value::CZString,Json::Value,std::less<Json::Value::CZString>,std::allocator<std::pair<Json::Value::CZString const ,Json::Value> >,0> >::_Freenode0
PUBLIC	??0?$_Tree_val@U?$_Tree_simple_types@U?$pair@$$CBVCZString@Value@Json@@V23@@std@@@std@@@std@@QEAA@XZ ; std::_Tree_val<std::_Tree_simple_types<std::pair<Json::Value::CZString const ,Json::Value> > >::_Tree_val<std::_Tree_simple_types<std::pair<Json::Value::CZString const ,Json::Value> > >
PUBLIC	??$construct@PEAU?$_Tree_node@U?$pair@$$CBVCZString@Value@Json@@V23@@std@@PEAX@std@@AEAPEAU12@@?$allocator_traits@V?$allocator@U?$_Tree_node@U?$pair@$$CBVCZString@Value@Json@@V23@@std@@PEAX@std@@@std@@@std@@SAXAEAV?$allocator@U?$_Tree_node@U?$pair@$$CBVCZString@Value@Json@@V23@@std@@PEAX@std@@@1@PEAPEAU?$_Tree_node@U?$pair@$$CBVCZString@Value@Json@@V23@@std@@PEAX@1@AEAPEAU31@@Z ; std::allocator_traits<std::allocator<std::_Tree_node<std::pair<Json::Value::CZString const ,Json::Value>,void * __ptr64> > >::construct<std::_Tree_node<std::pair<Json::Value::CZString const ,Json::Value>,void * __ptr64> * __ptr64,std::_Tree_node<std::pair<Json::Value::CZString const ,Json::Value>,void * __ptr64> * __ptr64 & __ptr64>
PUBLIC	??$forward@AEAPEAU?$_Tree_node@U?$pair@$$CBVCZString@Value@Json@@V23@@std@@PEAX@std@@@std@@YAAEAPEAU?$_Tree_node@U?$pair@$$CBVCZString@Value@Json@@V23@@std@@PEAX@0@AEAPEAU10@@Z ; std::forward<std::_Tree_node<std::pair<Json::Value::CZString const ,Json::Value>,void * __ptr64> * __ptr64 & __ptr64>
PUBLIC	??$?0AEBV?$allocator@U?$pair@$$CBVCZString@Value@Json@@V23@@std@@@std@@$$V@?$_Compressed_pair@U?$_Wrap_alloc@V?$allocator@U?$_Tree_node@U?$pair@$$CBVCZString@Value@Json@@V23@@std@@PEAX@std@@@std@@@std@@V?$_Tree_val@U?$_Tree_simple_types@U?$pair@$$CBVCZString@Value@Json@@V23@@std@@@std@@@2@$00@std@@QEAA@U_One_then_variadic_args_t@1@AEBV?$allocator@U?$pair@$$CBVCZString@Value@Json@@V23@@std@@@1@@Z ; std::_Compressed_pair<std::_Wrap_alloc<std::allocator<std::_Tree_node<std::pair<Json::Value::CZString const ,Json::Value>,void * __ptr64> > >,std::_Tree_val<std::_Tree_simple_types<std::pair<Json::Value::CZString const ,Json::Value> > >,1>::_Compressed_pair<std::_Wrap_alloc<std::allocator<std::_Tree_node<std::pair<Json::Value::CZString const ,Json::Value>,void * __ptr64> > >,std::_Tree_val<std::_Tree_simple_types<std::pair<Json::Value::CZString const ,Json::Value> > >,1><std::allocator<std::pair<Json::Value::CZString const ,Json::Value> > const & __ptr64>
PUBLIC	??$forward@AEBV?$allocator@U?$pair@$$CBVCZString@Value@Json@@V23@@std@@@std@@@std@@YAAEBV?$allocator@U?$pair@$$CBVCZString@Value@Json@@V23@@std@@@0@AEBV10@@Z ; std::forward<std::allocator<std::pair<Json::Value::CZString const ,Json::Value> > const & __ptr64>
PUBLIC	??$forward@AEBU?$less@VCZString@Value@Json@@@std@@@std@@YAAEBU?$less@VCZString@Value@Json@@@0@AEBU10@@Z ; std::forward<std::less<Json::Value::CZString> const & __ptr64>
PUBLIC	??$destroy@PEAU?$_Tree_node@U?$pair@$$CBVCZString@Value@Json@@V23@@std@@PEAX@std@@@?$allocator_traits@V?$allocator@U?$_Tree_node@U?$pair@$$CBVCZString@Value@Json@@V23@@std@@PEAX@std@@@std@@@std@@SAXAEAV?$allocator@U?$_Tree_node@U?$pair@$$CBVCZString@Value@Json@@V23@@std@@PEAX@std@@@1@PEAPEAU?$_Tree_node@U?$pair@$$CBVCZString@Value@Json@@V23@@std@@PEAX@1@@Z ; std::allocator_traits<std::allocator<std::_Tree_node<std::pair<Json::Value::CZString const ,Json::Value>,void * __ptr64> > >::destroy<std::_Tree_node<std::pair<Json::Value::CZString const ,Json::Value>,void * __ptr64> * __ptr64>
PUBLIC	??$_Addressof@PEAU?$_Tree_node@U?$pair@$$CBVCZString@Value@Json@@V23@@std@@PEAX@std@@@std@@YAPEAPEAU?$_Tree_node@U?$pair@$$CBVCZString@Value@Json@@V23@@std@@PEAX@0@AEAPEAU10@U?$integral_constant@_N$0A@@0@@Z ; std::_Addressof<std::_Tree_node<std::pair<Json::Value::CZString const ,Json::Value>,void * __ptr64> * __ptr64>
PUBLIC	??$_Destroy_range@U?$_Wrap_alloc@V?$allocator@PEAPEAVValue@Json@@@std@@@std@@@std@@YAXPEAPEAPEAVValue@Json@@0AEAU?$_Wrap_alloc@V?$allocator@PEAPEAVValue@Json@@@std@@@0@U_Scalar_ptr_iterator_tag@0@@Z ; std::_Destroy_range<std::_Wrap_alloc<std::allocator<Json::Value * __ptr64 * __ptr64> > >
PUBLIC	??$_Uninit_def_fill_n@PEAPEAVValue@Json@@_KPEAPEAV12@@std@@YAXPEAPEAPEAVValue@Json@@_KAEAU?$_Wrap_alloc@V?$allocator@PEAPEAVValue@Json@@@std@@@0@0U_Scalar_ptr_iterator_tag@0@@Z ; std::_Uninit_def_fill_n<Json::Value * __ptr64 * __ptr64,unsigned __int64,Json::Value * __ptr64 * __ptr64>
PUBLIC	??$_Ptr_cat@PEAPEAVValue@Json@@PEAPEAV12@@std@@YA?AU_Scalar_ptr_iterator_tag@0@PEAPEAPEAVValue@Json@@0@Z ; std::_Ptr_cat<Json::Value * __ptr64 * __ptr64,Json::Value * __ptr64 * __ptr64>
PUBLIC	??$_Val_type@PEAPEAPEAVValue@Json@@@std@@YAPEAPEAPEAVValue@Json@@PEAPEAPEAV12@@Z ; std::_Val_type<Json::Value * __ptr64 * __ptr64 * __ptr64>
PUBLIC	??$_Rechecked@PEAPEAPEAVValue@Json@@PEAPEAPEAV12@@std@@YAAEAPEAPEAPEAVValue@Json@@AEAPEAPEAPEAV12@PEAPEAPEAV12@@Z ; std::_Rechecked<Json::Value * __ptr64 * __ptr64 * __ptr64,Json::Value * __ptr64 * __ptr64 * __ptr64>
PUBLIC	??$_Uninit_copy@PEAPEAPEAVValue@Json@@PEAPEAPEAV12@U?$_Wrap_alloc@V?$allocator@PEAPEAVValue@Json@@@std@@@std@@@std@@YAPEAPEAPEAVValue@Json@@PEAPEAPEAV12@00AEAU?$_Wrap_alloc@V?$allocator@PEAPEAVValue@Json@@@std@@@0@@Z ; std::_Uninit_copy<Json::Value * __ptr64 * __ptr64 * __ptr64,Json::Value * __ptr64 * __ptr64 * __ptr64,std::_Wrap_alloc<std::allocator<Json::Value * __ptr64 * __ptr64> > >
PUBLIC	??$_Unchecked@PEAPEAPEAVValue@Json@@@std@@YAPEAPEAPEAVValue@Json@@PEAPEAPEAV12@@Z ; std::_Unchecked<Json::Value * __ptr64 * __ptr64 * __ptr64>
PUBLIC	??$forward@AEBV?$allocator@PEAVValue@Json@@@std@@@std@@YAAEBV?$allocator@PEAVValue@Json@@@0@AEBV10@@Z ; std::forward<std::allocator<Json::Value * __ptr64> const & __ptr64>
PUBLIC	??$construct@U_Container_proxy@std@@U12@@?$allocator_traits@V?$allocator@U_Container_proxy@std@@@std@@@std@@SAXAEAV?$allocator@U_Container_proxy@std@@@1@PEAU_Container_proxy@1@$$QEAU31@@Z ; std::allocator_traits<std::allocator<std::_Container_proxy> >::construct<std::_Container_proxy,std::_Container_proxy>
PUBLIC	??$forward@U_Container_proxy@std@@@std@@YA$$QEAU_Container_proxy@0@AEAU10@@Z ; std::forward<std::_Container_proxy>
PUBLIC	??$destroy@U_Container_proxy@std@@@?$allocator_traits@V?$allocator@U_Container_proxy@std@@@std@@@std@@SAXAEAV?$allocator@U_Container_proxy@std@@@1@PEAU_Container_proxy@1@@Z ; std::allocator_traits<std::allocator<std::_Container_proxy> >::destroy<std::_Container_proxy>
PUBLIC	??$_Copy_nodes@U_Copy_tag@?$_Tree@V?$_Tmap_traits@VCZString@Value@Json@@V23@U?$less@VCZString@Value@Json@@@std@@V?$allocator@U?$pair@$$CBVCZString@Value@Json@@V23@@std@@@5@$0A@@std@@@std@@@?$_Tree@V?$_Tmap_traits@VCZString@Value@Json@@V23@U?$less@VCZString@Value@Json@@@std@@V?$allocator@U?$pair@$$CBVCZString@Value@Json@@V23@@std@@@5@$0A@@std@@@std@@IEAAPEAU?$_Tree_node@U?$pair@$$CBVCZString@Value@Json@@V23@@std@@PEAX@1@PEAU21@0U_Copy_tag@01@@Z ; std::_Tree<std::_Tmap_traits<Json::Value::CZString,Json::Value,std::less<Json::Value::CZString>,std::allocator<std::pair<Json::Value::CZString const ,Json::Value> >,0> >::_Copy_nodes<std::_Tree<std::_Tmap_traits<Json::Value::CZString,Json::Value,std::less<Json::Value::CZString>,std::allocator<std::pair<Json::Value::CZString const ,Json::Value> >,0> >::_Copy_tag>
PUBLIC	??$forward@V?$allocator@V?$basic_string@DU?$char_traits@D@std@@V?$allocator@D@2@@std@@@std@@@std@@YA$$QEAV?$allocator@V?$basic_string@DU?$char_traits@D@std@@V?$allocator@D@2@@std@@@0@AEAV10@@Z ; std::forward<std::allocator<std::basic_string<char,std::char_traits<char>,std::allocator<char> > > >
PUBLIC	??$destroy@VErrorInfo@Reader@Json@@@?$allocator_traits@V?$allocator@VErrorInfo@Reader@Json@@@std@@@std@@SAXAEAV?$allocator@VErrorInfo@Reader@Json@@@1@PEAVErrorInfo@Reader@Json@@@Z ; std::allocator_traits<std::allocator<Json::Reader::ErrorInfo> >::destroy<Json::Reader::ErrorInfo>
PUBLIC	??$_Destroy_range@U?$_Wrap_alloc@V?$allocator@PEAVErrorInfo@Reader@Json@@@std@@@std@@@std@@YAXPEAPEAVErrorInfo@Reader@Json@@0AEAU?$_Wrap_alloc@V?$allocator@PEAVErrorInfo@Reader@Json@@@std@@@0@U_Scalar_ptr_iterator_tag@0@@Z ; std::_Destroy_range<std::_Wrap_alloc<std::allocator<Json::Reader::ErrorInfo * __ptr64> > >
PUBLIC	??$_Uninit_def_fill_n@PEAVErrorInfo@Reader@Json@@_KPEAV123@@std@@YAXPEAPEAVErrorInfo@Reader@Json@@_KAEAU?$_Wrap_alloc@V?$allocator@PEAVErrorInfo@Reader@Json@@@std@@@0@0U_Scalar_ptr_iterator_tag@0@@Z ; std::_Uninit_def_fill_n<Json::Reader::ErrorInfo * __ptr64,unsigned __int64,Json::Reader::ErrorInfo * __ptr64>
PUBLIC	??$_Ptr_cat@PEAVErrorInfo@Reader@Json@@PEAV123@@std@@YA?AU_Scalar_ptr_iterator_tag@0@PEAPEAVErrorInfo@Reader@Json@@0@Z ; std::_Ptr_cat<Json::Reader::ErrorInfo * __ptr64,Json::Reader::ErrorInfo * __ptr64>
PUBLIC	??$_Val_type@PEAPEAVErrorInfo@Reader@Json@@@std@@YAPEAPEAVErrorInfo@Reader@Json@@PEAPEAV123@@Z ; std::_Val_type<Json::Reader::ErrorInfo * __ptr64 * __ptr64>
PUBLIC	??$_Rechecked@PEAPEAVErrorInfo@Reader@Json@@PEAPEAV123@@std@@YAAEAPEAPEAVErrorInfo@Reader@Json@@AEAPEAPEAV123@PEAPEAV123@@Z ; std::_Rechecked<Json::Reader::ErrorInfo * __ptr64 * __ptr64,Json::Reader::ErrorInfo * __ptr64 * __ptr64>
PUBLIC	??$_Uninit_copy@PEAPEAVErrorInfo@Reader@Json@@PEAPEAV123@U?$_Wrap_alloc@V?$allocator@PEAVErrorInfo@Reader@Json@@@std@@@std@@@std@@YAPEAPEAVErrorInfo@Reader@Json@@PEAPEAV123@00AEAU?$_Wrap_alloc@V?$allocator@PEAVErrorInfo@Reader@Json@@@std@@@0@@Z ; std::_Uninit_copy<Json::Reader::ErrorInfo * __ptr64 * __ptr64,Json::Reader::ErrorInfo * __ptr64 * __ptr64,std::_Wrap_alloc<std::allocator<Json::Reader::ErrorInfo * __ptr64> > >
PUBLIC	??$_Unchecked@PEAPEAVErrorInfo@Reader@Json@@@std@@YAPEAPEAVErrorInfo@Reader@Json@@PEAPEAV123@@Z ; std::_Unchecked<Json::Reader::ErrorInfo * __ptr64 * __ptr64>
PUBLIC	??$destroy@PEAVErrorInfo@Reader@Json@@@?$allocator_traits@V?$allocator@VErrorInfo@Reader@Json@@@std@@@std@@SAXAEAV?$allocator@VErrorInfo@Reader@Json@@@1@PEAPEAVErrorInfo@Reader@Json@@@Z ; std::allocator_traits<std::allocator<Json::Reader::ErrorInfo> >::destroy<Json::Reader::ErrorInfo * __ptr64>
PUBLIC	??$construct@PEAVValue@Json@@PEAV12@@?$allocator_traits@V?$allocator@PEAVValue@Json@@@std@@@std@@SAXAEAV?$allocator@PEAVValue@Json@@@1@PEAPEAVValue@Json@@$$QEAPEAV34@@Z ; std::allocator_traits<std::allocator<Json::Value * __ptr64> >::construct<Json::Value * __ptr64,Json::Value * __ptr64>
PUBLIC	??$destroy@PEAVValue@Json@@@?$allocator_traits@V?$allocator@PEAVValue@Json@@@std@@@std@@SAXAEAV?$allocator@PEAVValue@Json@@@1@PEAPEAVValue@Json@@@Z ; std::allocator_traits<std::allocator<Json::Value * __ptr64> >::destroy<Json::Value * __ptr64>
PUBLIC	??$destroy@PEAPEAVValue@Json@@@?$allocator_traits@V?$allocator@PEAVValue@Json@@@std@@@std@@SAXAEAV?$allocator@PEAVValue@Json@@@1@PEAPEAPEAVValue@Json@@@Z ; std::allocator_traits<std::allocator<Json::Value * __ptr64> >::destroy<Json::Value * __ptr64 * __ptr64>
PUBLIC	??$forward@AEBV?$allocator@VErrorInfo@Reader@Json@@@std@@@std@@YAAEBV?$allocator@VErrorInfo@Reader@Json@@@0@AEBV10@@Z ; std::forward<std::allocator<Json::Reader::ErrorInfo> const & __ptr64>
PUBLIC	??$destroy@U?$pair@$$CBVCZString@Value@Json@@V23@@std@@@?$allocator_traits@V?$allocator@U?$_Tree_node@U?$pair@$$CBVCZString@Value@Json@@V23@@std@@PEAX@std@@@std@@@std@@SAXAEAV?$allocator@U?$_Tree_node@U?$pair@$$CBVCZString@Value@Json@@V23@@std@@PEAX@std@@@1@PEAU?$pair@$$CBVCZString@Value@Json@@V23@@1@@Z ; std::allocator_traits<std::allocator<std::_Tree_node<std::pair<Json::Value::CZString const ,Json::Value>,void * __ptr64> > >::destroy<std::pair<Json::Value::CZString const ,Json::Value> >
PUBLIC	??$_Addressof@U?$pair@$$CBVCZString@Value@Json@@V23@@std@@@std@@YAPEAU?$pair@$$CBVCZString@Value@Json@@V23@@0@AEAU10@U?$integral_constant@_N$0A@@0@@Z ; std::_Addressof<std::pair<Json::Value::CZString const ,Json::Value> >
PUBLIC	??$construct@VErrorInfo@Reader@Json@@$$V@?$_Wrap_alloc@V?$allocator@VErrorInfo@Reader@Json@@@std@@@std@@QEAAXPEAVErrorInfo@Reader@Json@@@Z ; std::_Wrap_alloc<std::allocator<Json::Reader::ErrorInfo> >::construct<Json::Reader::ErrorInfo>
PUBLIC	??$construct@VErrorInfo@Reader@Json@@AEBV123@@?$allocator_traits@V?$allocator@VErrorInfo@Reader@Json@@@std@@@std@@SAXAEAV?$allocator@VErrorInfo@Reader@Json@@@1@PEAVErrorInfo@Reader@Json@@AEBV345@@Z ; std::allocator_traits<std::allocator<Json::Reader::ErrorInfo> >::construct<Json::Reader::ErrorInfo,Json::Reader::ErrorInfo const & __ptr64>
PUBLIC	??$forward@AEBVErrorInfo@Reader@Json@@@std@@YAAEBVErrorInfo@Reader@Json@@AEBV123@@Z ; std::forward<Json::Reader::ErrorInfo const & __ptr64>
PUBLIC	??$_Iter_cat@PEBD@std@@YA?AUrandom_access_iterator_tag@0@AEBQEBD@Z ; std::_Iter_cat<char const * __ptr64>
PUBLIC	??$_Unchecked@PEBD@std@@YAPEBDPEBD@Z		; std::_Unchecked<char const * __ptr64>
PUBLIC	??$_Insert_hint@AEAU?$pair@$$CBVCZString@Value@Json@@V23@@std@@PEAU?$_Tree_node@U?$pair@$$CBVCZString@Value@Json@@V23@@std@@PEAX@2@@?$_Tree@V?$_Tmap_traits@VCZString@Value@Json@@V23@U?$less@VCZString@Value@Json@@@std@@V?$allocator@U?$pair@$$CBVCZString@Value@Json@@V23@@std@@@5@$0A@@std@@@std@@IEAA?AV?$_Tree_iterator@V?$_Tree_val@U?$_Tree_simple_types@U?$pair@$$CBVCZString@Value@Json@@V23@@std@@@std@@@std@@@1@V?$_Tree_const_iterator@V?$_Tree_val@U?$_Tree_simple_types@U?$pair@$$CBVCZString@Value@Json@@V23@@std@@@std@@@std@@@1@AEAU?$pair@$$CBVCZString@Value@Json@@V23@@1@PEAU?$_Tree_node@U?$pair@$$CBVCZString@Value@Json@@V23@@std@@PEAX@1@@Z ; std::_Tree<std::_Tmap_traits<Json::Value::CZString,Json::Value,std::less<Json::Value::CZString>,std::allocator<std::pair<Json::Value::CZString const ,Json::Value> >,0> >::_Insert_hint<std::pair<Json::Value::CZString const ,Json::Value> & __ptr64,std::_Tree_node<std::pair<Json::Value::CZString const ,Json::Value>,void * __ptr64> * __ptr64>
PUBLIC	??$_Buynode@AEAU?$pair@$$CBVCZString@Value@Json@@V23@@std@@@?$_Tree_comp_alloc@V?$_Tmap_traits@VCZString@Value@Json@@V23@U?$less@VCZString@Value@Json@@@std@@V?$allocator@U?$pair@$$CBVCZString@Value@Json@@V23@@std@@@5@$0A@@std@@@std@@QEAAPEAU?$_Tree_node@U?$pair@$$CBVCZString@Value@Json@@V23@@std@@PEAX@1@AEAU?$pair@$$CBVCZString@Value@Json@@V23@@1@@Z ; std::_Tree_comp_alloc<std::_Tmap_traits<Json::Value::CZString,Json::Value,std::less<Json::Value::CZString>,std::allocator<std::pair<Json::Value::CZString const ,Json::Value> >,0> >::_Buynode<std::pair<Json::Value::CZString const ,Json::Value> & __ptr64>
PUBLIC	??$forward@AEAU?$pair@$$CBVCZString@Value@Json@@V23@@std@@@std@@YAAEAU?$pair@$$CBVCZString@Value@Json@@V23@@0@AEAU10@@Z ; std::forward<std::pair<Json::Value::CZString const ,Json::Value> & __ptr64>
PUBLIC	??$forward@AEBVValue@Json@@@std@@YAAEBVValue@Json@@AEBV12@@Z ; std::forward<Json::Value const & __ptr64>
PUBLIC	??$forward@AEAVCZString@Value@Json@@@std@@YAAEAVCZString@Value@Json@@AEAV123@@Z ; std::forward<Json::Value::CZString & __ptr64>
PUBLIC	??$_Move@AEATValueHolder@Value@Json@@@std@@YA$$QEATValueHolder@Value@Json@@AEAT123@@Z ; std::_Move<Json::Value::ValueHolder & __ptr64>
PUBLIC	??$?0PEAVValue@Json@@@?$allocator@U_Container_proxy@std@@@std@@QEAA@AEBV?$allocator@PEAVValue@Json@@@1@@Z ; std::allocator<std::_Container_proxy>::allocator<std::_Container_proxy><Json::Value * __ptr64>
PUBLIC	??$?0VErrorInfo@Reader@Json@@@?$allocator@U_Container_proxy@std@@@std@@QEAA@AEBV?$allocator@VErrorInfo@Reader@Json@@@1@@Z ; std::allocator<std::_Container_proxy>::allocator<std::_Container_proxy><Json::Reader::ErrorInfo>
PUBLIC	??$?0VErrorInfo@Reader@Json@@@?$allocator@PEAVErrorInfo@Reader@Json@@@std@@QEAA@AEBV?$allocator@VErrorInfo@Reader@Json@@@1@@Z ; std::allocator<Json::Reader::ErrorInfo * __ptr64>::allocator<Json::Reader::ErrorInfo * __ptr64><Json::Reader::ErrorInfo>
PUBLIC	??$?0PEAVValue@Json@@@?$allocator@PEAPEAVValue@Json@@@std@@QEAA@AEBV?$allocator@PEAVValue@Json@@@1@@Z ; std::allocator<Json::Value * __ptr64 * __ptr64>::allocator<Json::Value * __ptr64 * __ptr64><Json::Value * __ptr64>
PUBLIC	??0?$allocator@VErrorInfo@Reader@Json@@@std@@QEAA@AEBV01@@Z ; std::allocator<Json::Reader::ErrorInfo>::allocator<Json::Reader::ErrorInfo>
PUBLIC	??0?$allocator@PEAVValue@Json@@@std@@QEAA@AEBV01@@Z ; std::allocator<Json::Value * __ptr64>::allocator<Json::Value * __ptr64>
PUBLIC	?_Compare@?$_Tree@V?$_Tmap_traits@VCZString@Value@Json@@V23@U?$less@VCZString@Value@Json@@@std@@V?$allocator@U?$pair@$$CBVCZString@Value@Json@@V23@@std@@@5@$0A@@std@@@std@@IEBA_NAEBVCZString@Value@Json@@0@Z ; std::_Tree<std::_Tmap_traits<Json::Value::CZString,Json::Value,std::less<Json::Value::CZString>,std::allocator<std::pair<Json::Value::CZString const ,Json::Value> >,0> >::_Compare
PUBLIC	??0?$_Wrap_alloc@V?$allocator@PEAVValue@Json@@@std@@@std@@QEAA@AEBV?$allocator@PEAVValue@Json@@@1@@Z ; std::_Wrap_alloc<std::allocator<Json::Value * __ptr64> >::_Wrap_alloc<std::allocator<Json::Value * __ptr64> >
PUBLIC	??0?$_Deque_val@U?$_Deque_simple_types@PEAVValue@Json@@@std@@@std@@QEAA@XZ ; std::_Deque_val<std::_Deque_simple_types<Json::Value * __ptr64> >::_Deque_val<std::_Deque_simple_types<Json::Value * __ptr64> >
PUBLIC	??0?$_Wrap_alloc@V?$allocator@VErrorInfo@Reader@Json@@@std@@@std@@QEAA@AEBV?$allocator@VErrorInfo@Reader@Json@@@1@@Z ; std::_Wrap_alloc<std::allocator<Json::Reader::ErrorInfo> >::_Wrap_alloc<std::allocator<Json::Reader::ErrorInfo> >
PUBLIC	??0?$_Deque_val@U?$_Deque_simple_types@VErrorInfo@Reader@Json@@@std@@@std@@QEAA@XZ ; std::_Deque_val<std::_Deque_simple_types<Json::Reader::ErrorInfo> >::_Deque_val<std::_Deque_simple_types<Json::Reader::ErrorInfo> >
PUBLIC	??0?$_Fillobj@D@std@@QEAA@D@Z			; std::_Fillobj<char>::_Fillobj<char>
PUBLIC	??$_Allocate@U?$_Tree_node@U?$pair@$$CBVCZString@Value@Json@@V23@@std@@PEAX@std@@@std@@YAPEAU?$_Tree_node@U?$pair@$$CBVCZString@Value@Json@@V23@@std@@PEAX@0@_KPEAU10@_N@Z ; std::_Allocate<std::_Tree_node<std::pair<Json::Value::CZString const ,Json::Value>,void * __ptr64> >
PUBLIC	??$construct@PEAU?$_Tree_node@U?$pair@$$CBVCZString@Value@Json@@V23@@std@@PEAX@std@@AEAPEAU12@@?$_Wrap_alloc@V?$allocator@U?$_Tree_node@U?$pair@$$CBVCZString@Value@Json@@V23@@std@@PEAX@std@@@std@@@std@@QEAAXPEAPEAU?$_Tree_node@U?$pair@$$CBVCZString@Value@Json@@V23@@std@@PEAX@1@AEAPEAU21@@Z ; std::_Wrap_alloc<std::allocator<std::_Tree_node<std::pair<Json::Value::CZString const ,Json::Value>,void * __ptr64> > >::construct<std::_Tree_node<std::pair<Json::Value::CZString const ,Json::Value>,void * __ptr64> * __ptr64,std::_Tree_node<std::pair<Json::Value::CZString const ,Json::Value>,void * __ptr64> * __ptr64 & __ptr64>
PUBLIC	??$_Allocate@PEAPEAVValue@Json@@@std@@YAPEAPEAPEAVValue@Json@@_KPEAPEAPEAV12@_N@Z ; std::_Allocate<Json::Value * __ptr64 * __ptr64>
PUBLIC	??$_Deallocate@U_Container_proxy@std@@@std@@YAXPEAU_Container_proxy@0@_K@Z ; std::_Deallocate<std::_Container_proxy>
PUBLIC	??$_Allocate@U_Container_proxy@std@@@std@@YAPEAU_Container_proxy@0@_KPEAU10@_N@Z ; std::_Allocate<std::_Container_proxy>
PUBLIC	??$_Deallocate@VErrorInfo@Reader@Json@@@std@@YAXPEAVErrorInfo@Reader@Json@@_K@Z ; std::_Deallocate<Json::Reader::ErrorInfo>
PUBLIC	??$_Deallocate@PEAVValue@Json@@@std@@YAXPEAPEAVValue@Json@@_K@Z ; std::_Deallocate<Json::Value * __ptr64>
PUBLIC	??$_Allocate@PEAVValue@Json@@@std@@YAPEAPEAVValue@Json@@_KPEAPEAV12@_N@Z ; std::_Allocate<Json::Value * __ptr64>
PUBLIC	??$_Deallocate@PEAPEAVValue@Json@@@std@@YAXPEAPEAPEAVValue@Json@@_K@Z ; std::_Deallocate<Json::Value * __ptr64 * __ptr64>
PUBLIC	??$_Deallocate@PEAVErrorInfo@Reader@Json@@@std@@YAXPEAPEAVErrorInfo@Reader@Json@@_K@Z ; std::_Deallocate<Json::Reader::ErrorInfo * __ptr64>
PUBLIC	??$_Allocate@PEAVErrorInfo@Reader@Json@@@std@@YAPEAPEAVErrorInfo@Reader@Json@@_KPEAPEAV123@_N@Z ; std::_Allocate<Json::Reader::ErrorInfo * __ptr64>
PUBLIC	??$_Kfn@$$CBVCZString@Value@Json@@V23@@?$_Tmap_traits@VCZString@Value@Json@@V23@U?$less@VCZString@Value@Json@@@std@@V?$allocator@U?$pair@$$CBVCZString@Value@Json@@V23@@std@@@5@$0A@@std@@SAAEBVCZString@Value@Json@@AEBU?$pair@$$CBVCZString@Value@Json@@V23@@1@@Z ; std::_Tmap_traits<Json::Value::CZString,Json::Value,std::less<Json::Value::CZString>,std::allocator<std::pair<Json::Value::CZString const ,Json::Value> >,0>::_Kfn<Json::Value::CZString const ,Json::Value>
PUBLIC	??$?0AEBU?$less@VCZString@Value@Json@@@std@@U_One_then_variadic_args_t@1@AEBV?$allocator@U?$pair@$$CBVCZString@Value@Json@@V23@@std@@@1@@?$_Compressed_pair@U?$less@VCZString@Value@Json@@@std@@V?$_Compressed_pair@U?$_Wrap_alloc@V?$allocator@U?$_Tree_node@U?$pair@$$CBVCZString@Value@Json@@V23@@std@@PEAX@std@@@std@@@std@@V?$_Tree_val@U?$_Tree_simple_types@U?$pair@$$CBVCZString@Value@Json@@V23@@std@@@std@@@2@$00@2@$00@std@@QEAA@U_One_then_variadic_args_t@1@AEBU?$less@VCZString@Value@Json@@@1@$$QEAU21@AEBV?$allocator@U?$pair@$$CBVCZString@Value@Json@@V23@@std@@@1@@Z ; std::_Compressed_pair<std::less<Json::Value::CZString>,std::_Compressed_pair<std::_Wrap_alloc<std::allocator<std::_Tree_node<std::pair<Json::Value::CZString const ,Json::Value>,void * __ptr64> > >,std::_Tree_val<std::_Tree_simple_types<std::pair<Json::Value::CZString const ,Json::Value> > >,1>,1>::_Compressed_pair<std::less<Json::Value::CZString>,std::_Compressed_pair<std::_Wrap_alloc<std::allocator<std::_Tree_node<std::pair<Json::Value::CZString const ,Json::Value>,void * __ptr64> > >,std::_Tree_val<std::_Tree_simple_types<std::pair<Json::Value::CZString const ,Json::Value> > >,1>,1><std::less<Json::Value::CZString> const & __ptr64,std::_One_then_variadic_args_t,std::allocator<std::pair<Json::Value::CZString const ,Json::Value> > const & __ptr64>
PUBLIC	??$destroy@PEAU?$_Tree_node@U?$pair@$$CBVCZString@Value@Json@@V23@@std@@PEAX@std@@@?$_Wrap_alloc@V?$allocator@U?$_Tree_node@U?$pair@$$CBVCZString@Value@Json@@V23@@std@@PEAX@std@@@std@@@std@@QEAAXPEAPEAU?$_Tree_node@U?$pair@$$CBVCZString@Value@Json@@V23@@std@@PEAX@1@@Z ; std::_Wrap_alloc<std::allocator<std::_Tree_node<std::pair<Json::Value::CZString const ,Json::Value>,void * __ptr64> > >::destroy<std::_Tree_node<std::pair<Json::Value::CZString const ,Json::Value>,void * __ptr64> * __ptr64>
PUBLIC	??$addressof@PEAU?$_Tree_node@U?$pair@$$CBVCZString@Value@Json@@V23@@std@@PEAX@std@@@std@@YAPEAPEAU?$_Tree_node@U?$pair@$$CBVCZString@Value@Json@@V23@@std@@PEAX@0@AEAPEAU10@@Z ; std::addressof<std::_Tree_node<std::pair<Json::Value::CZString const ,Json::Value>,void * __ptr64> * __ptr64>
PUBLIC	??$_Deallocate@U?$_Tree_node@U?$pair@$$CBVCZString@Value@Json@@V23@@std@@PEAX@std@@@std@@YAXPEAU?$_Tree_node@U?$pair@$$CBVCZString@Value@Json@@V23@@std@@PEAX@0@_K@Z ; std::_Deallocate<std::_Tree_node<std::pair<Json::Value::CZString const ,Json::Value>,void * __ptr64> >
PUBLIC	??$_Allocate@VErrorInfo@Reader@Json@@@std@@YAPEAVErrorInfo@Reader@Json@@_KPEAV123@_N@Z ; std::_Allocate<Json::Reader::ErrorInfo>
PUBLIC	??$_Destroy_range@U?$_Wrap_alloc@V?$allocator@PEAPEAVValue@Json@@@std@@@std@@@std@@YAXPEAPEAPEAVValue@Json@@0AEAU?$_Wrap_alloc@V?$allocator@PEAPEAVValue@Json@@@std@@@0@@Z ; std::_Destroy_range<std::_Wrap_alloc<std::allocator<Json::Value * __ptr64 * __ptr64> > >
PUBLIC	??$_Uninitialized_default_fill_n@PEAPEAPEAVValue@Json@@_KU?$_Wrap_alloc@V?$allocator@PEAPEAVValue@Json@@@std@@@std@@@std@@YAXPEAPEAPEAVValue@Json@@_KAEAU?$_Wrap_alloc@V?$allocator@PEAPEAVValue@Json@@@std@@@0@@Z ; std::_Uninitialized_default_fill_n<Json::Value * __ptr64 * __ptr64 * __ptr64,unsigned __int64,std::_Wrap_alloc<std::allocator<Json::Value * __ptr64 * __ptr64> > >
PUBLIC	??$_Uninitialized_copy@PEAPEAPEAVValue@Json@@PEAPEAPEAV12@U?$_Wrap_alloc@V?$allocator@PEAPEAVValue@Json@@@std@@@std@@@std@@YAPEAPEAPEAVValue@Json@@PEAPEAPEAV12@00AEAU?$_Wrap_alloc@V?$allocator@PEAPEAVValue@Json@@@std@@@0@@Z ; std::_Uninitialized_copy<Json::Value * __ptr64 * __ptr64 * __ptr64,Json::Value * __ptr64 * __ptr64 * __ptr64,std::_Wrap_alloc<std::allocator<Json::Value * __ptr64 * __ptr64> > >
PUBLIC	??$?0AEBV?$allocator@PEAVValue@Json@@@std@@$$V@?$_Compressed_pair@U?$_Wrap_alloc@V?$allocator@PEAVValue@Json@@@std@@@std@@V?$_Deque_val@U?$_Deque_simple_types@PEAVValue@Json@@@std@@@2@$00@std@@QEAA@U_One_then_variadic_args_t@1@AEBV?$allocator@PEAVValue@Json@@@1@@Z ; std::_Compressed_pair<std::_Wrap_alloc<std::allocator<Json::Value * __ptr64> >,std::_Deque_val<std::_Deque_simple_types<Json::Value * __ptr64> >,1>::_Compressed_pair<std::_Wrap_alloc<std::allocator<Json::Value * __ptr64> >,std::_Deque_val<std::_Deque_simple_types<Json::Value * __ptr64> >,1><std::allocator<Json::Value * __ptr64> const & __ptr64>
PUBLIC	??$?0U?$_Wrap_alloc@V?$allocator@PEAVValue@Json@@@std@@@std@@@?$_Wrap_alloc@V?$allocator@U_Container_proxy@std@@@std@@@std@@QEAA@AEAU?$_Wrap_alloc@V?$allocator@PEAVValue@Json@@@std@@@1@@Z ; std::_Wrap_alloc<std::allocator<std::_Container_proxy> >::_Wrap_alloc<std::allocator<std::_Container_proxy> ><std::_Wrap_alloc<std::allocator<Json::Value * __ptr64> > >
PUBLIC	??$construct@U_Container_proxy@std@@U12@@?$_Wrap_alloc@V?$allocator@U_Container_proxy@std@@@std@@@std@@QEAAXPEAU_Container_proxy@1@$$QEAU21@@Z ; std::_Wrap_alloc<std::allocator<std::_Container_proxy> >::construct<std::_Container_proxy,std::_Container_proxy>
PUBLIC	??$destroy@U_Container_proxy@std@@@?$_Wrap_alloc@V?$allocator@U_Container_proxy@std@@@std@@@std@@QEAAXPEAU_Container_proxy@1@@Z ; std::_Wrap_alloc<std::allocator<std::_Container_proxy> >::destroy<std::_Container_proxy>
PUBLIC	??$?0U?$_Wrap_alloc@V?$allocator@VErrorInfo@Reader@Json@@@std@@@std@@@?$_Wrap_alloc@V?$allocator@U_Container_proxy@std@@@std@@@std@@QEAA@AEAU?$_Wrap_alloc@V?$allocator@VErrorInfo@Reader@Json@@@std@@@1@@Z ; std::_Wrap_alloc<std::allocator<std::_Container_proxy> >::_Wrap_alloc<std::allocator<std::_Container_proxy> ><std::_Wrap_alloc<std::allocator<Json::Reader::ErrorInfo> > >
PUBLIC	??$_Copy@U_Copy_tag@?$_Tree@V?$_Tmap_traits@VCZString@Value@Json@@V23@U?$less@VCZString@Value@Json@@@std@@V?$allocator@U?$pair@$$CBVCZString@Value@Json@@V23@@std@@@5@$0A@@std@@@std@@@?$_Tree@V?$_Tmap_traits@VCZString@Value@Json@@V23@U?$less@VCZString@Value@Json@@@std@@V?$allocator@U?$pair@$$CBVCZString@Value@Json@@V23@@std@@@5@$0A@@std@@@std@@IEAAXAEBV01@U_Copy_tag@01@@Z ; std::_Tree<std::_Tmap_traits<Json::Value::CZString,Json::Value,std::less<Json::Value::CZString>,std::allocator<std::pair<Json::Value::CZString const ,Json::Value> >,0> >::_Copy<std::_Tree<std::_Tmap_traits<Json::Value::CZString,Json::Value,std::less<Json::Value::CZString>,std::allocator<std::pair<Json::Value::CZString const ,Json::Value> >,0> >::_Copy_tag>
PUBLIC	??$?0V?$allocator@V?$basic_string@DU?$char_traits@D@std@@V?$allocator@D@2@@std@@@std@@$$V@?$_Compressed_pair@U?$_Wrap_alloc@V?$allocator@V?$basic_string@DU?$char_traits@D@std@@V?$allocator@D@2@@std@@@std@@@std@@V?$_Vector_val@U?$_Simple_types@V?$basic_string@DU?$char_traits@D@std@@V?$allocator@D@2@@std@@@std@@@2@$00@std@@QEAA@U_One_then_variadic_args_t@1@$$QEAV?$allocator@V?$basic_string@DU?$char_traits@D@std@@V?$allocator@D@2@@std@@@1@@Z ; std::_Compressed_pair<std::_Wrap_alloc<std::allocator<std::basic_string<char,std::char_traits<char>,std::allocator<char> > > >,std::_Vector_val<std::_Simple_types<std::basic_string<char,std::char_traits<char>,std::allocator<char> > > >,1>::_Compressed_pair<std::_Wrap_alloc<std::allocator<std::basic_string<char,std::char_traits<char>,std::allocator<char> > > >,std::_Vector_val<std::_Simple_types<std::basic_string<char,std::char_traits<char>,std::allocator<char> > > >,1><std::allocator<std::basic_string<char,std::char_traits<char>,std::allocator<char> > > >
PUBLIC	??$move@AEAV?$allocator@V?$basic_string@DU?$char_traits@D@std@@V?$allocator@D@2@@std@@@std@@@std@@YA$$QEAV?$allocator@V?$basic_string@DU?$char_traits@D@std@@V?$allocator@D@2@@std@@@0@AEAV10@@Z ; std::move<std::allocator<std::basic_string<char,std::char_traits<char>,std::allocator<char> > > & __ptr64>
PUBLIC	??$destroy@VErrorInfo@Reader@Json@@@?$_Wrap_alloc@V?$allocator@VErrorInfo@Reader@Json@@@std@@@std@@QEAAXPEAVErrorInfo@Reader@Json@@@Z ; std::_Wrap_alloc<std::allocator<Json::Reader::ErrorInfo> >::destroy<Json::Reader::ErrorInfo>
PUBLIC	??$_Destroy_range@U?$_Wrap_alloc@V?$allocator@PEAVErrorInfo@Reader@Json@@@std@@@std@@@std@@YAXPEAPEAVErrorInfo@Reader@Json@@0AEAU?$_Wrap_alloc@V?$allocator@PEAVErrorInfo@Reader@Json@@@std@@@0@@Z ; std::_Destroy_range<std::_Wrap_alloc<std::allocator<Json::Reader::ErrorInfo * __ptr64> > >
PUBLIC	??$_Uninitialized_default_fill_n@PEAPEAVErrorInfo@Reader@Json@@_KU?$_Wrap_alloc@V?$allocator@PEAVErrorInfo@Reader@Json@@@std@@@std@@@std@@YAXPEAPEAVErrorInfo@Reader@Json@@_KAEAU?$_Wrap_alloc@V?$allocator@PEAVErrorInfo@Reader@Json@@@std@@@0@@Z ; std::_Uninitialized_default_fill_n<Json::Reader::ErrorInfo * __ptr64 * __ptr64,unsigned __int64,std::_Wrap_alloc<std::allocator<Json::Reader::ErrorInfo * __ptr64> > >
PUBLIC	??$_Uninitialized_copy@PEAPEAVErrorInfo@Reader@Json@@PEAPEAV123@U?$_Wrap_alloc@V?$allocator@PEAVErrorInfo@Reader@Json@@@std@@@std@@@std@@YAPEAPEAVErrorInfo@Reader@Json@@PEAPEAV123@00AEAU?$_Wrap_alloc@V?$allocator@PEAVErrorInfo@Reader@Json@@@std@@@0@@Z ; std::_Uninitialized_copy<Json::Reader::ErrorInfo * __ptr64 * __ptr64,Json::Reader::ErrorInfo * __ptr64 * __ptr64,std::_Wrap_alloc<std::allocator<Json::Reader::ErrorInfo * __ptr64> > >
PUBLIC	??$destroy@PEAVErrorInfo@Reader@Json@@@?$_Wrap_alloc@V?$allocator@VErrorInfo@Reader@Json@@@std@@@std@@QEAAXPEAPEAVErrorInfo@Reader@Json@@@Z ; std::_Wrap_alloc<std::allocator<Json::Reader::ErrorInfo> >::destroy<Json::Reader::ErrorInfo * __ptr64>
PUBLIC	??$?0U?$_Wrap_alloc@V?$allocator@VErrorInfo@Reader@Json@@@std@@@std@@@?$_Wrap_alloc@V?$allocator@PEAVErrorInfo@Reader@Json@@@std@@@std@@QEAA@AEAU?$_Wrap_alloc@V?$allocator@VErrorInfo@Reader@Json@@@std@@@1@@Z ; std::_Wrap_alloc<std::allocator<Json::Reader::ErrorInfo * __ptr64> >::_Wrap_alloc<std::allocator<Json::Reader::ErrorInfo * __ptr64> ><std::_Wrap_alloc<std::allocator<Json::Reader::ErrorInfo> > >
PUBLIC	??$construct@PEAVValue@Json@@PEAV12@@?$_Wrap_alloc@V?$allocator@PEAVValue@Json@@@std@@@std@@QEAAXPEAPEAVValue@Json@@$$QEAPEAV23@@Z ; std::_Wrap_alloc<std::allocator<Json::Value * __ptr64> >::construct<Json::Value * __ptr64,Json::Value * __ptr64>
PUBLIC	??$forward@PEAVValue@Json@@@std@@YA$$QEAPEAVValue@Json@@AEAPEAV12@@Z ; std::forward<Json::Value * __ptr64>
PUBLIC	??$destroy@PEAVValue@Json@@@?$_Wrap_alloc@V?$allocator@PEAVValue@Json@@@std@@@std@@QEAAXPEAPEAVValue@Json@@@Z ; std::_Wrap_alloc<std::allocator<Json::Value * __ptr64> >::destroy<Json::Value * __ptr64>
PUBLIC	??$destroy@PEAPEAVValue@Json@@@?$_Wrap_alloc@V?$allocator@PEAVValue@Json@@@std@@@std@@QEAAXPEAPEAPEAVValue@Json@@@Z ; std::_Wrap_alloc<std::allocator<Json::Value * __ptr64> >::destroy<Json::Value * __ptr64 * __ptr64>
PUBLIC	??$?0U?$_Wrap_alloc@V?$allocator@PEAVValue@Json@@@std@@@std@@@?$_Wrap_alloc@V?$allocator@PEAPEAVValue@Json@@@std@@@std@@QEAA@AEAU?$_Wrap_alloc@V?$allocator@PEAVValue@Json@@@std@@@1@@Z ; std::_Wrap_alloc<std::allocator<Json::Value * __ptr64 * __ptr64> >::_Wrap_alloc<std::allocator<Json::Value * __ptr64 * __ptr64> ><std::_Wrap_alloc<std::allocator<Json::Value * __ptr64> > >
PUBLIC	??$?0AEBV?$allocator@VErrorInfo@Reader@Json@@@std@@$$V@?$_Compressed_pair@U?$_Wrap_alloc@V?$allocator@VErrorInfo@Reader@Json@@@std@@@std@@V?$_Deque_val@U?$_Deque_simple_types@VErrorInfo@Reader@Json@@@std@@@2@$00@std@@QEAA@U_One_then_variadic_args_t@1@AEBV?$allocator@VErrorInfo@Reader@Json@@@1@@Z ; std::_Compressed_pair<std::_Wrap_alloc<std::allocator<Json::Reader::ErrorInfo> >,std::_Deque_val<std::_Deque_simple_types<Json::Reader::ErrorInfo> >,1>::_Compressed_pair<std::_Wrap_alloc<std::allocator<Json::Reader::ErrorInfo> >,std::_Deque_val<std::_Deque_simple_types<Json::Reader::ErrorInfo> >,1><std::allocator<Json::Reader::ErrorInfo> const & __ptr64>
PUBLIC	??$forward@V?$vector@V?$basic_string@DU?$char_traits@D@std@@V?$allocator@D@2@@std@@V?$allocator@V?$basic_string@DU?$char_traits@D@std@@V?$allocator@D@2@@std@@@2@@std@@@std@@YA$$QEAV?$vector@V?$basic_string@DU?$char_traits@D@std@@V?$allocator@D@2@@std@@V?$allocator@V?$basic_string@DU?$char_traits@D@std@@V?$allocator@D@2@@std@@@2@@0@AEAV10@@Z ; std::forward<std::vector<std::basic_string<char,std::char_traits<char>,std::allocator<char> >,std::allocator<std::basic_string<char,std::char_traits<char>,std::allocator<char> > > > >
PUBLIC	??$move@AEAU?$_Wrap_alloc@V?$allocator@V?$basic_string@DU?$char_traits@D@std@@V?$allocator@D@2@@std@@@std@@@std@@@std@@YA$$QEAU?$_Wrap_alloc@V?$allocator@V?$basic_string@DU?$char_traits@D@std@@V?$allocator@D@2@@std@@@std@@@0@AEAU10@@Z ; std::move<std::_Wrap_alloc<std::allocator<std::basic_string<char,std::char_traits<char>,std::allocator<char> > > > & __ptr64>
PUBLIC	??$?0U?$_Tree_node@U?$pair@$$CBVCZString@Value@Json@@V23@@std@@PEAX@std@@@?$allocator@U?$pair@$$CBVCZString@Value@Json@@V23@@std@@@std@@QEAA@AEBV?$allocator@U?$_Tree_node@U?$pair@$$CBVCZString@Value@Json@@V23@@std@@PEAX@std@@@1@@Z ; std::allocator<std::pair<Json::Value::CZString const ,Json::Value> >::allocator<std::pair<Json::Value::CZString const ,Json::Value> ><std::_Tree_node<std::pair<Json::Value::CZString const ,Json::Value>,void * __ptr64> >
PUBLIC	??$destroy@U?$pair@$$CBVCZString@Value@Json@@V23@@std@@@?$_Wrap_alloc@V?$allocator@U?$_Tree_node@U?$pair@$$CBVCZString@Value@Json@@V23@@std@@PEAX@std@@@std@@@std@@QEAAXPEAU?$pair@$$CBVCZString@Value@Json@@V23@@1@@Z ; std::_Wrap_alloc<std::allocator<std::_Tree_node<std::pair<Json::Value::CZString const ,Json::Value>,void * __ptr64> > >::destroy<std::pair<Json::Value::CZString const ,Json::Value> >
PUBLIC	??$addressof@U?$pair@$$CBVCZString@Value@Json@@V23@@std@@@std@@YAPEAU?$pair@$$CBVCZString@Value@Json@@V23@@0@AEAU10@@Z ; std::addressof<std::pair<Json::Value::CZString const ,Json::Value> >
PUBLIC	??$_Lbound@VCZString@Value@Json@@@?$_Tree@V?$_Tmap_traits@VCZString@Value@Json@@V23@U?$less@VCZString@Value@Json@@@std@@V?$allocator@U?$pair@$$CBVCZString@Value@Json@@V23@@std@@@5@$0A@@std@@@std@@IEBAPEAU?$_Tree_node@U?$pair@$$CBVCZString@Value@Json@@V23@@std@@PEAX@1@AEBVCZString@Value@Json@@@Z ; std::_Tree<std::_Tmap_traits<Json::Value::CZString,Json::Value,std::less<Json::Value::CZString>,std::allocator<std::pair<Json::Value::CZString const ,Json::Value> >,0> >::_Lbound<Json::Value::CZString>
PUBLIC	??$emplace_back@$$V@?$deque@VErrorInfo@Reader@Json@@V?$allocator@VErrorInfo@Reader@Json@@@std@@@std@@QEAAXXZ ; std::deque<Json::Reader::ErrorInfo,std::allocator<Json::Reader::ErrorInfo> >::emplace_back<>
PUBLIC	??$construct@VErrorInfo@Reader@Json@@AEBV123@@?$_Wrap_alloc@V?$allocator@VErrorInfo@Reader@Json@@@std@@@std@@QEAAXPEAVErrorInfo@Reader@Json@@AEBV234@@Z ; std::_Wrap_alloc<std::allocator<Json::Reader::ErrorInfo> >::construct<Json::Reader::ErrorInfo,Json::Reader::ErrorInfo const & __ptr64>
PUBLIC	??$move@AEAPEAVValue@Json@@@std@@YA$$QEAPEAVValue@Json@@AEAPEAV12@@Z ; std::move<Json::Value * __ptr64 & __ptr64>
PUBLIC	??$?6DU?$char_traits@D@std@@V?$allocator@D@1@@std@@YAAEAV?$basic_ostream@DU?$char_traits@D@std@@@0@AEAV10@AEBV?$basic_string@DU?$char_traits@D@std@@V?$allocator@D@2@@0@@Z ; std::operator<<<char,std::char_traits<char>,std::allocator<char> >
PUBLIC	??$?HDU?$char_traits@D@std@@V?$allocator@D@1@@std@@YA?AV?$basic_string@DU?$char_traits@D@std@@V?$allocator@D@2@@0@PEBD$$QEAV10@@Z ; std::operator+<char,std::char_traits<char>,std::allocator<char> >
PUBLIC	??$?6DU?$char_traits@D@std@@_J@std@@YAAEAV?$basic_ostream@DU?$char_traits@D@std@@@0@AEAV10@AEBU?$_Smanip@_J@0@@Z ; std::operator<<<char,std::char_traits<char>,__int64>
PUBLIC	??$?6DU?$char_traits@D@std@@D@std@@YAAEAV?$basic_ostream@DU?$char_traits@D@std@@@0@AEAV10@AEBU?$_Fillobj@D@0@@Z ; std::operator<<<char,std::char_traits<char>,char>
PUBLIC	??$setfill@D@std@@YA?AU?$_Fillobj@D@0@D@Z	; std::setfill<char>
PUBLIC	??$?6U?$char_traits@D@std@@@std@@YAAEAV?$basic_ostream@DU?$char_traits@D@std@@@0@AEAV10@PEBD@Z ; std::operator<<<std::char_traits<char> >
PUBLIC	??$?0PEBDX@?$basic_string@DU?$char_traits@D@std@@V?$allocator@D@2@@std@@QEAA@PEBD0AEBV?$allocator@D@1@@Z ; std::basic_string<char,std::char_traits<char>,std::allocator<char> >::basic_string<char,std::char_traits<char>,std::allocator<char> ><char const * __ptr64,void>
PUBLIC	??$insert@AEAU?$pair@$$CBVCZString@Value@Json@@V23@@std@@@?$_Tree@V?$_Tmap_traits@VCZString@Value@Json@@V23@U?$less@VCZString@Value@Json@@@std@@V?$allocator@U?$pair@$$CBVCZString@Value@Json@@V23@@std@@@5@$0A@@std@@@std@@QEAA?AV?$_Tree_iterator@V?$_Tree_val@U?$_Tree_simple_types@U?$pair@$$CBVCZString@Value@Json@@V23@@std@@@std@@@std@@@1@V?$_Tree_const_iterator@V?$_Tree_val@U?$_Tree_simple_types@U?$pair@$$CBVCZString@Value@Json@@V23@@std@@@std@@@std@@@1@AEAU?$pair@$$CBVCZString@Value@Json@@V23@@1@@Z ; std::_Tree<std::_Tmap_traits<Json::Value::CZString,Json::Value,std::less<Json::Value::CZString>,std::allocator<std::pair<Json::Value::CZString const ,Json::Value> >,0> >::insert<std::pair<Json::Value::CZString const ,Json::Value> & __ptr64>
PUBLIC	??$?0AEAVCZString@Value@Json@@AEBV12@X@?$pair@$$CBVCZString@Value@Json@@V23@@std@@QEAA@AEAVCZString@Value@Json@@AEBV34@@Z ; std::pair<Json::Value::CZString const ,Json::Value>::pair<Json::Value::CZString const ,Json::Value><Json::Value::CZString & __ptr64,Json::Value const & __ptr64,void>
PUBLIC	??$swap@TValueHolder@Value@Json@@@std@@YAXAEATValueHolder@Value@Json@@0@Z ; std::swap<Json::Value::ValueHolder>
PUBLIC	?allocate@?$allocator@U?$_Tree_node@U?$pair@$$CBVCZString@Value@Json@@V23@@std@@PEAX@std@@@std@@QEAAPEAU?$_Tree_node@U?$pair@$$CBVCZString@Value@Json@@V23@@std@@PEAX@2@_K@Z ; std::allocator<std::_Tree_node<std::pair<Json::Value::CZString const ,Json::Value>,void * __ptr64> >::allocate
PUBLIC	?max_size@?$allocator@PEAVValue@Json@@@std@@QEBA_KXZ ; std::allocator<Json::Value * __ptr64>::max_size
PUBLIC	?allocate@?$_Wrap_alloc@V?$allocator@U?$_Tree_node@U?$pair@$$CBVCZString@Value@Json@@V23@@std@@PEAX@std@@@std@@@std@@QEAAPEAU?$_Tree_node@U?$pair@$$CBVCZString@Value@Json@@V23@@std@@PEAX@2@_K@Z ; std::_Wrap_alloc<std::allocator<std::_Tree_node<std::pair<Json::Value::CZString const ,Json::Value>,void * __ptr64> > >::allocate
PUBLIC	?max_size@?$allocator@VErrorInfo@Reader@Json@@@std@@QEBA_KXZ ; std::allocator<Json::Reader::ErrorInfo>::max_size
PUBLIC	?max_size@?$allocator_traits@V?$allocator@PEAVValue@Json@@@std@@@std@@SA_KAEBV?$allocator@PEAVValue@Json@@@2@@Z ; std::allocator_traits<std::allocator<Json::Value * __ptr64> >::max_size
PUBLIC	?_Setcont@?$_Deque_const_iterator@V?$_Deque_val@U?$_Deque_simple_types@PEAVValue@Json@@@std@@@std@@@std@@QEAAXPEBV?$_Deque_val@U?$_Deque_simple_types@PEAVValue@Json@@@std@@@2@@Z ; std::_Deque_const_iterator<std::_Deque_val<std::_Deque_simple_types<Json::Value * __ptr64> > >::_Setcont
PUBLIC	?_Get_first@?$_Compressed_pair@U?$_Wrap_alloc@V?$allocator@PEAVValue@Json@@@std@@@std@@V?$_Deque_val@U?$_Deque_simple_types@PEAVValue@Json@@@std@@@2@$00@std@@QEBAAEBU?$_Wrap_alloc@V?$allocator@PEAVValue@Json@@@std@@@2@XZ ; std::_Compressed_pair<std::_Wrap_alloc<std::allocator<Json::Value * __ptr64> >,std::_Deque_val<std::_Deque_simple_types<Json::Value * __ptr64> >,1>::_Get_first
PUBLIC	?_Buyheadnode@?$_Tree_comp_alloc@V?$_Tmap_traits@VCZString@Value@Json@@V23@U?$less@VCZString@Value@Json@@@std@@V?$allocator@U?$pair@$$CBVCZString@Value@Json@@V23@@std@@@5@$0A@@std@@@std@@QEAAPEAU?$_Tree_node@U?$pair@$$CBVCZString@Value@Json@@V23@@std@@PEAX@2@XZ ; std::_Tree_comp_alloc<std::_Tmap_traits<Json::Value::CZString,Json::Value,std::less<Json::Value::CZString>,std::allocator<std::pair<Json::Value::CZString const ,Json::Value> >,0> >::_Buyheadnode
PUBLIC	?_Get_first@?$_Compressed_pair@U?$less@VCZString@Value@Json@@@std@@V?$_Compressed_pair@U?$_Wrap_alloc@V?$allocator@U?$_Tree_node@U?$pair@$$CBVCZString@Value@Json@@V23@@std@@PEAX@std@@@std@@@std@@V?$_Tree_val@U?$_Tree_simple_types@U?$pair@$$CBVCZString@Value@Json@@V23@@std@@@std@@@2@$00@2@$00@std@@QEBAAEBU?$less@VCZString@Value@Json@@@2@XZ ; std::_Compressed_pair<std::less<Json::Value::CZString>,std::_Compressed_pair<std::_Wrap_alloc<std::allocator<std::_Tree_node<std::pair<Json::Value::CZString const ,Json::Value>,void * __ptr64> > >,std::_Tree_val<std::_Tree_simple_types<std::pair<Json::Value::CZString const ,Json::Value> > >,1>,1>::_Get_first
PUBLIC	?_Getal@?$_Deque_alloc@U?$_Deque_base_types@PEAVValue@Json@@V?$allocator@PEAVValue@Json@@@std@@@std@@@std@@QEBAAEBU?$_Wrap_alloc@V?$allocator@PEAVValue@Json@@@std@@@2@XZ ; std::_Deque_alloc<std::_Deque_base_types<Json::Value * __ptr64,std::allocator<Json::Value * __ptr64> > >::_Getal
PUBLIC	?max_size@?$_Wrap_alloc@V?$allocator@PEAVValue@Json@@@std@@@std@@QEBA_KU_Nil@2@@Z ; std::_Wrap_alloc<std::allocator<Json::Value * __ptr64> >::max_size
PUBLIC	?allocate@?$allocator@PEAPEAVValue@Json@@@std@@QEAAPEAPEAPEAVValue@Json@@_K@Z ; std::allocator<Json::Value * __ptr64 * __ptr64>::allocate
PUBLIC	??Y?$_Deque_iterator@V?$_Deque_val@U?$_Deque_simple_types@PEAVValue@Json@@@std@@@std@@@std@@QEAAAEAV01@_J@Z ; std::_Deque_iterator<std::_Deque_val<std::_Deque_simple_types<Json::Value * __ptr64> > >::operator+=
PUBLIC	??0?$_Deque_const_iterator@V?$_Deque_val@U?$_Deque_simple_types@PEAVValue@Json@@@std@@@std@@@std@@QEAA@_KPEBU_Container_base12@1@@Z ; std::_Deque_const_iterator<std::_Deque_val<std::_Deque_simple_types<Json::Value * __ptr64> > >::_Deque_const_iterator<std::_Deque_val<std::_Deque_simple_types<Json::Value * __ptr64> > >
PUBLIC	?_Get_second@?$_Compressed_pair@U?$_Wrap_alloc@V?$allocator@PEAVValue@Json@@@std@@@std@@V?$_Deque_val@U?$_Deque_simple_types@PEAVValue@Json@@@std@@@2@$00@std@@QEAAAEAV?$_Deque_val@U?$_Deque_simple_types@PEAVValue@Json@@@std@@@2@XZ ; std::_Compressed_pair<std::_Wrap_alloc<std::allocator<Json::Value * __ptr64> >,std::_Deque_val<std::_Deque_simple_types<Json::Value * __ptr64> >,1>::_Get_second
PUBLIC	?_Get_second@?$_Compressed_pair@U?$_Wrap_alloc@V?$allocator@PEAVValue@Json@@@std@@@std@@V?$_Deque_val@U?$_Deque_simple_types@PEAVValue@Json@@@std@@@2@$00@std@@QEBAAEBV?$_Deque_val@U?$_Deque_simple_types@PEAVValue@Json@@@std@@@2@XZ ; std::_Compressed_pair<std::_Wrap_alloc<std::allocator<Json::Value * __ptr64> >,std::_Deque_val<std::_Deque_simple_types<Json::Value * __ptr64> >,1>::_Get_second
PUBLIC	?max_size@?$allocator_traits@V?$allocator@VErrorInfo@Reader@Json@@@std@@@std@@SA_KAEBV?$allocator@VErrorInfo@Reader@Json@@@2@@Z ; std::allocator_traits<std::allocator<Json::Reader::ErrorInfo> >::max_size
PUBLIC	?_Get_first@?$_Compressed_pair@U?$_Wrap_alloc@V?$allocator@VErrorInfo@Reader@Json@@@std@@@std@@V?$_Deque_val@U?$_Deque_simple_types@VErrorInfo@Reader@Json@@@std@@@2@$00@std@@QEBAAEBU?$_Wrap_alloc@V?$allocator@VErrorInfo@Reader@Json@@@std@@@2@XZ ; std::_Compressed_pair<std::_Wrap_alloc<std::allocator<Json::Reader::ErrorInfo> >,std::_Deque_val<std::_Deque_simple_types<Json::Reader::ErrorInfo> >,1>::_Get_first
PUBLIC	?deallocate@?$allocator@U_Container_proxy@std@@@std@@QEAAXPEAU_Container_proxy@2@_K@Z ; std::allocator<std::_Container_proxy>::deallocate
PUBLIC	?allocate@?$allocator@U_Container_proxy@std@@@std@@QEAAPEAU_Container_proxy@2@_K@Z ; std::allocator<std::_Container_proxy>::allocate
PUBLIC	?_Construct@?$_Tree_comp_alloc@V?$_Tmap_traits@VCZString@Value@Json@@V23@U?$less@VCZString@Value@Json@@@std@@V?$allocator@U?$pair@$$CBVCZString@Value@Json@@V23@@std@@@5@$0A@@std@@@std@@QEAAXXZ ; std::_Tree_comp_alloc<std::_Tmap_traits<Json::Value::CZString,Json::Value,std::less<Json::Value::CZString>,std::allocator<std::pair<Json::Value::CZString const ,Json::Value> >,0> >::_Construct
PUBLIC	?_Getcomp@?$_Tree_comp_alloc@V?$_Tmap_traits@VCZString@Value@Json@@V23@U?$less@VCZString@Value@Json@@@std@@V?$allocator@U?$pair@$$CBVCZString@Value@Json@@V23@@std@@@5@$0A@@std@@@std@@QEBAAEBU?$less@VCZString@Value@Json@@@2@XZ ; std::_Tree_comp_alloc<std::_Tmap_traits<Json::Value::CZString,Json::Value,std::less<Json::Value::CZString>,std::allocator<std::pair<Json::Value::CZString const ,Json::Value> >,0> >::_Getcomp
PUBLIC	??0?$allocator@U?$_Tree_node@U?$pair@$$CBVCZString@Value@Json@@V23@@std@@PEAX@std@@@std@@QEAA@AEBV01@@Z ; std::allocator<std::_Tree_node<std::pair<Json::Value::CZString const ,Json::Value>,void * __ptr64> >::allocator<std::_Tree_node<std::pair<Json::Value::CZString const ,Json::Value>,void * __ptr64> >
PUBLIC	?_Get_second@?$_Compressed_pair@U?$_Wrap_alloc@V?$allocator@U?$_Tree_node@U?$pair@$$CBVCZString@Value@Json@@V23@@std@@PEAX@std@@@std@@@std@@V?$_Tree_val@U?$_Tree_simple_types@U?$pair@$$CBVCZString@Value@Json@@V23@@std@@@std@@@2@$00@std@@QEBAAEBV?$_Tree_val@U?$_Tree_simple_types@U?$pair@$$CBVCZString@Value@Json@@V23@@std@@@std@@@2@XZ ; std::_Compressed_pair<std::_Wrap_alloc<std::allocator<std::_Tree_node<std::pair<Json::Value::CZString const ,Json::Value>,void * __ptr64> > >,std::_Tree_val<std::_Tree_simple_types<std::pair<Json::Value::CZString const ,Json::Value> > >,1>::_Get_second
PUBLIC	??0?$_Tree_unchecked_const_iterator@V?$_Tree_val@U?$_Tree_simple_types@U?$pair@$$CBVCZString@Value@Json@@V23@@std@@@std@@@std@@U_Iterator_base0@2@@std@@QEAA@PEAU?$_Tree_node@U?$pair@$$CBVCZString@Value@Json@@V23@@std@@PEAX@1@PEBV?$_Tree_val@U?$_Tree_simple_types@U?$pair@$$CBVCZString@Value@Json@@V23@@std@@@std@@@1@@Z ; std::_Tree_unchecked_const_iterator<std::_Tree_val<std::_Tree_simple_types<std::pair<Json::Value::CZString const ,Json::Value> > >,std::_Iterator_base0>::_Tree_unchecked_const_iterator<std::_Tree_val<std::_Tree_simple_types<std::pair<Json::Value::CZString const ,Json::Value> > >,std::_Iterator_base0>
PUBLIC	?deallocate@?$allocator@VErrorInfo@Reader@Json@@@std@@QEAAXPEAVErrorInfo@Reader@Json@@_K@Z ; std::allocator<Json::Reader::ErrorInfo>::deallocate
PUBLIC	?deallocate@?$allocator@PEAVValue@Json@@@std@@QEAAXPEAPEAVValue@Json@@_K@Z ; std::allocator<Json::Value * __ptr64>::deallocate
PUBLIC	?allocate@?$allocator@PEAVValue@Json@@@std@@QEAAPEAPEAVValue@Json@@_K@Z ; std::allocator<Json::Value * __ptr64>::allocate
PUBLIC	?max_size@?$deque@PEAVValue@Json@@V?$allocator@PEAVValue@Json@@@std@@@std@@QEBA_KXZ ; std::deque<Json::Value * __ptr64,std::allocator<Json::Value * __ptr64> >::max_size
PUBLIC	?_Xlen@?$deque@PEAVValue@Json@@V?$allocator@PEAVValue@Json@@@std@@@std@@IEBAXXZ ; std::deque<Json::Value * __ptr64,std::allocator<Json::Value * __ptr64> >::_Xlen
PUBLIC	?_Alloc_proxy@?$_Deque_alloc@U?$_Deque_base_types@PEAVValue@Json@@V?$allocator@PEAVValue@Json@@@std@@@std@@@std@@QEAAXXZ ; std::_Deque_alloc<std::_Deque_base_types<Json::Value * __ptr64,std::allocator<Json::Value * __ptr64> > >::_Alloc_proxy
PUBLIC	?_Myproxy@?$_Deque_alloc@U?$_Deque_base_types@PEAVValue@Json@@V?$allocator@PEAVValue@Json@@@std@@@std@@@std@@QEAAAEAPEAU_Container_proxy@2@XZ ; std::_Deque_alloc<std::_Deque_base_types<Json::Value * __ptr64,std::allocator<Json::Value * __ptr64> > >::_Myproxy
PUBLIC	?_Get_data@?$_Deque_alloc@U?$_Deque_base_types@PEAVValue@Json@@V?$allocator@PEAVValue@Json@@@std@@@std@@@std@@QEAAAEAV?$_Deque_val@U?$_Deque_simple_types@PEAVValue@Json@@@std@@@2@XZ ; std::_Deque_alloc<std::_Deque_base_types<Json::Value * __ptr64,std::allocator<Json::Value * __ptr64> > >::_Get_data
PUBLIC	?_Get_data@?$_Deque_alloc@U?$_Deque_base_types@PEAVValue@Json@@V?$allocator@PEAVValue@Json@@@std@@@std@@@std@@QEBAAEBV?$_Deque_val@U?$_Deque_simple_types@PEAVValue@Json@@@std@@@2@XZ ; std::_Deque_alloc<std::_Deque_base_types<Json::Value * __ptr64,std::allocator<Json::Value * __ptr64> > >::_Get_data
PUBLIC	?deallocate@?$allocator@PEAPEAVValue@Json@@@std@@QEAAXPEAPEAPEAVValue@Json@@_K@Z ; std::allocator<Json::Value * __ptr64 * __ptr64>::deallocate
PUBLIC	?allocate@?$_Wrap_alloc@V?$allocator@PEAPEAVValue@Json@@@std@@@std@@QEAAPEAPEAPEAVValue@Json@@_K@Z ; std::_Wrap_alloc<std::allocator<Json::Value * __ptr64 * __ptr64> >::allocate
PUBLIC	?_Getblock@?$_Deque_val@U?$_Deque_simple_types@PEAVValue@Json@@@std@@@std@@QEBA_K_K@Z ; std::_Deque_val<std::_Deque_simple_types<Json::Value * __ptr64> >::_Getblock
PUBLIC	??0?$_Deque_iterator@V?$_Deque_val@U?$_Deque_simple_types@PEAVValue@Json@@@std@@@std@@@std@@QEAA@_KPEBU_Container_base12@1@@Z ; std::_Deque_iterator<std::_Deque_val<std::_Deque_simple_types<Json::Value * __ptr64> > >::_Deque_iterator<std::_Deque_val<std::_Deque_simple_types<Json::Value * __ptr64> > >
PUBLIC	??Z?$_Deque_iterator@V?$_Deque_val@U?$_Deque_simple_types@PEAVValue@Json@@@std@@@std@@@std@@QEAAAEAV01@_J@Z ; std::_Deque_iterator<std::_Deque_val<std::_Deque_simple_types<Json::Value * __ptr64> > >::operator-=
PUBLIC	??D?$_Deque_const_iterator@V?$_Deque_val@U?$_Deque_simple_types@PEAVValue@Json@@@std@@@std@@@std@@QEBAAEBQEAVValue@Json@@XZ ; std::_Deque_const_iterator<std::_Deque_val<std::_Deque_simple_types<Json::Value * __ptr64> > >::operator*
PUBLIC	?_Get_first@?$_Compressed_pair@U?$_Wrap_alloc@V?$allocator@PEAVValue@Json@@@std@@@std@@V?$_Deque_val@U?$_Deque_simple_types@PEAVValue@Json@@@std@@@2@$00@std@@QEAAAEAU?$_Wrap_alloc@V?$allocator@PEAVValue@Json@@@std@@@2@XZ ; std::_Compressed_pair<std::_Wrap_alloc<std::allocator<Json::Value * __ptr64> >,std::_Deque_val<std::_Deque_simple_types<Json::Value * __ptr64> >,1>::_Get_first
PUBLIC	?_Myproxy@?$_Deque_alloc@U?$_Deque_base_types@VErrorInfo@Reader@Json@@V?$allocator@VErrorInfo@Reader@Json@@@std@@@std@@@std@@QEAAAEAPEAU_Container_proxy@2@XZ ; std::_Deque_alloc<std::_Deque_base_types<Json::Reader::ErrorInfo,std::allocator<Json::Reader::ErrorInfo> > >::_Myproxy
PUBLIC	?_Getal@?$_Deque_alloc@U?$_Deque_base_types@VErrorInfo@Reader@Json@@V?$allocator@VErrorInfo@Reader@Json@@@std@@@std@@@std@@QEBAAEBU?$_Wrap_alloc@V?$allocator@VErrorInfo@Reader@Json@@@std@@@2@XZ ; std::_Deque_alloc<std::_Deque_base_types<Json::Reader::ErrorInfo,std::allocator<Json::Reader::ErrorInfo> > >::_Getal
PUBLIC	?max_size@?$_Wrap_alloc@V?$allocator@VErrorInfo@Reader@Json@@@std@@@std@@QEBA_KU_Nil@2@@Z ; std::_Wrap_alloc<std::allocator<Json::Reader::ErrorInfo> >::max_size
PUBLIC	?deallocate@?$allocator@PEAVErrorInfo@Reader@Json@@@std@@QEAAXPEAPEAVErrorInfo@Reader@Json@@_K@Z ; std::allocator<Json::Reader::ErrorInfo * __ptr64>::deallocate
PUBLIC	?allocate@?$allocator@PEAVErrorInfo@Reader@Json@@@std@@QEAAPEAPEAVErrorInfo@Reader@Json@@_K@Z ; std::allocator<Json::Reader::ErrorInfo * __ptr64>::allocate
PUBLIC	?_Get_second@?$_Compressed_pair@U?$_Wrap_alloc@V?$allocator@VErrorInfo@Reader@Json@@@std@@@std@@V?$_Deque_val@U?$_Deque_simple_types@VErrorInfo@Reader@Json@@@std@@@2@$00@std@@QEAAAEAV?$_Deque_val@U?$_Deque_simple_types@VErrorInfo@Reader@Json@@@std@@@2@XZ ; std::_Compressed_pair<std::_Wrap_alloc<std::allocator<Json::Reader::ErrorInfo> >,std::_Deque_val<std::_Deque_simple_types<Json::Reader::ErrorInfo> >,1>::_Get_second
PUBLIC	?allocate@?$_Wrap_alloc@V?$allocator@U_Container_proxy@std@@@std@@@std@@QEAAPEAU_Container_proxy@2@_K@Z ; std::_Wrap_alloc<std::allocator<std::_Container_proxy> >::allocate
PUBLIC	?deallocate@?$_Wrap_alloc@V?$allocator@U_Container_proxy@std@@@std@@@std@@QEAAXPEAU_Container_proxy@2@_K@Z ; std::_Wrap_alloc<std::allocator<std::_Container_proxy> >::deallocate
PUBLIC	??0?$_Deque_const_iterator@V?$_Deque_val@U?$_Deque_simple_types@PEAVValue@Json@@@std@@@std@@@std@@QEAA@AEBV01@@Z ; std::_Deque_const_iterator<std::_Deque_val<std::_Deque_simple_types<Json::Value * __ptr64> > >::_Deque_const_iterator<std::_Deque_val<std::_Deque_simple_types<Json::Value * __ptr64> > >
PUBLIC	??0?$_Deque_iterator@V?$_Deque_val@U?$_Deque_simple_types@PEAVValue@Json@@@std@@@std@@@std@@QEAA@AEBV01@@Z ; std::_Deque_iterator<std::_Deque_val<std::_Deque_simple_types<Json::Value * __ptr64> > >::_Deque_iterator<std::_Deque_val<std::_Deque_simple_types<Json::Value * __ptr64> > >
PUBLIC	?_Init@?$basic_stringbuf@DU?$char_traits@D@std@@V?$allocator@D@2@@std@@IEAAXPEBD_KH@Z ; std::basic_stringbuf<char,std::char_traits<char>,std::allocator<char> >::_Init
PUBLIC	?_Getstate@?$basic_stringbuf@DU?$char_traits@D@std@@V?$allocator@D@2@@std@@AEAAHH@Z ; std::basic_stringbuf<char,std::char_traits<char>,std::allocator<char> >::_Getstate
PUBLIC	??0_Sentry_base@?$basic_ostream@DU?$char_traits@D@std@@@std@@QEAA@AEAV12@@Z ; std::basic_ostream<char,std::char_traits<char> >::_Sentry_base::_Sentry_base
PUBLIC	??1_Sentry_base@?$basic_ostream@DU?$char_traits@D@std@@@std@@QEAA@XZ ; std::basic_ostream<char,std::char_traits<char> >::_Sentry_base::~_Sentry_base
PUBLIC	?key_comp@?$_Tree@V?$_Tmap_traits@VCZString@Value@Json@@V23@U?$less@VCZString@Value@Json@@@std@@V?$allocator@U?$pair@$$CBVCZString@Value@Json@@V23@@std@@@5@$0A@@std@@@std@@QEBA?AU?$less@VCZString@Value@Json@@@2@XZ ; std::_Tree<std::_Tmap_traits<Json::Value::CZString,Json::Value,std::less<Json::Value::CZString>,std::allocator<std::pair<Json::Value::CZString const ,Json::Value> >,0> >::key_comp
PUBLIC	?_Kfn@?$_Tree@V?$_Tmap_traits@VCZString@Value@Json@@V23@U?$less@VCZString@Value@Json@@@std@@V?$allocator@U?$pair@$$CBVCZString@Value@Json@@V23@@std@@@5@$0A@@std@@@std@@IEBAAEBVCZString@Value@Json@@AEBU?$pair@$$CBVCZString@Value@Json@@V23@@2@@Z ; std::_Tree<std::_Tmap_traits<Json::Value::CZString,Json::Value,std::less<Json::Value::CZString>,std::allocator<std::pair<Json::Value::CZString const ,Json::Value> >,0> >::_Kfn
PUBLIC	??0?$_Tree_comp_alloc@V?$_Tmap_traits@VCZString@Value@Json@@V23@U?$less@VCZString@Value@Json@@@std@@V?$allocator@U?$pair@$$CBVCZString@Value@Json@@V23@@std@@@5@$0A@@std@@@std@@QEAA@AEBU?$less@VCZString@Value@Json@@@1@AEBV?$allocator@U?$pair@$$CBVCZString@Value@Json@@V23@@std@@@1@@Z ; std::_Tree_comp_alloc<std::_Tmap_traits<Json::Value::CZString,Json::Value,std::less<Json::Value::CZString>,std::allocator<std::pair<Json::Value::CZString const ,Json::Value> >,0> >::_Tree_comp_alloc<std::_Tmap_traits<Json::Value::CZString,Json::Value,std::less<Json::Value::CZString>,std::allocator<std::pair<Json::Value::CZString const ,Json::Value> >,0> >
PUBLIC	?_Freeheadnode@?$_Tree_comp_alloc@V?$_Tmap_traits@VCZString@Value@Json@@V23@U?$less@VCZString@Value@Json@@@std@@V?$allocator@U?$pair@$$CBVCZString@Value@Json@@V23@@std@@@5@$0A@@std@@@std@@QEAAXPEAU?$_Tree_node@U?$pair@$$CBVCZString@Value@Json@@V23@@std@@PEAX@2@@Z ; std::_Tree_comp_alloc<std::_Tmap_traits<Json::Value::CZString,Json::Value,std::less<Json::Value::CZString>,std::allocator<std::pair<Json::Value::CZString const ,Json::Value> >,0> >::_Freeheadnode
PUBLIC	?_Get_data@?$_Tree_comp_alloc@V?$_Tmap_traits@VCZString@Value@Json@@V23@U?$less@VCZString@Value@Json@@@std@@V?$allocator@U?$pair@$$CBVCZString@Value@Json@@V23@@std@@@5@$0A@@std@@@std@@QEBAAEBV?$_Tree_val@U?$_Tree_simple_types@U?$pair@$$CBVCZString@Value@Json@@V23@@std@@@std@@@2@XZ ; std::_Tree_comp_alloc<std::_Tmap_traits<Json::Value::CZString,Json::Value,std::less<Json::Value::CZString>,std::allocator<std::pair<Json::Value::CZString const ,Json::Value> >,0> >::_Get_data
PUBLIC	?_Myhead@?$_Tree_comp_alloc@V?$_Tmap_traits@VCZString@Value@Json@@V23@U?$less@VCZString@Value@Json@@@std@@V?$allocator@U?$pair@$$CBVCZString@Value@Json@@V23@@std@@@5@$0A@@std@@@std@@QEBAAEBQEAU?$_Tree_node@U?$pair@$$CBVCZString@Value@Json@@V23@@std@@PEAX@2@XZ ; std::_Tree_comp_alloc<std::_Tmap_traits<Json::Value::CZString,Json::Value,std::less<Json::Value::CZString>,std::allocator<std::pair<Json::Value::CZString const ,Json::Value> >,0> >::_Myhead
PUBLIC	?deallocate@?$allocator@U?$_Tree_node@U?$pair@$$CBVCZString@Value@Json@@V23@@std@@PEAX@std@@@std@@QEAAXPEAU?$_Tree_node@U?$pair@$$CBVCZString@Value@Json@@V23@@std@@PEAX@2@_K@Z ; std::allocator<std::_Tree_node<std::pair<Json::Value::CZString const ,Json::Value>,void * __ptr64> >::deallocate
PUBLIC	??0?$_Wrap_alloc@V?$allocator@U?$_Tree_node@U?$pair@$$CBVCZString@Value@Json@@V23@@std@@PEAX@std@@@std@@@std@@QEAA@AEBV?$allocator@U?$_Tree_node@U?$pair@$$CBVCZString@Value@Json@@V23@@std@@PEAX@std@@@1@@Z ; std::_Wrap_alloc<std::allocator<std::_Tree_node<std::pair<Json::Value::CZString const ,Json::Value>,void * __ptr64> > >::_Wrap_alloc<std::allocator<std::_Tree_node<std::pair<Json::Value::CZString const ,Json::Value>,void * __ptr64> > >
PUBLIC	?select_on_container_copy_construction@?$allocator_traits@V?$allocator@U?$_Tree_node@U?$pair@$$CBVCZString@Value@Json@@V23@@std@@PEAX@std@@@std@@@std@@SA?AV?$allocator@U?$_Tree_node@U?$pair@$$CBVCZString@Value@Json@@V23@@std@@PEAX@std@@@2@AEBV32@@Z ; std::allocator_traits<std::allocator<std::_Tree_node<std::pair<Json::Value::CZString const ,Json::Value>,void * __ptr64> > >::select_on_container_copy_construction
PUBLIC	?_Color@?$_Tree_val@U?$_Tree_simple_types@U?$pair@$$CBVCZString@Value@Json@@V23@@std@@@std@@@std@@SAAEADPEAU?$_Tree_node@U?$pair@$$CBVCZString@Value@Json@@V23@@std@@PEAX@2@@Z ; std::_Tree_val<std::_Tree_simple_types<std::pair<Json::Value::CZString const ,Json::Value> > >::_Color
PUBLIC	?_Isnil@?$_Tree_val@U?$_Tree_simple_types@U?$pair@$$CBVCZString@Value@Json@@V23@@std@@@std@@@std@@SAAEADPEAU?$_Tree_node@U?$pair@$$CBVCZString@Value@Json@@V23@@std@@PEAX@2@@Z ; std::_Tree_val<std::_Tree_simple_types<std::pair<Json::Value::CZString const ,Json::Value> > >::_Isnil
PUBLIC	?_Left@?$_Tree_val@U?$_Tree_simple_types@U?$pair@$$CBVCZString@Value@Json@@V23@@std@@@std@@@std@@SAAEAPEAU?$_Tree_node@U?$pair@$$CBVCZString@Value@Json@@V23@@std@@PEAX@2@PEAU32@@Z ; std::_Tree_val<std::_Tree_simple_types<std::pair<Json::Value::CZString const ,Json::Value> > >::_Left
PUBLIC	?_Parent@?$_Tree_val@U?$_Tree_simple_types@U?$pair@$$CBVCZString@Value@Json@@V23@@std@@@std@@@std@@SAAEAPEAU?$_Tree_node@U?$pair@$$CBVCZString@Value@Json@@V23@@std@@PEAX@2@PEAU32@@Z ; std::_Tree_val<std::_Tree_simple_types<std::pair<Json::Value::CZString const ,Json::Value> > >::_Parent
PUBLIC	?_Right@?$_Tree_val@U?$_Tree_simple_types@U?$pair@$$CBVCZString@Value@Json@@V23@@std@@@std@@@std@@SAAEAPEAU?$_Tree_node@U?$pair@$$CBVCZString@Value@Json@@V23@@std@@PEAX@2@PEAU32@@Z ; std::_Tree_val<std::_Tree_simple_types<std::pair<Json::Value::CZString const ,Json::Value> > >::_Right
PUBLIC	?_Max@?$_Tree_val@U?$_Tree_simple_types@U?$pair@$$CBVCZString@Value@Json@@V23@@std@@@std@@@std@@SAPEAU?$_Tree_node@U?$pair@$$CBVCZString@Value@Json@@V23@@std@@PEAX@2@PEAU32@@Z ; std::_Tree_val<std::_Tree_simple_types<std::pair<Json::Value::CZString const ,Json::Value> > >::_Max
PUBLIC	?_Min@?$_Tree_val@U?$_Tree_simple_types@U?$pair@$$CBVCZString@Value@Json@@V23@@std@@@std@@@std@@SAPEAU?$_Tree_node@U?$pair@$$CBVCZString@Value@Json@@V23@@std@@PEAX@2@PEAU32@@Z ; std::_Tree_val<std::_Tree_simple_types<std::pair<Json::Value::CZString const ,Json::Value> > >::_Min
PUBLIC	??0?$_Tree_const_iterator@V?$_Tree_val@U?$_Tree_simple_types@U?$pair@$$CBVCZString@Value@Json@@V23@@std@@@std@@@std@@@std@@QEAA@PEAU?$_Tree_node@U?$pair@$$CBVCZString@Value@Json@@V23@@std@@PEAX@1@PEBV?$_Tree_val@U?$_Tree_simple_types@U?$pair@$$CBVCZString@Value@Json@@V23@@std@@@std@@@1@@Z ; std::_Tree_const_iterator<std::_Tree_val<std::_Tree_simple_types<std::pair<Json::Value::CZString const ,Json::Value> > > >::_Tree_const_iterator<std::_Tree_val<std::_Tree_simple_types<std::pair<Json::Value::CZString const ,Json::Value> > > >
PUBLIC	??E?$_Tree_const_iterator@V?$_Tree_val@U?$_Tree_simple_types@U?$pair@$$CBVCZString@Value@Json@@V23@@std@@@std@@@std@@@std@@QEAA?AV01@H@Z ; std::_Tree_const_iterator<std::_Tree_val<std::_Tree_simple_types<std::pair<Json::Value::CZString const ,Json::Value> > > >::operator++
PUBLIC	?_Get_first@?$_Compressed_pair@U?$_Wrap_alloc@V?$allocator@U?$_Tree_node@U?$pair@$$CBVCZString@Value@Json@@V23@@std@@PEAX@std@@@std@@@std@@V?$_Tree_val@U?$_Tree_simple_types@U?$pair@$$CBVCZString@Value@Json@@V23@@std@@@std@@@2@$00@std@@QEAAAEAU?$_Wrap_alloc@V?$allocator@U?$_Tree_node@U?$pair@$$CBVCZString@Value@Json@@V23@@std@@PEAX@std@@@std@@@2@XZ ; std::_Compressed_pair<std::_Wrap_alloc<std::allocator<std::_Tree_node<std::pair<Json::Value::CZString const ,Json::Value>,void * __ptr64> > >,std::_Tree_val<std::_Tree_simple_types<std::pair<Json::Value::CZString const ,Json::Value> > >,1>::_Get_first
PUBLIC	?_Get_first@?$_Compressed_pair@U?$_Wrap_alloc@V?$allocator@U?$_Tree_node@U?$pair@$$CBVCZString@Value@Json@@V23@@std@@PEAX@std@@@std@@@std@@V?$_Tree_val@U?$_Tree_simple_types@U?$pair@$$CBVCZString@Value@Json@@V23@@std@@@std@@@2@$00@std@@QEBAAEBU?$_Wrap_alloc@V?$allocator@U?$_Tree_node@U?$pair@$$CBVCZString@Value@Json@@V23@@std@@PEAX@std@@@std@@@2@XZ ; std::_Compressed_pair<std::_Wrap_alloc<std::allocator<std::_Tree_node<std::pair<Json::Value::CZString const ,Json::Value>,void * __ptr64> > >,std::_Tree_val<std::_Tree_simple_types<std::pair<Json::Value::CZString const ,Json::Value> > >,1>::_Get_first
PUBLIC	?_Get_second@?$_Compressed_pair@U?$_Wrap_alloc@V?$allocator@U?$_Tree_node@U?$pair@$$CBVCZString@Value@Json@@V23@@std@@PEAX@std@@@std@@@std@@V?$_Tree_val@U?$_Tree_simple_types@U?$pair@$$CBVCZString@Value@Json@@V23@@std@@@std@@@2@$00@std@@QEAAAEAV?$_Tree_val@U?$_Tree_simple_types@U?$pair@$$CBVCZString@Value@Json@@V23@@std@@@std@@@2@XZ ; std::_Compressed_pair<std::_Wrap_alloc<std::allocator<std::_Tree_node<std::pair<Json::Value::CZString const ,Json::Value>,void * __ptr64> > >,std::_Tree_val<std::_Tree_simple_types<std::pair<Json::Value::CZString const ,Json::Value> > >,1>::_Get_second
PUBLIC	?_Get_first@?$_Compressed_pair@U?$less@VCZString@Value@Json@@@std@@V?$_Compressed_pair@U?$_Wrap_alloc@V?$allocator@U?$_Tree_node@U?$pair@$$CBVCZString@Value@Json@@V23@@std@@PEAX@std@@@std@@@std@@V?$_Tree_val@U?$_Tree_simple_types@U?$pair@$$CBVCZString@Value@Json@@V23@@std@@@std@@@2@$00@2@$00@std@@QEAAAEAU?$less@VCZString@Value@Json@@@2@XZ ; std::_Compressed_pair<std::less<Json::Value::CZString>,std::_Compressed_pair<std::_Wrap_alloc<std::allocator<std::_Tree_node<std::pair<Json::Value::CZString const ,Json::Value>,void * __ptr64> > >,std::_Tree_val<std::_Tree_simple_types<std::pair<Json::Value::CZString const ,Json::Value> > >,1>,1>::_Get_first
PUBLIC	?_Get_second@?$_Compressed_pair@U?$less@VCZString@Value@Json@@@std@@V?$_Compressed_pair@U?$_Wrap_alloc@V?$allocator@U?$_Tree_node@U?$pair@$$CBVCZString@Value@Json@@V23@@std@@PEAX@std@@@std@@@std@@V?$_Tree_val@U?$_Tree_simple_types@U?$pair@$$CBVCZString@Value@Json@@V23@@std@@@std@@@2@$00@2@$00@std@@QEAAAEAV?$_Compressed_pair@U?$_Wrap_alloc@V?$allocator@U?$_Tree_node@U?$pair@$$CBVCZString@Value@Json@@V23@@std@@PEAX@std@@@std@@@std@@V?$_Tree_val@U?$_Tree_simple_types@U?$pair@$$CBVCZString@Value@Json@@V23@@std@@@std@@@2@$00@2@XZ ; std::_Compressed_pair<std::less<Json::Value::CZString>,std::_Compressed_pair<std::_Wrap_alloc<std::allocator<std::_Tree_node<std::pair<Json::Value::CZString const ,Json::Value>,void * __ptr64> > >,std::_Tree_val<std::_Tree_simple_types<std::pair<Json::Value::CZString const ,Json::Value> > >,1>,1>::_Get_second
PUBLIC	?_Get_second@?$_Compressed_pair@U?$less@VCZString@Value@Json@@@std@@V?$_Compressed_pair@U?$_Wrap_alloc@V?$allocator@U?$_Tree_node@U?$pair@$$CBVCZString@Value@Json@@V23@@std@@PEAX@std@@@std@@@std@@V?$_Tree_val@U?$_Tree_simple_types@U?$pair@$$CBVCZString@Value@Json@@V23@@std@@@std@@@2@$00@2@$00@std@@QEBAAEBV?$_Compressed_pair@U?$_Wrap_alloc@V?$allocator@U?$_Tree_node@U?$pair@$$CBVCZString@Value@Json@@V23@@std@@PEAX@std@@@std@@@std@@V?$_Tree_val@U?$_Tree_simple_types@U?$pair@$$CBVCZString@Value@Json@@V23@@std@@@std@@@2@$00@2@XZ ; std::_Compressed_pair<std::less<Json::Value::CZString>,std::_Compressed_pair<std::_Wrap_alloc<std::allocator<std::_Tree_node<std::pair<Json::Value::CZString const ,Json::Value>,void * __ptr64> > >,std::_Tree_val<std::_Tree_simple_types<std::pair<Json::Value::CZString const ,Json::Value> > >,1>,1>::_Get_second
PUBLIC	??0?$_Tree_unchecked_const_iterator@V?$_Tree_val@U?$_Tree_simple_types@U?$pair@$$CBVCZString@Value@Json@@V23@@std@@@std@@@std@@U_Iterator_base0@2@@std@@QEAA@XZ ; std::_Tree_unchecked_const_iterator<std::_Tree_val<std::_Tree_simple_types<std::pair<Json::Value::CZString const ,Json::Value> > >,std::_Iterator_base0>::_Tree_unchecked_const_iterator<std::_Tree_val<std::_Tree_simple_types<std::pair<Json::Value::CZString const ,Json::Value> > >,std::_Iterator_base0>
PUBLIC	?_Swap_all@?$_Vector_alloc@U?$_Vec_base_types@V?$basic_string@DU?$char_traits@D@std@@V?$allocator@D@2@@std@@V?$allocator@V?$basic_string@DU?$char_traits@D@std@@V?$allocator@D@2@@std@@@2@@std@@@std@@QEAAXAEAV12@@Z ; std::_Vector_alloc<std::_Vec_base_types<std::basic_string<char,std::char_traits<char>,std::allocator<char> >,std::allocator<std::basic_string<char,std::char_traits<char>,std::allocator<char> > > > >::_Swap_all
PUBLIC	??0?$_Vector_const_iterator@V?$_Vector_val@U?$_Simple_types@V?$basic_string@DU?$char_traits@D@std@@V?$allocator@D@2@@std@@@std@@@std@@@std@@QEAA@PEAV?$basic_string@DU?$char_traits@D@std@@V?$allocator@D@2@@1@PEBU_Container_base0@1@@Z ; std::_Vector_const_iterator<std::_Vector_val<std::_Simple_types<std::basic_string<char,std::char_traits<char>,std::allocator<char> > > > >::_Vector_const_iterator<std::_Vector_val<std::_Simple_types<std::basic_string<char,std::char_traits<char>,std::allocator<char> > > > >
PUBLIC	?allocate@?$allocator@VErrorInfo@Reader@Json@@@std@@QEAAPEAVErrorInfo@Reader@Json@@_K@Z ; std::allocator<Json::Reader::ErrorInfo>::allocate
PUBLIC	?max_size@?$deque@VErrorInfo@Reader@Json@@V?$allocator@VErrorInfo@Reader@Json@@@std@@@std@@QEBA_KXZ ; std::deque<Json::Reader::ErrorInfo,std::allocator<Json::Reader::ErrorInfo> >::max_size
PUBLIC	?empty@?$deque@VErrorInfo@Reader@Json@@V?$allocator@VErrorInfo@Reader@Json@@@std@@@std@@QEBA_NXZ ; std::deque<Json::Reader::ErrorInfo,std::allocator<Json::Reader::ErrorInfo> >::empty
PUBLIC	?_Xlen@?$deque@VErrorInfo@Reader@Json@@V?$allocator@VErrorInfo@Reader@Json@@@std@@@std@@IEBAXXZ ; std::deque<Json::Reader::ErrorInfo,std::allocator<Json::Reader::ErrorInfo> >::_Xlen
PUBLIC	??0?$allocator@PEAVValue@Json@@@std@@QEAA@XZ	; std::allocator<Json::Value * __ptr64>::allocator<Json::Value * __ptr64>
PUBLIC	?end@?$deque@PEAVValue@Json@@V?$allocator@PEAVValue@Json@@@std@@@std@@QEAA?AV?$_Deque_iterator@V?$_Deque_val@U?$_Deque_simple_types@PEAVValue@Json@@@std@@@std@@@2@XZ ; std::deque<Json::Value * __ptr64,std::allocator<Json::Value * __ptr64> >::end
PUBLIC	?_Growmap@?$deque@PEAVValue@Json@@V?$allocator@PEAVValue@Json@@@std@@@std@@IEAAX_K@Z ; std::deque<Json::Value * __ptr64,std::allocator<Json::Value * __ptr64> >::_Growmap
PUBLIC	?_Getblock@?$_Deque_alloc@U?$_Deque_base_types@PEAVValue@Json@@V?$allocator@PEAVValue@Json@@@std@@@std@@@std@@QEBA_K_K@Z ; std::_Deque_alloc<std::_Deque_base_types<Json::Value * __ptr64,std::allocator<Json::Value * __ptr64> > >::_Getblock
PUBLIC	??0?$_Deque_alloc@U?$_Deque_base_types@PEAVValue@Json@@V?$allocator@PEAVValue@Json@@@std@@@std@@@std@@QEAA@AEBV?$allocator@PEAVValue@Json@@@1@@Z ; std::_Deque_alloc<std::_Deque_base_types<Json::Value * __ptr64,std::allocator<Json::Value * __ptr64> > >::_Deque_alloc<std::_Deque_base_types<Json::Value * __ptr64,std::allocator<Json::Value * __ptr64> > >
PUBLIC	?_Free_proxy@?$_Deque_alloc@U?$_Deque_base_types@PEAVValue@Json@@V?$allocator@PEAVValue@Json@@@std@@@std@@@std@@QEAAXXZ ; std::_Deque_alloc<std::_Deque_base_types<Json::Value * __ptr64,std::allocator<Json::Value * __ptr64> > >::_Free_proxy
PUBLIC	?_Orphan_all@?$_Deque_alloc@U?$_Deque_base_types@PEAVValue@Json@@V?$allocator@PEAVValue@Json@@@std@@@std@@@std@@QEAAXXZ ; std::_Deque_alloc<std::_Deque_base_types<Json::Value * __ptr64,std::allocator<Json::Value * __ptr64> > >::_Orphan_all
PUBLIC	?_Getal@?$_Deque_alloc@U?$_Deque_base_types@PEAVValue@Json@@V?$allocator@PEAVValue@Json@@@std@@@std@@@std@@QEAAAEAU?$_Wrap_alloc@V?$allocator@PEAVValue@Json@@@std@@@2@XZ ; std::_Deque_alloc<std::_Deque_base_types<Json::Value * __ptr64,std::allocator<Json::Value * __ptr64> > >::_Getal
PUBLIC	?_Map@?$_Deque_alloc@U?$_Deque_base_types@PEAVValue@Json@@V?$allocator@PEAVValue@Json@@@std@@@std@@@std@@QEAAAEAPEAPEAPEAVValue@Json@@XZ ; std::_Deque_alloc<std::_Deque_base_types<Json::Value * __ptr64,std::allocator<Json::Value * __ptr64> > >::_Map
PUBLIC	?_Mapsize@?$_Deque_alloc@U?$_Deque_base_types@PEAVValue@Json@@V?$allocator@PEAVValue@Json@@@std@@@std@@@std@@QEAAAEA_KXZ ; std::_Deque_alloc<std::_Deque_base_types<Json::Value * __ptr64,std::allocator<Json::Value * __ptr64> > >::_Mapsize
PUBLIC	?_Myoff@?$_Deque_alloc@U?$_Deque_base_types@PEAVValue@Json@@V?$allocator@PEAVValue@Json@@@std@@@std@@@std@@QEAAAEA_KXZ ; std::_Deque_alloc<std::_Deque_base_types<Json::Value * __ptr64,std::allocator<Json::Value * __ptr64> > >::_Myoff
PUBLIC	?_Mysize@?$_Deque_alloc@U?$_Deque_base_types@PEAVValue@Json@@V?$allocator@PEAVValue@Json@@@std@@@std@@@std@@QEAAAEA_KXZ ; std::_Deque_alloc<std::_Deque_base_types<Json::Value * __ptr64,std::allocator<Json::Value * __ptr64> > >::_Mysize
PUBLIC	?_Mysize@?$_Deque_alloc@U?$_Deque_base_types@PEAVValue@Json@@V?$allocator@PEAVValue@Json@@@std@@@std@@@std@@QEBAAEB_KXZ ; std::_Deque_alloc<std::_Deque_base_types<Json::Value * __ptr64,std::allocator<Json::Value * __ptr64> > >::_Mysize
PUBLIC	?allocate@?$_Wrap_alloc@V?$allocator@PEAVValue@Json@@@std@@@std@@QEAAPEAPEAVValue@Json@@_K@Z ; std::_Wrap_alloc<std::allocator<Json::Value * __ptr64> >::allocate
PUBLIC	?deallocate@?$_Wrap_alloc@V?$allocator@PEAVValue@Json@@@std@@@std@@QEAAXPEAPEAVValue@Json@@_K@Z ; std::_Wrap_alloc<std::allocator<Json::Value * __ptr64> >::deallocate
PUBLIC	?deallocate@?$_Wrap_alloc@V?$allocator@PEAPEAVValue@Json@@@std@@@std@@QEAAXPEAPEAPEAVValue@Json@@_K@Z ; std::_Wrap_alloc<std::allocator<Json::Value * __ptr64 * __ptr64> >::deallocate
PUBLIC	??D?$_Deque_iterator@V?$_Deque_val@U?$_Deque_simple_types@PEAVValue@Json@@@std@@@std@@@std@@QEBAAEAPEAVValue@Json@@XZ ; std::_Deque_iterator<std::_Deque_val<std::_Deque_simple_types<Json::Value * __ptr64> > >::operator*
PUBLIC	??G?$_Deque_iterator@V?$_Deque_val@U?$_Deque_simple_types@PEAVValue@Json@@@std@@@std@@@std@@QEBA?AV01@_J@Z ; std::_Deque_iterator<std::_Deque_val<std::_Deque_simple_types<Json::Value * __ptr64> > >::operator-
PUBLIC	?_Alloc_proxy@?$_Deque_alloc@U?$_Deque_base_types@VErrorInfo@Reader@Json@@V?$allocator@VErrorInfo@Reader@Json@@@std@@@std@@@std@@QEAAXXZ ; std::_Deque_alloc<std::_Deque_base_types<Json::Reader::ErrorInfo,std::allocator<Json::Reader::ErrorInfo> > >::_Alloc_proxy
PUBLIC	?_Free_proxy@?$_Deque_alloc@U?$_Deque_base_types@VErrorInfo@Reader@Json@@V?$allocator@VErrorInfo@Reader@Json@@@std@@@std@@@std@@QEAAXXZ ; std::_Deque_alloc<std::_Deque_base_types<Json::Reader::ErrorInfo,std::allocator<Json::Reader::ErrorInfo> > >::_Free_proxy
PUBLIC	?_Get_data@?$_Deque_alloc@U?$_Deque_base_types@VErrorInfo@Reader@Json@@V?$allocator@VErrorInfo@Reader@Json@@@std@@@std@@@std@@QEAAAEAV?$_Deque_val@U?$_Deque_simple_types@VErrorInfo@Reader@Json@@@std@@@2@XZ ; std::_Deque_alloc<std::_Deque_base_types<Json::Reader::ErrorInfo,std::allocator<Json::Reader::ErrorInfo> > >::_Get_data
PUBLIC	?deallocate@?$_Wrap_alloc@V?$allocator@VErrorInfo@Reader@Json@@@std@@@std@@QEAAXPEAVErrorInfo@Reader@Json@@_K@Z ; std::_Wrap_alloc<std::allocator<Json::Reader::ErrorInfo> >::deallocate
PUBLIC	?allocate@?$_Wrap_alloc@V?$allocator@PEAVErrorInfo@Reader@Json@@@std@@@std@@QEAAPEAPEAVErrorInfo@Reader@Json@@_K@Z ; std::_Wrap_alloc<std::allocator<Json::Reader::ErrorInfo * __ptr64> >::allocate
PUBLIC	?deallocate@?$_Wrap_alloc@V?$allocator@PEAVErrorInfo@Reader@Json@@@std@@@std@@QEAAXPEAPEAVErrorInfo@Reader@Json@@_K@Z ; std::_Wrap_alloc<std::allocator<Json::Reader::ErrorInfo * __ptr64> >::deallocate
PUBLIC	?_Get_first@?$_Compressed_pair@U?$_Wrap_alloc@V?$allocator@VErrorInfo@Reader@Json@@@std@@@std@@V?$_Deque_val@U?$_Deque_simple_types@VErrorInfo@Reader@Json@@@std@@@2@$00@std@@QEAAAEAU?$_Wrap_alloc@V?$allocator@VErrorInfo@Reader@Json@@@std@@@2@XZ ; std::_Compressed_pair<std::_Wrap_alloc<std::allocator<Json::Reader::ErrorInfo> >,std::_Deque_val<std::_Deque_simple_types<Json::Reader::ErrorInfo> >,1>::_Get_first
PUBLIC	?_Get_second@?$_Compressed_pair@U?$_Wrap_alloc@V?$allocator@VErrorInfo@Reader@Json@@@std@@@std@@V?$_Deque_val@U?$_Deque_simple_types@VErrorInfo@Reader@Json@@@std@@@2@$00@std@@QEBAAEBV?$_Deque_val@U?$_Deque_simple_types@VErrorInfo@Reader@Json@@@std@@@2@XZ ; std::_Compressed_pair<std::_Wrap_alloc<std::allocator<Json::Reader::ErrorInfo> >,std::_Deque_val<std::_Deque_simple_types<Json::Reader::ErrorInfo> >,1>::_Get_second
PUBLIC	??1?$_Deque_const_iterator@V?$_Deque_val@U?$_Deque_simple_types@PEAVValue@Json@@@std@@@std@@@std@@QEAA@XZ ; std::_Deque_const_iterator<std::_Deque_val<std::_Deque_simple_types<Json::Value * __ptr64> > >::~_Deque_const_iterator<std::_Deque_val<std::_Deque_simple_types<Json::Value * __ptr64> > >
PUBLIC	??1?$_Deque_val@U?$_Deque_simple_types@PEAVValue@Json@@@std@@@std@@QEAA@XZ ; std::_Deque_val<std::_Deque_simple_types<Json::Value * __ptr64> >::~_Deque_val<std::_Deque_simple_types<Json::Value * __ptr64> >
PUBLIC	??1?$_Deque_val@U?$_Deque_simple_types@VErrorInfo@Reader@Json@@@std@@@std@@QEAA@XZ ; std::_Deque_val<std::_Deque_simple_types<Json::Reader::ErrorInfo> >::~_Deque_val<std::_Deque_simple_types<Json::Reader::ErrorInfo> >
PUBLIC	??1?$_Deque_iterator@V?$_Deque_val@U?$_Deque_simple_types@PEAVValue@Json@@@std@@@std@@@std@@QEAA@XZ ; std::_Deque_iterator<std::_Deque_val<std::_Deque_simple_types<Json::Value * __ptr64> > >::~_Deque_iterator<std::_Deque_val<std::_Deque_simple_types<Json::Value * __ptr64> > >
PUBLIC	??1?$_Compressed_pair@U?$_Wrap_alloc@V?$allocator@PEAVValue@Json@@@std@@@std@@V?$_Deque_val@U?$_Deque_simple_types@PEAVValue@Json@@@std@@@2@$00@std@@QEAA@XZ ; std::_Compressed_pair<std::_Wrap_alloc<std::allocator<Json::Value * __ptr64> >,std::_Deque_val<std::_Deque_simple_types<Json::Value * __ptr64> >,1>::~_Compressed_pair<std::_Wrap_alloc<std::allocator<Json::Value * __ptr64> >,std::_Deque_val<std::_Deque_simple_types<Json::Value * __ptr64> >,1>
PUBLIC	??1?$_Compressed_pair@U?$_Wrap_alloc@V?$allocator@VErrorInfo@Reader@Json@@@std@@@std@@V?$_Deque_val@U?$_Deque_simple_types@VErrorInfo@Reader@Json@@@std@@@2@$00@std@@QEAA@XZ ; std::_Compressed_pair<std::_Wrap_alloc<std::allocator<Json::Reader::ErrorInfo> >,std::_Deque_val<std::_Deque_simple_types<Json::Reader::ErrorInfo> >,1>::~_Compressed_pair<std::_Wrap_alloc<std::allocator<Json::Reader::ErrorInfo> >,std::_Deque_val<std::_Deque_simple_types<Json::Reader::ErrorInfo> >,1>
PUBLIC	??0?$fpos@U_Mbstatet@@@std@@QEAA@_J@Z		; std::fpos<_Mbstatet>::fpos<_Mbstatet>
PUBLIC	??B?$fpos@U_Mbstatet@@@std@@QEBA_JXZ		; std::fpos<_Mbstatet>::operator __int64
PUBLIC	??0?$basic_stringbuf@DU?$char_traits@D@std@@V?$allocator@D@2@@std@@QEAA@H@Z ; std::basic_stringbuf<char,std::char_traits<char>,std::allocator<char> >::basic_stringbuf<char,std::char_traits<char>,std::allocator<char> >
PUBLIC	?str@?$basic_stringbuf@DU?$char_traits@D@std@@V?$allocator@D@2@@std@@QEBA?AV?$basic_string@DU?$char_traits@D@std@@V?$allocator@D@2@@2@XZ ; std::basic_stringbuf<char,std::char_traits<char>,std::allocator<char> >::str
PUBLIC	?_Tidy@?$basic_stringbuf@DU?$char_traits@D@std@@V?$allocator@D@2@@std@@IEAAXXZ ; std::basic_stringbuf<char,std::char_traits<char>,std::allocator<char> >::_Tidy
PUBLIC	??0sentry@?$basic_ostream@DU?$char_traits@D@std@@@std@@QEAA@AEAV12@@Z ; std::basic_ostream<char,std::char_traits<char> >::sentry::sentry
PUBLIC	??1sentry@?$basic_ostream@DU?$char_traits@D@std@@@std@@QEAA@XZ ; std::basic_ostream<char,std::char_traits<char> >::sentry::~sentry
PUBLIC	??Bsentry@?$basic_ostream@DU?$char_traits@D@std@@@std@@QEBA_NXZ ; std::basic_ostream<char,std::char_traits<char> >::sentry::operator bool
PUBLIC	?_Assign_rv@?$vector@V?$basic_string@DU?$char_traits@D@std@@V?$allocator@D@2@@std@@V?$allocator@V?$basic_string@DU?$char_traits@D@std@@V?$allocator@D@2@@std@@@2@@std@@QEAAX$$QEAV12@U?$integral_constant@_N$00@2@@Z ; std::vector<std::basic_string<char,std::char_traits<char>,std::allocator<char> >,std::allocator<std::basic_string<char,std::char_traits<char>,std::allocator<char> > > >::_Assign_rv
PUBLIC	??R?$less@VCZString@Value@Json@@@std@@QEBA_NAEBVCZString@Value@Json@@0@Z ; std::less<Json::Value::CZString>::operator()
PUBLIC	??0?$allocator@U?$pair@$$CBVCZString@Value@Json@@V23@@std@@@std@@QEAA@XZ ; std::allocator<std::pair<Json::Value::CZString const ,Json::Value> >::allocator<std::pair<Json::Value::CZString const ,Json::Value> >
PUBLIC	??0?$_Tree@V?$_Tmap_traits@VCZString@Value@Json@@V23@U?$less@VCZString@Value@Json@@@std@@V?$allocator@U?$pair@$$CBVCZString@Value@Json@@V23@@std@@@5@$0A@@std@@@std@@QEAA@AEBU?$less@VCZString@Value@Json@@@1@AEBV?$allocator@U?$pair@$$CBVCZString@Value@Json@@V23@@std@@@1@@Z ; std::_Tree<std::_Tmap_traits<Json::Value::CZString,Json::Value,std::less<Json::Value::CZString>,std::allocator<std::pair<Json::Value::CZString const ,Json::Value> >,0> >::_Tree<std::_Tmap_traits<Json::Value::CZString,Json::Value,std::less<Json::Value::CZString>,std::allocator<std::pair<Json::Value::CZString const ,Json::Value> >,0> >
PUBLIC	??0?$_Tree@V?$_Tmap_traits@VCZString@Value@Json@@V23@U?$less@VCZString@Value@Json@@@std@@V?$allocator@U?$pair@$$CBVCZString@Value@Json@@V23@@std@@@5@$0A@@std@@@std@@QEAA@AEBV01@AEBV?$allocator@U?$pair@$$CBVCZString@Value@Json@@V23@@std@@@1@@Z ; std::_Tree<std::_Tmap_traits<Json::Value::CZString,Json::Value,std::less<Json::Value::CZString>,std::allocator<std::pair<Json::Value::CZString const ,Json::Value> >,0> >::_Tree<std::_Tmap_traits<Json::Value::CZString,Json::Value,std::less<Json::Value::CZString>,std::allocator<std::pair<Json::Value::CZString const ,Json::Value> >,0> >
PUBLIC	?erase@?$_Tree@V?$_Tmap_traits@VCZString@Value@Json@@V23@U?$less@VCZString@Value@Json@@@std@@V?$allocator@U?$pair@$$CBVCZString@Value@Json@@V23@@std@@@5@$0A@@std@@@std@@QEAA?AV?$_Tree_iterator@V?$_Tree_val@U?$_Tree_simple_types@U?$pair@$$CBVCZString@Value@Json@@V23@@std@@@std@@@std@@@2@V?$_Tree_const_iterator@V?$_Tree_val@U?$_Tree_simple_types@U?$pair@$$CBVCZString@Value@Json@@V23@@std@@@std@@@std@@@2@0@Z ; std::_Tree<std::_Tmap_traits<Json::Value::CZString,Json::Value,std::less<Json::Value::CZString>,std::allocator<std::pair<Json::Value::CZString const ,Json::Value> >,0> >::erase
PUBLIC	?_Erase@?$_Tree@V?$_Tmap_traits@VCZString@Value@Json@@V23@U?$less@VCZString@Value@Json@@@std@@V?$allocator@U?$pair@$$CBVCZString@Value@Json@@V23@@std@@@5@$0A@@std@@@std@@IEAAXPEAU?$_Tree_node@U?$pair@$$CBVCZString@Value@Json@@V23@@std@@PEAX@2@@Z ; std::_Tree<std::_Tmap_traits<Json::Value::CZString,Json::Value,std::less<Json::Value::CZString>,std::allocator<std::pair<Json::Value::CZString const ,Json::Value> >,0> >::_Erase
PUBLIC	?_Lmost@?$_Tree@V?$_Tmap_traits@VCZString@Value@Json@@V23@U?$less@VCZString@Value@Json@@@std@@V?$allocator@U?$pair@$$CBVCZString@Value@Json@@V23@@std@@@5@$0A@@std@@@std@@IEBAAEAPEAU?$_Tree_node@U?$pair@$$CBVCZString@Value@Json@@V23@@std@@PEAX@2@XZ ; std::_Tree<std::_Tmap_traits<Json::Value::CZString,Json::Value,std::less<Json::Value::CZString>,std::allocator<std::pair<Json::Value::CZString const ,Json::Value> >,0> >::_Lmost
PUBLIC	?_Lrotate@?$_Tree@V?$_Tmap_traits@VCZString@Value@Json@@V23@U?$less@VCZString@Value@Json@@@std@@V?$allocator@U?$pair@$$CBVCZString@Value@Json@@V23@@std@@@5@$0A@@std@@@std@@IEAAXPEAU?$_Tree_node@U?$pair@$$CBVCZString@Value@Json@@V23@@std@@PEAX@2@@Z ; std::_Tree<std::_Tmap_traits<Json::Value::CZString,Json::Value,std::less<Json::Value::CZString>,std::allocator<std::pair<Json::Value::CZString const ,Json::Value> >,0> >::_Lrotate
PUBLIC	?_Rmost@?$_Tree@V?$_Tmap_traits@VCZString@Value@Json@@V23@U?$less@VCZString@Value@Json@@@std@@V?$allocator@U?$pair@$$CBVCZString@Value@Json@@V23@@std@@@5@$0A@@std@@@std@@IEBAAEAPEAU?$_Tree_node@U?$pair@$$CBVCZString@Value@Json@@V23@@std@@PEAX@2@XZ ; std::_Tree<std::_Tmap_traits<Json::Value::CZString,Json::Value,std::less<Json::Value::CZString>,std::allocator<std::pair<Json::Value::CZString const ,Json::Value> >,0> >::_Rmost
PUBLIC	?_Root@?$_Tree@V?$_Tmap_traits@VCZString@Value@Json@@V23@U?$less@VCZString@Value@Json@@@std@@V?$allocator@U?$pair@$$CBVCZString@Value@Json@@V23@@std@@@5@$0A@@std@@@std@@IEBAAEAPEAU?$_Tree_node@U?$pair@$$CBVCZString@Value@Json@@V23@@std@@PEAX@2@XZ ; std::_Tree<std::_Tmap_traits<Json::Value::CZString,Json::Value,std::less<Json::Value::CZString>,std::allocator<std::pair<Json::Value::CZString const ,Json::Value> >,0> >::_Root
PUBLIC	?_Rrotate@?$_Tree@V?$_Tmap_traits@VCZString@Value@Json@@V23@U?$less@VCZString@Value@Json@@@std@@V?$allocator@U?$pair@$$CBVCZString@Value@Json@@V23@@std@@@5@$0A@@std@@@std@@IEAAXPEAU?$_Tree_node@U?$pair@$$CBVCZString@Value@Json@@V23@@std@@PEAX@2@@Z ; std::_Tree<std::_Tmap_traits<Json::Value::CZString,Json::Value,std::less<Json::Value::CZString>,std::allocator<std::pair<Json::Value::CZString const ,Json::Value> >,0> >::_Rrotate
PUBLIC	?_Tidy@?$_Tree@V?$_Tmap_traits@VCZString@Value@Json@@V23@U?$less@VCZString@Value@Json@@@std@@V?$allocator@U?$pair@$$CBVCZString@Value@Json@@V23@@std@@@5@$0A@@std@@@std@@IEAAXXZ ; std::_Tree<std::_Tmap_traits<Json::Value::CZString,Json::Value,std::less<Json::Value::CZString>,std::allocator<std::pair<Json::Value::CZString const ,Json::Value> >,0> >::_Tidy
PUBLIC	?_Key@?$_Tree@V?$_Tmap_traits@VCZString@Value@Json@@V23@U?$less@VCZString@Value@Json@@@std@@V?$allocator@U?$pair@$$CBVCZString@Value@Json@@V23@@std@@@5@$0A@@std@@@std@@IEBAAEBVCZString@Value@Json@@PEAU?$_Tree_node@U?$pair@$$CBVCZString@Value@Json@@V23@@std@@PEAX@2@@Z ; std::_Tree<std::_Tmap_traits<Json::Value::CZString,Json::Value,std::less<Json::Value::CZString>,std::allocator<std::pair<Json::Value::CZString const ,Json::Value> >,0> >::_Key
PUBLIC	?_Color@?$_Tree_comp_alloc@V?$_Tmap_traits@VCZString@Value@Json@@V23@U?$less@VCZString@Value@Json@@@std@@V?$allocator@U?$pair@$$CBVCZString@Value@Json@@V23@@std@@@5@$0A@@std@@@std@@SAAEADPEAU?$_Tree_node@U?$pair@$$CBVCZString@Value@Json@@V23@@std@@PEAX@2@@Z ; std::_Tree_comp_alloc<std::_Tmap_traits<Json::Value::CZString,Json::Value,std::less<Json::Value::CZString>,std::allocator<std::pair<Json::Value::CZString const ,Json::Value> >,0> >::_Color
PUBLIC	?_Isnil@?$_Tree_comp_alloc@V?$_Tmap_traits@VCZString@Value@Json@@V23@U?$less@VCZString@Value@Json@@@std@@V?$allocator@U?$pair@$$CBVCZString@Value@Json@@V23@@std@@@5@$0A@@std@@@std@@SAAEADPEAU?$_Tree_node@U?$pair@$$CBVCZString@Value@Json@@V23@@std@@PEAX@2@@Z ; std::_Tree_comp_alloc<std::_Tmap_traits<Json::Value::CZString,Json::Value,std::less<Json::Value::CZString>,std::allocator<std::pair<Json::Value::CZString const ,Json::Value> >,0> >::_Isnil
PUBLIC	?_Left@?$_Tree_comp_alloc@V?$_Tmap_traits@VCZString@Value@Json@@V23@U?$less@VCZString@Value@Json@@@std@@V?$allocator@U?$pair@$$CBVCZString@Value@Json@@V23@@std@@@5@$0A@@std@@@std@@SAAEAPEAU?$_Tree_node@U?$pair@$$CBVCZString@Value@Json@@V23@@std@@PEAX@2@PEAU32@@Z ; std::_Tree_comp_alloc<std::_Tmap_traits<Json::Value::CZString,Json::Value,std::less<Json::Value::CZString>,std::allocator<std::pair<Json::Value::CZString const ,Json::Value> >,0> >::_Left
PUBLIC	?_Parent@?$_Tree_comp_alloc@V?$_Tmap_traits@VCZString@Value@Json@@V23@U?$less@VCZString@Value@Json@@@std@@V?$allocator@U?$pair@$$CBVCZString@Value@Json@@V23@@std@@@5@$0A@@std@@@std@@SAAEAPEAU?$_Tree_node@U?$pair@$$CBVCZString@Value@Json@@V23@@std@@PEAX@2@PEAU32@@Z ; std::_Tree_comp_alloc<std::_Tmap_traits<Json::Value::CZString,Json::Value,std::less<Json::Value::CZString>,std::allocator<std::pair<Json::Value::CZString const ,Json::Value> >,0> >::_Parent
PUBLIC	?_Right@?$_Tree_comp_alloc@V?$_Tmap_traits@VCZString@Value@Json@@V23@U?$less@VCZString@Value@Json@@@std@@V?$allocator@U?$pair@$$CBVCZString@Value@Json@@V23@@std@@@5@$0A@@std@@@std@@SAAEAPEAU?$_Tree_node@U?$pair@$$CBVCZString@Value@Json@@V23@@std@@PEAX@2@PEAU32@@Z ; std::_Tree_comp_alloc<std::_Tmap_traits<Json::Value::CZString,Json::Value,std::less<Json::Value::CZString>,std::allocator<std::pair<Json::Value::CZString const ,Json::Value> >,0> >::_Right
PUBLIC	?_Myval@?$_Tree_comp_alloc@V?$_Tmap_traits@VCZString@Value@Json@@V23@U?$less@VCZString@Value@Json@@@std@@V?$allocator@U?$pair@$$CBVCZString@Value@Json@@V23@@std@@@5@$0A@@std@@@std@@SAAEAU?$pair@$$CBVCZString@Value@Json@@V23@@2@PEAU?$_Tree_node@U?$pair@$$CBVCZString@Value@Json@@V23@@std@@PEAX@2@@Z ; std::_Tree_comp_alloc<std::_Tmap_traits<Json::Value::CZString,Json::Value,std::less<Json::Value::CZString>,std::allocator<std::pair<Json::Value::CZString const ,Json::Value> >,0> >::_Myval
PUBLIC	?_Max@?$_Tree_comp_alloc@V?$_Tmap_traits@VCZString@Value@Json@@V23@U?$less@VCZString@Value@Json@@@std@@V?$allocator@U?$pair@$$CBVCZString@Value@Json@@V23@@std@@@5@$0A@@std@@@std@@SAPEAU?$_Tree_node@U?$pair@$$CBVCZString@Value@Json@@V23@@std@@PEAX@2@PEAU32@@Z ; std::_Tree_comp_alloc<std::_Tmap_traits<Json::Value::CZString,Json::Value,std::less<Json::Value::CZString>,std::allocator<std::pair<Json::Value::CZString const ,Json::Value> >,0> >::_Max
PUBLIC	?_Min@?$_Tree_comp_alloc@V?$_Tmap_traits@VCZString@Value@Json@@V23@U?$less@VCZString@Value@Json@@@std@@V?$allocator@U?$pair@$$CBVCZString@Value@Json@@V23@@std@@@5@$0A@@std@@@std@@SAPEAU?$_Tree_node@U?$pair@$$CBVCZString@Value@Json@@V23@@std@@PEAX@2@PEAU32@@Z ; std::_Tree_comp_alloc<std::_Tmap_traits<Json::Value::CZString,Json::Value,std::less<Json::Value::CZString>,std::allocator<std::pair<Json::Value::CZString const ,Json::Value> >,0> >::_Min
PUBLIC	??1?$_Tree_comp_alloc@V?$_Tmap_traits@VCZString@Value@Json@@V23@U?$less@VCZString@Value@Json@@@std@@V?$allocator@U?$pair@$$CBVCZString@Value@Json@@V23@@std@@@5@$0A@@std@@@std@@QEAA@XZ ; std::_Tree_comp_alloc<std::_Tmap_traits<Json::Value::CZString,Json::Value,std::less<Json::Value::CZString>,std::allocator<std::pair<Json::Value::CZString const ,Json::Value> >,0> >::~_Tree_comp_alloc<std::_Tmap_traits<Json::Value::CZString,Json::Value,std::less<Json::Value::CZString>,std::allocator<std::pair<Json::Value::CZString const ,Json::Value> >,0> >
PUBLIC	?_Getcomp@?$_Tree_comp_alloc@V?$_Tmap_traits@VCZString@Value@Json@@V23@U?$less@VCZString@Value@Json@@@std@@V?$allocator@U?$pair@$$CBVCZString@Value@Json@@V23@@std@@@5@$0A@@std@@@std@@QEAAAEAU?$less@VCZString@Value@Json@@@2@XZ ; std::_Tree_comp_alloc<std::_Tmap_traits<Json::Value::CZString,Json::Value,std::less<Json::Value::CZString>,std::allocator<std::pair<Json::Value::CZString const ,Json::Value> >,0> >::_Getcomp
PUBLIC	?_Getal@?$_Tree_comp_alloc@V?$_Tmap_traits@VCZString@Value@Json@@V23@U?$less@VCZString@Value@Json@@@std@@V?$allocator@U?$pair@$$CBVCZString@Value@Json@@V23@@std@@@5@$0A@@std@@@std@@QEAAAEAU?$_Wrap_alloc@V?$allocator@U?$_Tree_node@U?$pair@$$CBVCZString@Value@Json@@V23@@std@@PEAX@std@@@std@@@2@XZ ; std::_Tree_comp_alloc<std::_Tmap_traits<Json::Value::CZString,Json::Value,std::less<Json::Value::CZString>,std::allocator<std::pair<Json::Value::CZString const ,Json::Value> >,0> >::_Getal
PUBLIC	?_Getal@?$_Tree_comp_alloc@V?$_Tmap_traits@VCZString@Value@Json@@V23@U?$less@VCZString@Value@Json@@@std@@V?$allocator@U?$pair@$$CBVCZString@Value@Json@@V23@@std@@@5@$0A@@std@@@std@@QEBAAEBU?$_Wrap_alloc@V?$allocator@U?$_Tree_node@U?$pair@$$CBVCZString@Value@Json@@V23@@std@@PEAX@std@@@std@@@2@XZ ; std::_Tree_comp_alloc<std::_Tmap_traits<Json::Value::CZString,Json::Value,std::less<Json::Value::CZString>,std::allocator<std::pair<Json::Value::CZString const ,Json::Value> >,0> >::_Getal
PUBLIC	?_Get_data@?$_Tree_comp_alloc@V?$_Tmap_traits@VCZString@Value@Json@@V23@U?$less@VCZString@Value@Json@@@std@@V?$allocator@U?$pair@$$CBVCZString@Value@Json@@V23@@std@@@5@$0A@@std@@@std@@QEAAAEAV?$_Tree_val@U?$_Tree_simple_types@U?$pair@$$CBVCZString@Value@Json@@V23@@std@@@std@@@2@XZ ; std::_Tree_comp_alloc<std::_Tmap_traits<Json::Value::CZString,Json::Value,std::less<Json::Value::CZString>,std::allocator<std::pair<Json::Value::CZString const ,Json::Value> >,0> >::_Get_data
PUBLIC	?_Myhead@?$_Tree_comp_alloc@V?$_Tmap_traits@VCZString@Value@Json@@V23@U?$less@VCZString@Value@Json@@@std@@V?$allocator@U?$pair@$$CBVCZString@Value@Json@@V23@@std@@@5@$0A@@std@@@std@@QEAAAEAPEAU?$_Tree_node@U?$pair@$$CBVCZString@Value@Json@@V23@@std@@PEAX@2@XZ ; std::_Tree_comp_alloc<std::_Tmap_traits<Json::Value::CZString,Json::Value,std::less<Json::Value::CZString>,std::allocator<std::pair<Json::Value::CZString const ,Json::Value> >,0> >::_Myhead
PUBLIC	?_Mysize@?$_Tree_comp_alloc@V?$_Tmap_traits@VCZString@Value@Json@@V23@U?$less@VCZString@Value@Json@@@std@@V?$allocator@U?$pair@$$CBVCZString@Value@Json@@V23@@std@@@5@$0A@@std@@@std@@QEAAAEA_KXZ ; std::_Tree_comp_alloc<std::_Tmap_traits<Json::Value::CZString,Json::Value,std::less<Json::Value::CZString>,std::allocator<std::pair<Json::Value::CZString const ,Json::Value> >,0> >::_Mysize
PUBLIC	?_Mysize@?$_Tree_comp_alloc@V?$_Tmap_traits@VCZString@Value@Json@@V23@U?$less@VCZString@Value@Json@@@std@@V?$allocator@U?$pair@$$CBVCZString@Value@Json@@V23@@std@@@5@$0A@@std@@@std@@QEBAAEB_KXZ ; std::_Tree_comp_alloc<std::_Tmap_traits<Json::Value::CZString,Json::Value,std::less<Json::Value::CZString>,std::allocator<std::pair<Json::Value::CZString const ,Json::Value> >,0> >::_Mysize
PUBLIC	?select_on_container_copy_construction@?$_Wrap_alloc@V?$allocator@U?$_Tree_node@U?$pair@$$CBVCZString@Value@Json@@V23@@std@@PEAX@std@@@std@@@std@@QEBA?AU12@U_Nil@2@@Z ; std::_Wrap_alloc<std::allocator<std::_Tree_node<std::pair<Json::Value::CZString const ,Json::Value>,void * __ptr64> > >::select_on_container_copy_construction
PUBLIC	?deallocate@?$_Wrap_alloc@V?$allocator@U?$_Tree_node@U?$pair@$$CBVCZString@Value@Json@@V23@@std@@PEAX@std@@@std@@@std@@QEAAXPEAU?$_Tree_node@U?$pair@$$CBVCZString@Value@Json@@V23@@std@@PEAX@2@_K@Z ; std::_Wrap_alloc<std::allocator<std::_Tree_node<std::pair<Json::Value::CZString const ,Json::Value>,void * __ptr64> > >::deallocate
PUBLIC	?_Myval@?$_Tree_val@U?$_Tree_simple_types@U?$pair@$$CBVCZString@Value@Json@@V23@@std@@@std@@@std@@SAAEAU?$pair@$$CBVCZString@Value@Json@@V23@@2@PEAU?$_Tree_node@U?$pair@$$CBVCZString@Value@Json@@V23@@std@@PEAX@2@@Z ; std::_Tree_val<std::_Tree_simple_types<std::pair<Json::Value::CZString const ,Json::Value> > >::_Myval
PUBLIC	??0?$_Tree_const_iterator@V?$_Tree_val@U?$_Tree_simple_types@U?$pair@$$CBVCZString@Value@Json@@V23@@std@@@std@@@std@@@std@@QEAA@XZ ; std::_Tree_const_iterator<std::_Tree_val<std::_Tree_simple_types<std::pair<Json::Value::CZString const ,Json::Value> > > >::_Tree_const_iterator<std::_Tree_val<std::_Tree_simple_types<std::pair<Json::Value::CZString const ,Json::Value> > > >
PUBLIC	??0?$_Tree_iterator@V?$_Tree_val@U?$_Tree_simple_types@U?$pair@$$CBVCZString@Value@Json@@V23@@std@@@std@@@std@@@std@@QEAA@PEAU?$_Tree_node@U?$pair@$$CBVCZString@Value@Json@@V23@@std@@PEAX@1@PEBV?$_Tree_val@U?$_Tree_simple_types@U?$pair@$$CBVCZString@Value@Json@@V23@@std@@@std@@@1@@Z ; std::_Tree_iterator<std::_Tree_val<std::_Tree_simple_types<std::pair<Json::Value::CZString const ,Json::Value> > > >::_Tree_iterator<std::_Tree_val<std::_Tree_simple_types<std::pair<Json::Value::CZString const ,Json::Value> > > >
PUBLIC	??E?$_Tree_unchecked_const_iterator@V?$_Tree_val@U?$_Tree_simple_types@U?$pair@$$CBVCZString@Value@Json@@V23@@std@@@std@@@std@@U_Iterator_base0@2@@std@@QEAAAEAV01@XZ ; std::_Tree_unchecked_const_iterator<std::_Tree_val<std::_Tree_simple_types<std::pair<Json::Value::CZString const ,Json::Value> > >,std::_Iterator_base0>::operator++
PUBLIC	??F?$_Tree_unchecked_const_iterator@V?$_Tree_val@U?$_Tree_simple_types@U?$pair@$$CBVCZString@Value@Json@@V23@@std@@@std@@@std@@U_Iterator_base0@2@@std@@QEAAAEAV01@XZ ; std::_Tree_unchecked_const_iterator<std::_Tree_val<std::_Tree_simple_types<std::pair<Json::Value::CZString const ,Json::Value> > >,std::_Iterator_base0>::operator--
PUBLIC	?_Mynode@?$_Tree_unchecked_const_iterator@V?$_Tree_val@U?$_Tree_simple_types@U?$pair@$$CBVCZString@Value@Json@@V23@@std@@@std@@@std@@U_Iterator_base0@2@@std@@QEBAPEAU?$_Tree_node@U?$pair@$$CBVCZString@Value@Json@@V23@@std@@PEAX@2@XZ ; std::_Tree_unchecked_const_iterator<std::_Tree_val<std::_Tree_simple_types<std::pair<Json::Value::CZString const ,Json::Value> > >,std::_Iterator_base0>::_Mynode
PUBLIC	??0?$_Vector_alloc@U?$_Vec_base_types@V?$basic_string@DU?$char_traits@D@std@@V?$allocator@D@2@@std@@V?$allocator@V?$basic_string@DU?$char_traits@D@std@@V?$allocator@D@2@@std@@@2@@std@@@std@@QEAA@$$QEAV?$allocator@V?$basic_string@DU?$char_traits@D@std@@V?$allocator@D@2@@std@@@1@@Z ; std::_Vector_alloc<std::_Vec_base_types<std::basic_string<char,std::char_traits<char>,std::allocator<char> >,std::allocator<std::basic_string<char,std::char_traits<char>,std::allocator<char> > > > >::_Vector_alloc<std::_Vec_base_types<std::basic_string<char,std::char_traits<char>,std::allocator<char> >,std::allocator<std::basic_string<char,std::char_traits<char>,std::allocator<char> > > > >
PUBLIC	??0?$_Vector_iterator@V?$_Vector_val@U?$_Simple_types@V?$basic_string@DU?$char_traits@D@std@@V?$allocator@D@2@@std@@@std@@@std@@@std@@QEAA@PEAV?$basic_string@DU?$char_traits@D@std@@V?$allocator@D@2@@1@PEBU_Container_base0@1@@Z ; std::_Vector_iterator<std::_Vector_val<std::_Simple_types<std::basic_string<char,std::char_traits<char>,std::allocator<char> > > > >::_Vector_iterator<std::_Vector_val<std::_Simple_types<std::basic_string<char,std::char_traits<char>,std::allocator<char> > > > >
PUBLIC	??D?$_Vector_const_iterator@V?$_Vector_val@U?$_Simple_types@V?$basic_string@DU?$char_traits@D@std@@V?$allocator@D@2@@std@@@std@@@std@@@std@@QEBAAEBV?$basic_string@DU?$char_traits@D@std@@V?$allocator@D@2@@1@XZ ; std::_Vector_const_iterator<std::_Vector_val<std::_Simple_types<std::basic_string<char,std::char_traits<char>,std::allocator<char> > > > >::operator*
PUBLIC	??E?$_Vector_const_iterator@V?$_Vector_val@U?$_Simple_types@V?$basic_string@DU?$char_traits@D@std@@V?$allocator@D@2@@std@@@std@@@std@@@std@@QEAAAEAV01@XZ ; std::_Vector_const_iterator<std::_Vector_val<std::_Simple_types<std::basic_string<char,std::char_traits<char>,std::allocator<char> > > > >::operator++
PUBLIC	?_Compat@?$_Vector_const_iterator@V?$_Vector_val@U?$_Simple_types@V?$basic_string@DU?$char_traits@D@std@@V?$allocator@D@2@@std@@@std@@@std@@@std@@QEBAXAEBV12@@Z ; std::_Vector_const_iterator<std::_Vector_val<std::_Simple_types<std::basic_string<char,std::char_traits<char>,std::allocator<char> > > > >::_Compat
PUBLIC	??0?$allocator@VErrorInfo@Reader@Json@@@std@@QEAA@XZ ; std::allocator<Json::Reader::ErrorInfo>::allocator<Json::Reader::ErrorInfo>
PUBLIC	?pop_back@?$deque@VErrorInfo@Reader@Json@@V?$allocator@VErrorInfo@Reader@Json@@@std@@@std@@QEAAXXZ ; std::deque<Json::Reader::ErrorInfo,std::allocator<Json::Reader::ErrorInfo> >::pop_back
PUBLIC	?_Growmap@?$deque@VErrorInfo@Reader@Json@@V?$allocator@VErrorInfo@Reader@Json@@@std@@@std@@IEAAX_K@Z ; std::deque<Json::Reader::ErrorInfo,std::allocator<Json::Reader::ErrorInfo> >::_Growmap
PUBLIC	?_Tidy@?$deque@VErrorInfo@Reader@Json@@V?$allocator@VErrorInfo@Reader@Json@@@std@@@std@@IEAAXXZ ; std::deque<Json::Reader::ErrorInfo,std::allocator<Json::Reader::ErrorInfo> >::_Tidy
PUBLIC	??0?$deque@PEAVValue@Json@@V?$allocator@PEAVValue@Json@@@std@@@std@@QEAA@XZ ; std::deque<Json::Value * __ptr64,std::allocator<Json::Value * __ptr64> >::deque<Json::Value * __ptr64,std::allocator<Json::Value * __ptr64> >
PUBLIC	?push_back@?$deque@PEAVValue@Json@@V?$allocator@PEAVValue@Json@@@std@@@std@@QEAAX$$QEAPEAVValue@Json@@@Z ; std::deque<Json::Value * __ptr64,std::allocator<Json::Value * __ptr64> >::push_back
PUBLIC	?empty@?$deque@PEAVValue@Json@@V?$allocator@PEAVValue@Json@@@std@@@std@@QEBA_NXZ ; std::deque<Json::Value * __ptr64,std::allocator<Json::Value * __ptr64> >::empty
PUBLIC	?back@?$deque@PEAVValue@Json@@V?$allocator@PEAVValue@Json@@@std@@@std@@QEAAAEAPEAVValue@Json@@XZ ; std::deque<Json::Value * __ptr64,std::allocator<Json::Value * __ptr64> >::back
PUBLIC	?pop_back@?$deque@PEAVValue@Json@@V?$allocator@PEAVValue@Json@@@std@@@std@@QEAAXXZ ; std::deque<Json::Value * __ptr64,std::allocator<Json::Value * __ptr64> >::pop_back
PUBLIC	?_Tidy@?$deque@PEAVValue@Json@@V?$allocator@PEAVValue@Json@@@std@@@std@@IEAAXXZ ; std::deque<Json::Value * __ptr64,std::allocator<Json::Value * __ptr64> >::_Tidy
PUBLIC	??1?$_Deque_alloc@U?$_Deque_base_types@PEAVValue@Json@@V?$allocator@PEAVValue@Json@@@std@@@std@@@std@@QEAA@XZ ; std::_Deque_alloc<std::_Deque_base_types<Json::Value * __ptr64,std::allocator<Json::Value * __ptr64> > >::~_Deque_alloc<std::_Deque_base_types<Json::Value * __ptr64,std::allocator<Json::Value * __ptr64> > >
PUBLIC	?_Getblock@?$_Deque_alloc@U?$_Deque_base_types@VErrorInfo@Reader@Json@@V?$allocator@VErrorInfo@Reader@Json@@@std@@@std@@@std@@QEBA_K_K@Z ; std::_Deque_alloc<std::_Deque_base_types<Json::Reader::ErrorInfo,std::allocator<Json::Reader::ErrorInfo> > >::_Getblock
PUBLIC	??0?$_Deque_alloc@U?$_Deque_base_types@VErrorInfo@Reader@Json@@V?$allocator@VErrorInfo@Reader@Json@@@std@@@std@@@std@@QEAA@AEBV?$allocator@VErrorInfo@Reader@Json@@@1@@Z ; std::_Deque_alloc<std::_Deque_base_types<Json::Reader::ErrorInfo,std::allocator<Json::Reader::ErrorInfo> > >::_Deque_alloc<std::_Deque_base_types<Json::Reader::ErrorInfo,std::allocator<Json::Reader::ErrorInfo> > >
PUBLIC	??1?$_Deque_alloc@U?$_Deque_base_types@VErrorInfo@Reader@Json@@V?$allocator@VErrorInfo@Reader@Json@@@std@@@std@@@std@@QEAA@XZ ; std::_Deque_alloc<std::_Deque_base_types<Json::Reader::ErrorInfo,std::allocator<Json::Reader::ErrorInfo> > >::~_Deque_alloc<std::_Deque_base_types<Json::Reader::ErrorInfo,std::allocator<Json::Reader::ErrorInfo> > >
PUBLIC	?_Orphan_all@?$_Deque_alloc@U?$_Deque_base_types@VErrorInfo@Reader@Json@@V?$allocator@VErrorInfo@Reader@Json@@@std@@@std@@@std@@QEAAXXZ ; std::_Deque_alloc<std::_Deque_base_types<Json::Reader::ErrorInfo,std::allocator<Json::Reader::ErrorInfo> > >::_Orphan_all
PUBLIC	?_Getal@?$_Deque_alloc@U?$_Deque_base_types@VErrorInfo@Reader@Json@@V?$allocator@VErrorInfo@Reader@Json@@@std@@@std@@@std@@QEAAAEAU?$_Wrap_alloc@V?$allocator@VErrorInfo@Reader@Json@@@std@@@2@XZ ; std::_Deque_alloc<std::_Deque_base_types<Json::Reader::ErrorInfo,std::allocator<Json::Reader::ErrorInfo> > >::_Getal
PUBLIC	?_Get_data@?$_Deque_alloc@U?$_Deque_base_types@VErrorInfo@Reader@Json@@V?$allocator@VErrorInfo@Reader@Json@@@std@@@std@@@std@@QEBAAEBV?$_Deque_val@U?$_Deque_simple_types@VErrorInfo@Reader@Json@@@std@@@2@XZ ; std::_Deque_alloc<std::_Deque_base_types<Json::Reader::ErrorInfo,std::allocator<Json::Reader::ErrorInfo> > >::_Get_data
PUBLIC	?_Map@?$_Deque_alloc@U?$_Deque_base_types@VErrorInfo@Reader@Json@@V?$allocator@VErrorInfo@Reader@Json@@@std@@@std@@@std@@QEAAAEAPEAPEAVErrorInfo@Reader@Json@@XZ ; std::_Deque_alloc<std::_Deque_base_types<Json::Reader::ErrorInfo,std::allocator<Json::Reader::ErrorInfo> > >::_Map
PUBLIC	?_Mapsize@?$_Deque_alloc@U?$_Deque_base_types@VErrorInfo@Reader@Json@@V?$allocator@VErrorInfo@Reader@Json@@@std@@@std@@@std@@QEAAAEA_KXZ ; std::_Deque_alloc<std::_Deque_base_types<Json::Reader::ErrorInfo,std::allocator<Json::Reader::ErrorInfo> > >::_Mapsize
PUBLIC	?_Myoff@?$_Deque_alloc@U?$_Deque_base_types@VErrorInfo@Reader@Json@@V?$allocator@VErrorInfo@Reader@Json@@@std@@@std@@@std@@QEAAAEA_KXZ ; std::_Deque_alloc<std::_Deque_base_types<Json::Reader::ErrorInfo,std::allocator<Json::Reader::ErrorInfo> > >::_Myoff
PUBLIC	?_Mysize@?$_Deque_alloc@U?$_Deque_base_types@VErrorInfo@Reader@Json@@V?$allocator@VErrorInfo@Reader@Json@@@std@@@std@@@std@@QEAAAEA_KXZ ; std::_Deque_alloc<std::_Deque_base_types<Json::Reader::ErrorInfo,std::allocator<Json::Reader::ErrorInfo> > >::_Mysize
PUBLIC	?_Mysize@?$_Deque_alloc@U?$_Deque_base_types@VErrorInfo@Reader@Json@@V?$allocator@VErrorInfo@Reader@Json@@@std@@@std@@@std@@QEBAAEB_KXZ ; std::_Deque_alloc<std::_Deque_base_types<Json::Reader::ErrorInfo,std::allocator<Json::Reader::ErrorInfo> > >::_Mysize
PUBLIC	?allocate@?$_Wrap_alloc@V?$allocator@VErrorInfo@Reader@Json@@@std@@@std@@QEAAPEAVErrorInfo@Reader@Json@@_K@Z ; std::_Wrap_alloc<std::allocator<Json::Reader::ErrorInfo> >::allocate
PUBLIC	?_Getblock@?$_Deque_val@U?$_Deque_simple_types@VErrorInfo@Reader@Json@@@std@@@std@@QEBA_K_K@Z ; std::_Deque_val<std::_Deque_simple_types<Json::Reader::ErrorInfo> >::_Getblock
PUBLIC	??_G?$basic_stringbuf@DU?$char_traits@D@std@@V?$allocator@D@2@@std@@UEAAPEAXI@Z ; std::basic_stringbuf<char,std::char_traits<char>,std::allocator<char> >::`scalar deleting destructor'
PUBLIC	??_G?$basic_ostringstream@DU?$char_traits@D@std@@V?$allocator@D@2@@std@@UEAAPEAXI@Z ; std::basic_ostringstream<char,std::char_traits<char>,std::allocator<char> >::`scalar deleting destructor'
PUBLIC	??1?$basic_stringbuf@DU?$char_traits@D@std@@V?$allocator@D@2@@std@@UEAA@XZ ; std::basic_stringbuf<char,std::char_traits<char>,std::allocator<char> >::~basic_stringbuf<char,std::char_traits<char>,std::allocator<char> >
PUBLIC	?overflow@?$basic_stringbuf@DU?$char_traits@D@std@@V?$allocator@D@2@@std@@MEAAHH@Z ; std::basic_stringbuf<char,std::char_traits<char>,std::allocator<char> >::overflow
PUBLIC	?pbackfail@?$basic_stringbuf@DU?$char_traits@D@std@@V?$allocator@D@2@@std@@MEAAHH@Z ; std::basic_stringbuf<char,std::char_traits<char>,std::allocator<char> >::pbackfail
PUBLIC	?underflow@?$basic_stringbuf@DU?$char_traits@D@std@@V?$allocator@D@2@@std@@MEAAHXZ ; std::basic_stringbuf<char,std::char_traits<char>,std::allocator<char> >::underflow
PUBLIC	?seekoff@?$basic_stringbuf@DU?$char_traits@D@std@@V?$allocator@D@2@@std@@MEAA?AV?$fpos@U_Mbstatet@@@2@_JHH@Z ; std::basic_stringbuf<char,std::char_traits<char>,std::allocator<char> >::seekoff
PUBLIC	?seekpos@?$basic_stringbuf@DU?$char_traits@D@std@@V?$allocator@D@2@@std@@MEAA?AV?$fpos@U_Mbstatet@@@2@V32@H@Z ; std::basic_stringbuf<char,std::char_traits<char>,std::allocator<char> >::seekpos
PUBLIC	??0?$basic_ostringstream@DU?$char_traits@D@std@@V?$allocator@D@2@@std@@QEAA@H@Z ; std::basic_ostringstream<char,std::char_traits<char>,std::allocator<char> >::basic_ostringstream<char,std::char_traits<char>,std::allocator<char> >
PUBLIC	??1?$basic_ostringstream@DU?$char_traits@D@std@@V?$allocator@D@2@@std@@UEAA@XZ ; std::basic_ostringstream<char,std::char_traits<char>,std::allocator<char> >::~basic_ostringstream<char,std::char_traits<char>,std::allocator<char> >
PUBLIC	?str@?$basic_ostringstream@DU?$char_traits@D@std@@V?$allocator@D@2@@std@@QEBA?AV?$basic_string@DU?$char_traits@D@std@@V?$allocator@D@2@@2@XZ ; std::basic_ostringstream<char,std::char_traits<char>,std::allocator<char> >::str
PUBLIC	??0?$vector@V?$basic_string@DU?$char_traits@D@std@@V?$allocator@D@2@@std@@V?$allocator@V?$basic_string@DU?$char_traits@D@std@@V?$allocator@D@2@@std@@@2@@std@@QEAA@$$QEAV01@@Z ; std::vector<std::basic_string<char,std::char_traits<char>,std::allocator<char> >,std::allocator<std::basic_string<char,std::char_traits<char>,std::allocator<char> > > >::vector<std::basic_string<char,std::char_traits<char>,std::allocator<char> >,std::allocator<std::basic_string<char,std::char_traits<char>,std::allocator<char> > > >
PUBLIC	?reserve@?$vector@V?$basic_string@DU?$char_traits@D@std@@V?$allocator@D@2@@std@@V?$allocator@V?$basic_string@DU?$char_traits@D@std@@V?$allocator@D@2@@std@@@2@@std@@QEAAX_K@Z ; std::vector<std::basic_string<char,std::char_traits<char>,std::allocator<char> >,std::allocator<std::basic_string<char,std::char_traits<char>,std::allocator<char> > > >::reserve
PUBLIC	?begin@?$vector@V?$basic_string@DU?$char_traits@D@std@@V?$allocator@D@2@@std@@V?$allocator@V?$basic_string@DU?$char_traits@D@std@@V?$allocator@D@2@@std@@@2@@std@@QEAA?AV?$_Vector_iterator@V?$_Vector_val@U?$_Simple_types@V?$basic_string@DU?$char_traits@D@std@@V?$allocator@D@2@@std@@@std@@@std@@@2@XZ ; std::vector<std::basic_string<char,std::char_traits<char>,std::allocator<char> >,std::allocator<std::basic_string<char,std::char_traits<char>,std::allocator<char> > > >::begin
PUBLIC	?end@?$vector@V?$basic_string@DU?$char_traits@D@std@@V?$allocator@D@2@@std@@V?$allocator@V?$basic_string@DU?$char_traits@D@std@@V?$allocator@D@2@@std@@@2@@std@@QEAA?AV?$_Vector_iterator@V?$_Vector_val@U?$_Simple_types@V?$basic_string@DU?$char_traits@D@std@@V?$allocator@D@2@@std@@@std@@@std@@@2@XZ ; std::vector<std::basic_string<char,std::char_traits<char>,std::allocator<char> >,std::allocator<std::basic_string<char,std::char_traits<char>,std::allocator<char> > > >::end
PUBLIC	?empty@?$vector@V?$basic_string@DU?$char_traits@D@std@@V?$allocator@D@2@@std@@V?$allocator@V?$basic_string@DU?$char_traits@D@std@@V?$allocator@D@2@@std@@@2@@std@@QEBA_NXZ ; std::vector<std::basic_string<char,std::char_traits<char>,std::allocator<char> >,std::allocator<std::basic_string<char,std::char_traits<char>,std::allocator<char> > > >::empty
PUBLIC	??A?$vector@V?$basic_string@DU?$char_traits@D@std@@V?$allocator@D@2@@std@@V?$allocator@V?$basic_string@DU?$char_traits@D@std@@V?$allocator@D@2@@std@@@2@@std@@QEAAAEAV?$basic_string@DU?$char_traits@D@std@@V?$allocator@D@2@@1@_K@Z ; std::vector<std::basic_string<char,std::char_traits<char>,std::allocator<char> >,std::allocator<std::basic_string<char,std::char_traits<char>,std::allocator<char> > > >::operator[]
PUBLIC	?clear@?$vector@V?$basic_string@DU?$char_traits@D@std@@V?$allocator@D@2@@std@@V?$allocator@V?$basic_string@DU?$char_traits@D@std@@V?$allocator@D@2@@std@@@2@@std@@QEAAXXZ ; std::vector<std::basic_string<char,std::char_traits<char>,std::allocator<char> >,std::allocator<std::basic_string<char,std::char_traits<char>,std::allocator<char> > > >::clear
PUBLIC	??0?$map@VCZString@Value@Json@@V23@U?$less@VCZString@Value@Json@@@std@@V?$allocator@U?$pair@$$CBVCZString@Value@Json@@V23@@std@@@5@@std@@QEAA@XZ ; std::map<Json::Value::CZString,Json::Value,std::less<Json::Value::CZString>,std::allocator<std::pair<Json::Value::CZString const ,Json::Value> > >::map<Json::Value::CZString,Json::Value,std::less<Json::Value::CZString>,std::allocator<std::pair<Json::Value::CZString const ,Json::Value> > >
PUBLIC	??0?$map@VCZString@Value@Json@@V23@U?$less@VCZString@Value@Json@@@std@@V?$allocator@U?$pair@$$CBVCZString@Value@Json@@V23@@std@@@5@@std@@QEAA@AEBV01@@Z ; std::map<Json::Value::CZString,Json::Value,std::less<Json::Value::CZString>,std::allocator<std::pair<Json::Value::CZString const ,Json::Value> > >::map<Json::Value::CZString,Json::Value,std::less<Json::Value::CZString>,std::allocator<std::pair<Json::Value::CZString const ,Json::Value> > >
PUBLIC	??1?$_Tree@V?$_Tmap_traits@VCZString@Value@Json@@V23@U?$less@VCZString@Value@Json@@@std@@V?$allocator@U?$pair@$$CBVCZString@Value@Json@@V23@@std@@@5@$0A@@std@@@std@@QEAA@XZ ; std::_Tree<std::_Tmap_traits<Json::Value::CZString,Json::Value,std::less<Json::Value::CZString>,std::allocator<std::pair<Json::Value::CZString const ,Json::Value> >,0> >::~_Tree<std::_Tmap_traits<Json::Value::CZString,Json::Value,std::less<Json::Value::CZString>,std::allocator<std::pair<Json::Value::CZString const ,Json::Value> >,0> >
PUBLIC	?begin@?$_Tree@V?$_Tmap_traits@VCZString@Value@Json@@V23@U?$less@VCZString@Value@Json@@@std@@V?$allocator@U?$pair@$$CBVCZString@Value@Json@@V23@@std@@@5@$0A@@std@@@std@@QEAA?AV?$_Tree_iterator@V?$_Tree_val@U?$_Tree_simple_types@U?$pair@$$CBVCZString@Value@Json@@V23@@std@@@std@@@std@@@2@XZ ; std::_Tree<std::_Tmap_traits<Json::Value::CZString,Json::Value,std::less<Json::Value::CZString>,std::allocator<std::pair<Json::Value::CZString const ,Json::Value> >,0> >::begin
PUBLIC	?end@?$_Tree@V?$_Tmap_traits@VCZString@Value@Json@@V23@U?$less@VCZString@Value@Json@@@std@@V?$allocator@U?$pair@$$CBVCZString@Value@Json@@V23@@std@@@5@$0A@@std@@@std@@QEAA?AV?$_Tree_iterator@V?$_Tree_val@U?$_Tree_simple_types@U?$pair@$$CBVCZString@Value@Json@@V23@@std@@@std@@@std@@@2@XZ ; std::_Tree<std::_Tmap_traits<Json::Value::CZString,Json::Value,std::less<Json::Value::CZString>,std::allocator<std::pair<Json::Value::CZString const ,Json::Value> >,0> >::end
PUBLIC	?size@?$_Tree@V?$_Tmap_traits@VCZString@Value@Json@@V23@U?$less@VCZString@Value@Json@@@std@@V?$allocator@U?$pair@$$CBVCZString@Value@Json@@V23@@std@@@5@$0A@@std@@@std@@QEBA_KXZ ; std::_Tree<std::_Tmap_traits<Json::Value::CZString,Json::Value,std::less<Json::Value::CZString>,std::allocator<std::pair<Json::Value::CZString const ,Json::Value> >,0> >::size
PUBLIC	?empty@?$_Tree@V?$_Tmap_traits@VCZString@Value@Json@@V23@U?$less@VCZString@Value@Json@@@std@@V?$allocator@U?$pair@$$CBVCZString@Value@Json@@V23@@std@@@5@$0A@@std@@@std@@QEBA_NXZ ; std::_Tree<std::_Tmap_traits<Json::Value::CZString,Json::Value,std::less<Json::Value::CZString>,std::allocator<std::pair<Json::Value::CZString const ,Json::Value> >,0> >::empty
PUBLIC	?erase@?$_Tree@V?$_Tmap_traits@VCZString@Value@Json@@V23@U?$less@VCZString@Value@Json@@@std@@V?$allocator@U?$pair@$$CBVCZString@Value@Json@@V23@@std@@@5@$0A@@std@@@std@@QEAA?AV?$_Tree_iterator@V?$_Tree_val@U?$_Tree_simple_types@U?$pair@$$CBVCZString@Value@Json@@V23@@std@@@std@@@std@@@2@V?$_Tree_const_iterator@V?$_Tree_val@U?$_Tree_simple_types@U?$pair@$$CBVCZString@Value@Json@@V23@@std@@@std@@@std@@@2@@Z ; std::_Tree<std::_Tmap_traits<Json::Value::CZString,Json::Value,std::less<Json::Value::CZString>,std::allocator<std::pair<Json::Value::CZString const ,Json::Value> >,0> >::erase
PUBLIC	?clear@?$_Tree@V?$_Tmap_traits@VCZString@Value@Json@@V23@U?$less@VCZString@Value@Json@@@std@@V?$allocator@U?$pair@$$CBVCZString@Value@Json@@V23@@std@@@5@$0A@@std@@@std@@QEAAXXZ ; std::_Tree<std::_Tmap_traits<Json::Value::CZString,Json::Value,std::less<Json::Value::CZString>,std::allocator<std::pair<Json::Value::CZString const ,Json::Value> >,0> >::clear
PUBLIC	?find@?$_Tree@V?$_Tmap_traits@VCZString@Value@Json@@V23@U?$less@VCZString@Value@Json@@@std@@V?$allocator@U?$pair@$$CBVCZString@Value@Json@@V23@@std@@@5@$0A@@std@@@std@@QEAA?AV?$_Tree_iterator@V?$_Tree_val@U?$_Tree_simple_types@U?$pair@$$CBVCZString@Value@Json@@V23@@std@@@std@@@std@@@2@AEBVCZString@Value@Json@@@Z ; std::_Tree<std::_Tmap_traits<Json::Value::CZString,Json::Value,std::less<Json::Value::CZString>,std::allocator<std::pair<Json::Value::CZString const ,Json::Value> >,0> >::find
PUBLIC	?lower_bound@?$_Tree@V?$_Tmap_traits@VCZString@Value@Json@@V23@U?$less@VCZString@Value@Json@@@std@@V?$allocator@U?$pair@$$CBVCZString@Value@Json@@V23@@std@@@5@$0A@@std@@@std@@QEAA?AV?$_Tree_iterator@V?$_Tree_val@U?$_Tree_simple_types@U?$pair@$$CBVCZString@Value@Json@@V23@@std@@@std@@@std@@@2@AEBVCZString@Value@Json@@@Z ; std::_Tree<std::_Tmap_traits<Json::Value::CZString,Json::Value,std::less<Json::Value::CZString>,std::allocator<std::pair<Json::Value::CZString const ,Json::Value> >,0> >::lower_bound
PUBLIC	??D?$_Tree_const_iterator@V?$_Tree_val@U?$_Tree_simple_types@U?$pair@$$CBVCZString@Value@Json@@V23@@std@@@std@@@std@@@std@@QEBAAEBU?$pair@$$CBVCZString@Value@Json@@V23@@1@XZ ; std::_Tree_const_iterator<std::_Tree_val<std::_Tree_simple_types<std::pair<Json::Value::CZString const ,Json::Value> > > >::operator*
PUBLIC	??E?$_Tree_const_iterator@V?$_Tree_val@U?$_Tree_simple_types@U?$pair@$$CBVCZString@Value@Json@@V23@@std@@@std@@@std@@@std@@QEAAAEAV01@XZ ; std::_Tree_const_iterator<std::_Tree_val<std::_Tree_simple_types<std::pair<Json::Value::CZString const ,Json::Value> > > >::operator++
PUBLIC	??F?$_Tree_const_iterator@V?$_Tree_val@U?$_Tree_simple_types@U?$pair@$$CBVCZString@Value@Json@@V23@@std@@@std@@@std@@@std@@QEAAAEAV01@XZ ; std::_Tree_const_iterator<std::_Tree_val<std::_Tree_simple_types<std::pair<Json::Value::CZString const ,Json::Value> > > >::operator--
PUBLIC	??8?$_Tree_const_iterator@V?$_Tree_val@U?$_Tree_simple_types@U?$pair@$$CBVCZString@Value@Json@@V23@@std@@@std@@@std@@@std@@QEBA_NAEBV01@@Z ; std::_Tree_const_iterator<std::_Tree_val<std::_Tree_simple_types<std::pair<Json::Value::CZString const ,Json::Value> > > >::operator==
PUBLIC	??9?$_Tree_const_iterator@V?$_Tree_val@U?$_Tree_simple_types@U?$pair@$$CBVCZString@Value@Json@@V23@@std@@@std@@@std@@@std@@QEBA_NAEBV01@@Z ; std::_Tree_const_iterator<std::_Tree_val<std::_Tree_simple_types<std::pair<Json::Value::CZString const ,Json::Value> > > >::operator!=
PUBLIC	??D?$_Tree_iterator@V?$_Tree_val@U?$_Tree_simple_types@U?$pair@$$CBVCZString@Value@Json@@V23@@std@@@std@@@std@@@std@@QEBAAEAU?$pair@$$CBVCZString@Value@Json@@V23@@1@XZ ; std::_Tree_iterator<std::_Tree_val<std::_Tree_simple_types<std::pair<Json::Value::CZString const ,Json::Value> > > >::operator*
PUBLIC	??F?$_Tree_iterator@V?$_Tree_val@U?$_Tree_simple_types@U?$pair@$$CBVCZString@Value@Json@@V23@@std@@@std@@@std@@@std@@QEAAAEAV01@XZ ; std::_Tree_iterator<std::_Tree_val<std::_Tree_simple_types<std::pair<Json::Value::CZString const ,Json::Value> > > >::operator--
PUBLIC	??D?$_Vector_iterator@V?$_Vector_val@U?$_Simple_types@V?$basic_string@DU?$char_traits@D@std@@V?$allocator@D@2@@std@@@std@@@std@@@std@@QEBAAEAV?$basic_string@DU?$char_traits@D@std@@V?$allocator@D@2@@1@XZ ; std::_Vector_iterator<std::_Vector_val<std::_Simple_types<std::basic_string<char,std::char_traits<char>,std::allocator<char> > > > >::operator*
PUBLIC	??E?$_Vector_iterator@V?$_Vector_val@U?$_Simple_types@V?$basic_string@DU?$char_traits@D@std@@V?$allocator@D@2@@std@@@std@@@std@@@std@@QEAAAEAV01@XZ ; std::_Vector_iterator<std::_Vector_val<std::_Simple_types<std::basic_string<char,std::char_traits<char>,std::allocator<char> > > > >::operator++
PUBLIC	??8?$_Vector_const_iterator@V?$_Vector_val@U?$_Simple_types@V?$basic_string@DU?$char_traits@D@std@@V?$allocator@D@2@@std@@@std@@@std@@@std@@QEBA_NAEBV01@@Z ; std::_Vector_const_iterator<std::_Vector_val<std::_Simple_types<std::basic_string<char,std::char_traits<char>,std::allocator<char> > > > >::operator==
PUBLIC	??9?$_Vector_const_iterator@V?$_Vector_val@U?$_Simple_types@V?$basic_string@DU?$char_traits@D@std@@V?$allocator@D@2@@std@@@std@@@std@@@std@@QEBA_NAEBV01@@Z ; std::_Vector_const_iterator<std::_Vector_val<std::_Simple_types<std::basic_string<char,std::char_traits<char>,std::allocator<char> > > > >::operator!=
PUBLIC	??0?$deque@VErrorInfo@Reader@Json@@V?$allocator@VErrorInfo@Reader@Json@@@std@@@std@@QEAA@XZ ; std::deque<Json::Reader::ErrorInfo,std::allocator<Json::Reader::ErrorInfo> >::deque<Json::Reader::ErrorInfo,std::allocator<Json::Reader::ErrorInfo> >
PUBLIC	??1?$deque@VErrorInfo@Reader@Json@@V?$allocator@VErrorInfo@Reader@Json@@@std@@@std@@QEAA@XZ ; std::deque<Json::Reader::ErrorInfo,std::allocator<Json::Reader::ErrorInfo> >::~deque<Json::Reader::ErrorInfo,std::allocator<Json::Reader::ErrorInfo> >
PUBLIC	?resize@?$deque@VErrorInfo@Reader@Json@@V?$allocator@VErrorInfo@Reader@Json@@@std@@@std@@QEAAX_K@Z ; std::deque<Json::Reader::ErrorInfo,std::allocator<Json::Reader::ErrorInfo> >::resize
PUBLIC	?size@?$deque@VErrorInfo@Reader@Json@@V?$allocator@VErrorInfo@Reader@Json@@@std@@@std@@QEBA_KXZ ; std::deque<Json::Reader::ErrorInfo,std::allocator<Json::Reader::ErrorInfo> >::size
PUBLIC	?push_back@?$deque@VErrorInfo@Reader@Json@@V?$allocator@VErrorInfo@Reader@Json@@@std@@@std@@QEAAXAEBVErrorInfo@Reader@Json@@@Z ; std::deque<Json::Reader::ErrorInfo,std::allocator<Json::Reader::ErrorInfo> >::push_back
PUBLIC	?clear@?$deque@VErrorInfo@Reader@Json@@V?$allocator@VErrorInfo@Reader@Json@@@std@@@std@@QEAAXXZ ; std::deque<Json::Reader::ErrorInfo,std::allocator<Json::Reader::ErrorInfo> >::clear
PUBLIC	??1?$deque@PEAVValue@Json@@V?$allocator@PEAVValue@Json@@@std@@@std@@QEAA@XZ ; std::deque<Json::Value * __ptr64,std::allocator<Json::Value * __ptr64> >::~deque<Json::Value * __ptr64,std::allocator<Json::Value * __ptr64> >
PUBLIC	??0?$stack@PEAVValue@Json@@V?$deque@PEAVValue@Json@@V?$allocator@PEAVValue@Json@@@std@@@std@@@std@@QEAA@XZ ; std::stack<Json::Value * __ptr64,std::deque<Json::Value * __ptr64,std::allocator<Json::Value * __ptr64> > >::stack<Json::Value * __ptr64,std::deque<Json::Value * __ptr64,std::allocator<Json::Value * __ptr64> > >
PUBLIC	?push@?$stack@PEAVValue@Json@@V?$deque@PEAVValue@Json@@V?$allocator@PEAVValue@Json@@@std@@@std@@@std@@QEAAX$$QEAPEAVValue@Json@@@Z ; std::stack<Json::Value * __ptr64,std::deque<Json::Value * __ptr64,std::allocator<Json::Value * __ptr64> > >::push
PUBLIC	?empty@?$stack@PEAVValue@Json@@V?$deque@PEAVValue@Json@@V?$allocator@PEAVValue@Json@@@std@@@std@@@std@@QEBA_NXZ ; std::stack<Json::Value * __ptr64,std::deque<Json::Value * __ptr64,std::allocator<Json::Value * __ptr64> > >::empty
PUBLIC	?top@?$stack@PEAVValue@Json@@V?$deque@PEAVValue@Json@@V?$allocator@PEAVValue@Json@@@std@@@std@@@std@@QEAAAEAPEAVValue@Json@@XZ ; std::stack<Json::Value * __ptr64,std::deque<Json::Value * __ptr64,std::allocator<Json::Value * __ptr64> > >::top
PUBLIC	?pop@?$stack@PEAVValue@Json@@V?$deque@PEAVValue@Json@@V?$allocator@PEAVValue@Json@@@std@@@std@@@std@@QEAAXXZ ; std::stack<Json::Value * __ptr64,std::deque<Json::Value * __ptr64,std::allocator<Json::Value * __ptr64> > >::pop
PUBLIC	??1Reader@Json@@QEAA@XZ				; Json::Reader::~Reader
PUBLIC	?getNextChar@Reader@Json@@AEAADXZ		; Json::Reader::getNextChar
PUBLIC	?currentValue@Reader@Json@@AEAAAEAVValue@2@XZ	; Json::Reader::currentValue
PUBLIC	?addErrorAndRecover@Reader@Json@@AEAA_NAEBV?$basic_string@DU?$char_traits@D@std@@V?$allocator@D@2@@std@@AEAVToken@12@W4TokenType@12@@Z ; Json::Reader::addErrorAndRecover
PUBLIC	?recoverFromError@Reader@Json@@AEAA_NW4TokenType@12@@Z ; Json::Reader::recoverFromError
PUBLIC	??1ErrorInfo@Reader@Json@@QEAA@XZ		; Json::Reader::ErrorInfo::~ErrorInfo
PUBLIC	??0ErrorInfo@Reader@Json@@QEAA@XZ		; Json::Reader::ErrorInfo::ErrorInfo
PUBLIC	?addError@Reader@Json@@AEAA_NAEBV?$basic_string@DU?$char_traits@D@std@@V?$allocator@D@2@@std@@AEAVToken@12@PEBD@Z ; Json::Reader::addError
PUBLIC	?decodeUnicodeEscapeSequence@Reader@Json@@AEAA_NAEAVToken@12@AEAPEBDPEBDAEAI@Z ; Json::Reader::decodeUnicodeEscapeSequence
PUBLIC	?decodeUnicodeCodePoint@Reader@Json@@AEAA_NAEAVToken@12@AEAPEBDPEBDAEAI@Z ; Json::Reader::decodeUnicodeCodePoint
PUBLIC	?decodeString@Reader@Json@@AEAA_NAEAVToken@12@AEAV?$basic_string@DU?$char_traits@D@std@@V?$allocator@D@2@@std@@@Z ; Json::Reader::decodeString
PUBLIC	?decodeString@Reader@Json@@AEAA_NAEAVToken@12@@Z ; Json::Reader::decodeString
PUBLIC	?decodeDouble@Reader@Json@@AEAA_NAEAVToken@12@@Z ; Json::Reader::decodeDouble
PUBLIC	?decodeNumber@Reader@Json@@AEAA_NAEAVToken@12@@Z ; Json::Reader::decodeNumber
PUBLIC	?readArray@Reader@Json@@AEAA_NAEAVToken@12@@Z	; Json::Reader::readArray
PUBLIC	?readObject@Reader@Json@@AEAA_NAEAVToken@12@@Z	; Json::Reader::readObject
PUBLIC	?readString@Reader@Json@@AEAA_NXZ		; Json::Reader::readString
PUBLIC	?readNumber@Reader@Json@@AEAAXXZ		; Json::Reader::readNumber
PUBLIC	?readCppStyleComment@Reader@Json@@AEAA_NXZ	; Json::Reader::readCppStyleComment
PUBLIC	?readCStyleComment@Reader@Json@@AEAA_NXZ	; Json::Reader::readCStyleComment
PUBLIC	?addComment@Reader@Json@@AEAAXPEBD0W4CommentPlacement@2@@Z ; Json::Reader::addComment
PUBLIC	?readComment@Reader@Json@@AEAA_NXZ		; Json::Reader::readComment
PUBLIC	?match@Reader@Json@@AEAA_NPEBDH@Z		; Json::Reader::match
PUBLIC	?skipSpaces@Reader@Json@@AEAAXXZ		; Json::Reader::skipSpaces
PUBLIC	?readToken@Reader@Json@@AEAA_NAEAVToken@12@@Z	; Json::Reader::readToken
PUBLIC	?skipCommentTokens@Reader@Json@@AEAAXAEAVToken@12@@Z ; Json::Reader::skipCommentTokens
PUBLIC	?readValue@Reader@Json@@AEAA_NXZ		; Json::Reader::readValue
PUBLIC	?parse@Reader@Json@@QEAA_NPEBD0AEAVValue@2@_N@Z	; Json::Reader::parse
PUBLIC	?parse@Reader@Json@@QEAA_NAEBV?$basic_string@DU?$char_traits@D@std@@V?$allocator@D@2@@std@@AEAVValue@2@_N@Z ; Json::Reader::parse
PUBLIC	??1?$stack@PEAVValue@Json@@V?$deque@PEAVValue@Json@@V?$allocator@PEAVValue@Json@@@std@@@std@@@std@@QEAA@XZ ; std::stack<Json::Value * __ptr64,std::deque<Json::Value * __ptr64,std::allocator<Json::Value * __ptr64> > >::~stack<Json::Value * __ptr64,std::deque<Json::Value * __ptr64,std::allocator<Json::Value * __ptr64> > >
PUBLIC	??0Reader@Json@@QEAA@XZ				; Json::Reader::Reader
PUBLIC	?all@Features@Json@@SA?AV12@XZ			; Json::Features::all
PUBLIC	??0Features@Json@@QEAA@XZ			; Json::Features::Features
PUBLIC	?normalizeEOL@StyledWriter@Json@@CA?AV?$basic_string@DU?$char_traits@D@std@@V?$allocator@D@2@@std@@AEBV34@@Z ; Json::StyledWriter::normalizeEOL
PUBLIC	?hasCommentForValue@StyledWriter@Json@@AEAA_NAEBVValue@2@@Z ; Json::StyledWriter::hasCommentForValue
PUBLIC	?writeCommentAfterValueOnSameLine@StyledWriter@Json@@AEAAXAEBVValue@2@@Z ; Json::StyledWriter::writeCommentAfterValueOnSameLine
PUBLIC	?writeCommentBeforeValue@StyledWriter@Json@@AEAAXAEBVValue@2@@Z ; Json::StyledWriter::writeCommentBeforeValue
PUBLIC	?unindent@StyledWriter@Json@@AEAAXXZ		; Json::StyledWriter::unindent
PUBLIC	?indent@StyledWriter@Json@@AEAAXXZ		; Json::StyledWriter::indent
PUBLIC	?writeWithIndent@StyledWriter@Json@@AEAAXAEBV?$basic_string@DU?$char_traits@D@std@@V?$allocator@D@2@@std@@@Z ; Json::StyledWriter::writeWithIndent
PUBLIC	?writeIndent@StyledWriter@Json@@AEAAXXZ		; Json::StyledWriter::writeIndent
PUBLIC	?pushValue@StyledWriter@Json@@AEAAXAEBV?$basic_string@DU?$char_traits@D@std@@V?$allocator@D@2@@std@@@Z ; Json::StyledWriter::pushValue
PUBLIC	?isMultineArray@StyledWriter@Json@@AEAA_NAEBVValue@2@@Z ; Json::StyledWriter::isMultineArray
PUBLIC	?writeArrayValue@StyledWriter@Json@@AEAAXAEBVValue@2@@Z ; Json::StyledWriter::writeArrayValue
PUBLIC	?writeValue@StyledWriter@Json@@AEAAXAEBVValue@2@@Z ; Json::StyledWriter::writeValue
PUBLIC	?write@StyledWriter@Json@@UEAA?AV?$basic_string@DU?$char_traits@D@std@@V?$allocator@D@2@@std@@AEBVValue@2@@Z ; Json::StyledWriter::write
PUBLIC	??0StyledWriter@Json@@QEAA@XZ			; Json::StyledWriter::StyledWriter
PUBLIC	?writeValue@FastWriter@Json@@AEAAXAEBVValue@2@@Z ; Json::FastWriter::writeValue
PUBLIC	?write@FastWriter@Json@@UEAA?AV?$basic_string@DU?$char_traits@D@std@@V?$allocator@D@2@@std@@AEBVValue@2@@Z ; Json::FastWriter::write
PUBLIC	??0Writer@Json@@QEAA@XZ				; Json::Writer::Writer
PUBLIC	??0FastWriter@Json@@QEAA@XZ			; Json::FastWriter::FastWriter
PUBLIC	??_GWriter@Json@@UEAAPEAXI@Z			; Json::Writer::`scalar deleting destructor'
PUBLIC	??1Writer@Json@@UEAA@XZ				; Json::Writer::~Writer
PUBLIC	??_D?$basic_ostringstream@DU?$char_traits@D@std@@V?$allocator@D@2@@std@@QEAAXXZ ; std::basic_ostringstream<char,std::char_traits<char>,std::allocator<char> >::`vbase destructor'
PUBLIC	?valueToQuotedString@Json@@YA?AV?$basic_string@DU?$char_traits@D@std@@V?$allocator@D@2@@std@@PEBD@Z ; Json::valueToQuotedString
PUBLIC	?valueToString@Json@@YA?AV?$basic_string@DU?$char_traits@D@std@@V?$allocator@D@2@@std@@_N@Z ; Json::valueToString
PUBLIC	?valueToString@Json@@YA?AV?$basic_string@DU?$char_traits@D@std@@V?$allocator@D@2@@std@@N@Z ; Json::valueToString
PUBLIC	?valueToString@Json@@YA?AV?$basic_string@DU?$char_traits@D@std@@V?$allocator@D@2@@std@@I@Z ; Json::valueToString
PUBLIC	?valueToString@Json@@YA?AV?$basic_string@DU?$char_traits@D@std@@V?$allocator@D@2@@std@@H@Z ; Json::valueToString
PUBLIC	?getComment@Value@Json@@QEBA?AV?$basic_string@DU?$char_traits@D@std@@V?$allocator@D@2@@std@@W4CommentPlacement@2@@Z ; Json::Value::getComment
PUBLIC	?hasComment@Value@Json@@QEBA_NW4CommentPlacement@2@@Z ; Json::Value::hasComment
PUBLIC	?setComment@Value@Json@@QEAAXAEBV?$basic_string@DU?$char_traits@D@std@@V?$allocator@D@2@@std@@W4CommentPlacement@2@@Z ; Json::Value::setComment
PUBLIC	?setComment@Value@Json@@QEAAXPEBDW4CommentPlacement@2@@Z ; Json::Value::setComment
PUBLIC	?isObject@Value@Json@@QEBA_NXZ			; Json::Value::isObject
PUBLIC	?isArray@Value@Json@@QEBA_NXZ			; Json::Value::isArray
PUBLIC	?isString@Value@Json@@QEBA_NXZ			; Json::Value::isString
PUBLIC	?isDouble@Value@Json@@QEBA_NXZ			; Json::Value::isDouble
PUBLIC	?isInt@Value@Json@@QEBA_NXZ			; Json::Value::isInt
PUBLIC	?isBool@Value@Json@@QEBA_NXZ			; Json::Value::isBool
PUBLIC	?getMemberNames@Value@Json@@QEBA?AV?$vector@V?$basic_string@DU?$char_traits@D@std@@V?$allocator@D@2@@std@@V?$allocator@V?$basic_string@DU?$char_traits@D@std@@V?$allocator@D@2@@std@@@2@@std@@XZ ; Json::Value::getMemberNames
PUBLIC	?isMember@Value@Json@@QEBA_NAEBV?$basic_string@DU?$char_traits@D@std@@V?$allocator@D@2@@std@@@Z ; Json::Value::isMember
PUBLIC	?isMember@Value@Json@@QEBA_NPEBD@Z		; Json::Value::isMember
PUBLIC	?append@Value@Json@@QEAAAEAV12@AEBV12@@Z	; Json::Value::append
PUBLIC	??AValue@Json@@QEBAAEBV01@AEBV?$basic_string@DU?$char_traits@D@std@@V?$allocator@D@2@@std@@@Z ; Json::Value::operator[]
PUBLIC	??AValue@Json@@QEAAAEAV01@AEBV?$basic_string@DU?$char_traits@D@std@@V?$allocator@D@2@@std@@@Z ; Json::Value::operator[]
PUBLIC	??AValue@Json@@QEBAAEBV01@PEBD@Z		; Json::Value::operator[]
PUBLIC	?isValidIndex@Value@Json@@QEBA_NI@Z		; Json::Value::isValidIndex
PUBLIC	?resolveReference@Value@Json@@AEAAAEAV12@PEBD_N@Z ; Json::Value::resolveReference
PUBLIC	??AValue@Json@@QEAAAEAV01@PEBD@Z		; Json::Value::operator[]
PUBLIC	??AValue@Json@@QEBAAEBV01@I@Z			; Json::Value::operator[]
PUBLIC	??1?$pair@$$CBVCZString@Value@Json@@V23@@std@@QEAA@XZ ; std::pair<Json::Value::CZString const ,Json::Value>::~pair<Json::Value::CZString const ,Json::Value>
PUBLIC	??AValue@Json@@QEAAAEAV01@I@Z			; Json::Value::operator[]
PUBLIC	?size@Value@Json@@QEBAIXZ			; Json::Value::size
PUBLIC	?asBool@Value@Json@@QEBA_NXZ			; Json::Value::asBool
PUBLIC	?asDouble@Value@Json@@QEBANXZ			; Json::Value::asDouble
PUBLIC	?asUInt@Value@Json@@QEBAIXZ			; Json::Value::asUInt
PUBLIC	?asInt@Value@Json@@QEBAHXZ			; Json::Value::asInt
PUBLIC	?asString@Value@Json@@QEBA?AV?$basic_string@DU?$char_traits@D@std@@V?$allocator@D@2@@std@@XZ ; Json::Value::asString
PUBLIC	?asCString@Value@Json@@QEBAPEBDXZ		; Json::Value::asCString
PUBLIC	?type@Value@Json@@QEBA?AW4ValueType@2@XZ	; Json::Value::type
PUBLIC	?swap@Value@Json@@QEAAXAEAV12@@Z		; Json::Value::swap
PUBLIC	??4Value@Json@@QEAAAEAV01@AEBV01@@Z		; Json::Value::operator=
PUBLIC	??1?$map@VCZString@Value@Json@@V23@U?$less@VCZString@Value@Json@@@std@@V?$allocator@U?$pair@$$CBVCZString@Value@Json@@V23@@std@@@5@@std@@QEAA@XZ ; std::map<Json::Value::CZString,Json::Value,std::less<Json::Value::CZString>,std::allocator<std::pair<Json::Value::CZString const ,Json::Value> > >::~map<Json::Value::CZString,Json::Value,std::less<Json::Value::CZString>,std::allocator<std::pair<Json::Value::CZString const ,Json::Value> > >
PUBLIC	??_G?$map@VCZString@Value@Json@@V23@U?$less@VCZString@Value@Json@@@std@@V?$allocator@U?$pair@$$CBVCZString@Value@Json@@V23@@std@@@5@@std@@QEAAPEAXI@Z ; std::map<Json::Value::CZString,Json::Value,std::less<Json::Value::CZString>,std::allocator<std::pair<Json::Value::CZString const ,Json::Value> > >::`scalar deleting destructor'
PUBLIC	??1Value@Json@@QEAA@XZ				; Json::Value::~Value
PUBLIC	??_ECommentInfo@Value@Json@@QEAAPEAXI@Z		; Json::Value::CommentInfo::`vector deleting destructor'
PUBLIC	??0Value@Json@@QEAA@AEBV01@@Z			; Json::Value::Value
PUBLIC	??0Value@Json@@QEAA@_N@Z			; Json::Value::Value
PUBLIC	??0Value@Json@@QEAA@AEBV?$basic_string@DU?$char_traits@D@std@@V?$allocator@D@2@@std@@@Z ; Json::Value::Value
PUBLIC	??0Value@Json@@QEAA@N@Z				; Json::Value::Value
PUBLIC	??0Value@Json@@QEAA@I@Z				; Json::Value::Value
PUBLIC	??0Value@Json@@QEAA@H@Z				; Json::Value::Value
PUBLIC	??0Value@Json@@QEAA@W4ValueType@1@@Z		; Json::Value::Value
PUBLIC	?c_str@CZString@Value@Json@@QEBAPEBDXZ		; Json::Value::CZString::c_str
PUBLIC	?index@CZString@Value@Json@@QEBAHXZ		; Json::Value::CZString::index
PUBLIC	??8CZString@Value@Json@@QEBA_NAEBV012@@Z	; Json::Value::CZString::operator==
PUBLIC	??MCZString@Value@Json@@QEBA_NAEBV012@@Z	; Json::Value::CZString::operator<
PUBLIC	??1CZString@Value@Json@@QEAA@XZ			; Json::Value::CZString::~CZString
PUBLIC	??0CZString@Value@Json@@QEAA@AEBV012@@Z		; Json::Value::CZString::CZString
PUBLIC	??0CZString@Value@Json@@QEAA@PEBDW4DuplicationPolicy@012@@Z ; Json::Value::CZString::CZString
PUBLIC	??0CZString@Value@Json@@QEAA@H@Z		; Json::Value::CZString::CZString
PUBLIC	?setComment@CommentInfo@Value@Json@@QEAAXPEBD@Z	; Json::Value::CommentInfo::setComment
PUBLIC	??1CommentInfo@Value@Json@@QEAA@XZ		; Json::Value::CommentInfo::~CommentInfo
PUBLIC	??0CommentInfo@Value@Json@@QEAA@XZ		; Json::Value::CommentInfo::CommentInfo
PUBLIC	??0DummyValueAllocatorInitializer@Json@@QEAA@XZ	; Json::DummyValueAllocatorInitializer::DummyValueAllocatorInitializer
PUBLIC	??0ValueAllocator@Json@@QEAA@XZ			; Json::ValueAllocator::ValueAllocator
PUBLIC	??0DefaultValueAllocator@Json@@QEAA@XZ		; Json::DefaultValueAllocator::DefaultValueAllocator
PUBLIC	??_GDefaultValueAllocator@Json@@UEAAPEAXI@Z	; Json::DefaultValueAllocator::`scalar deleting destructor'
PUBLIC	?releaseStringValue@DefaultValueAllocator@Json@@UEAAXPEAD@Z ; Json::DefaultValueAllocator::releaseStringValue
PUBLIC	?duplicateStringValue@DefaultValueAllocator@Json@@UEAAPEADPEBDI@Z ; Json::DefaultValueAllocator::duplicateStringValue
PUBLIC	?releaseMemberName@DefaultValueAllocator@Json@@UEAAXPEAD@Z ; Json::DefaultValueAllocator::releaseMemberName
PUBLIC	?makeMemberName@DefaultValueAllocator@Json@@UEAAPEADPEBD@Z ; Json::DefaultValueAllocator::makeMemberName
PUBLIC	??1DefaultValueAllocator@Json@@UEAA@XZ		; Json::DefaultValueAllocator::~DefaultValueAllocator
PUBLIC	??_GValueAllocator@Json@@UEAAPEAXI@Z		; Json::ValueAllocator::`scalar deleting destructor'
PUBLIC	??1ValueAllocator@Json@@UEAA@XZ			; Json::ValueAllocator::~ValueAllocator
PUBLIC	??_GStyledWriter@Json@@UEAAPEAXI@Z		; Json::StyledWriter::`scalar deleting destructor'
PUBLIC	??1StyledWriter@Json@@UEAA@XZ			; Json::StyledWriter::~StyledWriter
PUBLIC	??_GFastWriter@Json@@UEAAPEAXI@Z		; Json::FastWriter::`scalar deleting destructor'
PUBLIC	??1FastWriter@Json@@UEAA@XZ			; Json::FastWriter::~FastWriter
PUBLIC	?uppercase@std@@YAAEAVios_base@1@AEAV21@@Z	; std::uppercase
PUBLIC	?hex@std@@YAAEAVios_base@1@AEAV21@@Z		; std::hex
PUBLIC	??0runtime_error@std@@QEAA@AEBV01@@Z		; std::runtime_error::runtime_error
PUBLIC	??1runtime_error@std@@UEAA@XZ			; std::runtime_error::~runtime_error
PUBLIC	??_Gruntime_error@std@@UEAAPEAXI@Z		; std::runtime_error::`scalar deleting destructor'
PUBLIC	??0runtime_error@std@@QEAA@PEBD@Z		; std::runtime_error::runtime_error
PUBLIC	?_Orphan_all@_Container_base12@std@@QEAAXXZ	; std::_Container_base12::_Orphan_all
PUBLIC	?_Getcont@_Iterator_base12@std@@QEBAPEBU_Container_base12@2@XZ ; std::_Iterator_base12::_Getcont
PUBLIC	?_Adopt@_Iterator_base12@std@@QEAAXPEBU_Container_base12@2@@Z ; std::_Iterator_base12::_Adopt
PUBLIC	??1_Iterator_base12@std@@QEAA@XZ		; std::_Iterator_base12::~_Iterator_base12
PUBLIC	??4_Iterator_base12@std@@QEAAAEAU01@AEBU01@@Z	; std::_Iterator_base12::operator=
PUBLIC	??0_Iterator_base12@std@@QEAA@AEBU01@@Z		; std::_Iterator_base12::_Iterator_base12
PUBLIC	??0_Iterator_base12@std@@QEAA@XZ		; std::_Iterator_base12::_Iterator_base12
PUBLIC	??1_Container_base12@std@@QEAA@XZ		; std::_Container_base12::~_Container_base12
PUBLIC	??0_Container_base12@std@@QEAA@XZ		; std::_Container_base12::_Container_base12
PUBLIC	??0_Container_proxy@std@@QEAA@XZ		; std::_Container_proxy::_Container_proxy
PUBLIC	?eof@?$char_traits@D@std@@SAHXZ			; std::char_traits<char>::eof
PUBLIC	?not_eof@?$char_traits@D@std@@SAHAEBH@Z		; std::char_traits<char>::not_eof
PUBLIC	?eq_int_type@?$char_traits@D@std@@SA_NAEBH0@Z	; std::char_traits<char>::eq_int_type
PUBLIC	?to_int_type@?$char_traits@D@std@@SAHAEBD@Z	; std::char_traits<char>::to_int_type
PUBLIC	?to_char_type@?$char_traits@D@std@@SADAEBH@Z	; std::char_traits<char>::to_char_type
PUBLIC	??_Gexception@std@@UEAAPEAXI@Z			; std::exception::`scalar deleting destructor'
PUBLIC	?what@exception@std@@UEBAPEBDXZ			; std::exception::what
PUBLIC	??1exception@std@@UEAA@XZ			; std::exception::~exception
PUBLIC	??0exception@std@@QEAA@AEBV01@@Z		; std::exception::exception
PUBLIC	??0exception@std@@QEAA@QEBD@Z			; std::exception::exception
PUBLIC	sscanf
PUBLIC	_vsscanf_l
PUBLIC	sprintf
PUBLIC	_vsprintf_l
PUBLIC	_vsnprintf_l
PUBLIC	__local_stdio_scanf_options
PUBLIC	?_OptionsStorage@?1??__local_stdio_scanf_options@@9@4_KA ; `__local_stdio_scanf_options'::`2'::_OptionsStorage
PUBLIC	?null@Value@Json@@2V12@B			; Json::Value::null
EXTRN	??_E?$basic_ostringstream@DU?$char_traits@D@std@@V?$allocator@D@2@@std@@UEAAPEAXI@Z:PROC ; std::basic_ostringstream<char,std::char_traits<char>,std::allocator<char> >::`vector deleting destructor'
EXTRN	??_E?$basic_stringbuf@DU?$char_traits@D@std@@V?$allocator@D@2@@std@@UEAAPEAXI@Z:PROC ; std::basic_stringbuf<char,std::char_traits<char>,std::allocator<char> >::`vector deleting destructor'
EXTRN	??_Eexception@std@@UEAAPEAXI@Z:PROC		; std::exception::`vector deleting destructor'
EXTRN	??_Eruntime_error@std@@UEAAPEAXI@Z:PROC		; std::runtime_error::`vector deleting destructor'
EXTRN	??_EFastWriter@Json@@UEAAPEAXI@Z:PROC		; Json::FastWriter::`vector deleting destructor'
EXTRN	??_EDefaultValueAllocator@Json@@UEAAPEAXI@Z:PROC ; Json::DefaultValueAllocator::`vector deleting destructor'
EXTRN	??_EValueAllocator@Json@@UEAAPEAXI@Z:PROC	; Json::ValueAllocator::`vector deleting destructor'
EXTRN	??_EWriter@Json@@UEAAPEAXI@Z:PROC		; Json::Writer::`vector deleting destructor'
EXTRN	??_EStyledWriter@Json@@UEAAPEAXI@Z:PROC		; Json::StyledWriter::`vector deleting destructor'
;	COMDAT ?_OptionsStorage@?1??__local_stdio_scanf_options@@9@4_KA
_BSS	SEGMENT
?_OptionsStorage@?1??__local_stdio_scanf_options@@9@4_KA DQ 01H DUP (?) ; `__local_stdio_scanf_options'::`2'::_OptionsStorage
?dummyValueAllocatorInitializer@Json@@3UDummyValueAllocatorInitializer@1@A DB 01H DUP (?) ; Json::dummyValueAllocatorInitializer
	ALIGN	4

?null@Value@Json@@2V12@B DB 018H DUP (?)		; Json::Value::null
_BSS	ENDS
;	COMDAT ?$TSS0@?1??valueAllocator@Json@@YAAEAPEAVValueAllocator@2@XZ@4HA
_BSS	SEGMENT
?$TSS0@?1??valueAllocator@Json@@YAAEAPEAVValueAllocator@2@XZ@4HA DD 01H DUP (?) ; TSS0<`template-parameter-2',Json::alueAllocator,Json::AAEAPEAVValueAllocator,void,int, ?? &>
_BSS	ENDS
;	COMDAT pdata
pdata	SEGMENT
$pdata$??0?$pair@$$CBVCZString@Value@Json@@V23@@std@@QEAA@AEBU01@@Z DD imagerel $LN5@pair
	DD	imagerel $LN5@pair+79
	DD	imagerel $unwind$??0?$pair@$$CBVCZString@Value@Json@@V23@@std@@QEAA@AEBU01@@Z
pdata	ENDS
;	COMDAT pdata
pdata	SEGMENT
$pdata$?dtor$0@?0???0?$pair@$$CBVCZString@Value@Json@@V23@@std@@QEAA@AEBU01@@Z@4HA DD imagerel ?dtor$0@?0???0?$pair@$$CBVCZString@Value@Json@@V23@@std@@QEAA@AEBU01@@Z@4HA
	DD	imagerel ?dtor$0@?0???0?$pair@$$CBVCZString@Value@Json@@V23@@std@@QEAA@AEBU01@@Z@4HA+24
	DD	imagerel $unwind$?dtor$0@?0???0?$pair@$$CBVCZString@Value@Json@@V23@@std@@QEAA@AEBU01@@Z@4HA
pdata	ENDS
;	COMDAT pdata
pdata	SEGMENT
$pdata$??$construct@U?$pair@$$CBVCZString@Value@Json@@V23@@std@@AEAU12@@?$allocator@U?$_Tree_node@U?$pair@$$CBVCZString@Value@Json@@V23@@std@@PEAX@std@@@std@@QEAAXPEAU?$pair@$$CBVCZString@Value@Json@@V23@@1@AEAU21@@Z DD imagerel $LN6@construct
	DD	imagerel $LN6@construct+110
	DD	imagerel $unwind$??$construct@U?$pair@$$CBVCZString@Value@Json@@V23@@std@@AEAU12@@?$allocator@U?$_Tree_node@U?$pair@$$CBVCZString@Value@Json@@V23@@std@@PEAX@std@@@std@@QEAAXPEAU?$pair@$$CBVCZString@Value@Json@@V23@@1@AEAU21@@Z
pdata	ENDS
;	COMDAT pdata
pdata	SEGMENT
$pdata$?dtor$0@?0???$construct@U?$pair@$$CBVCZString@Value@Json@@V23@@std@@AEAU12@@?$allocator@U?$_Tree_node@U?$pair@$$CBVCZString@Value@Json@@V23@@std@@PEAX@std@@@std@@QEAAXPEAU?$pair@$$CBVCZString@Value@Json@@V23@@1@AEAU21@@Z@4HA DD imagerel ?dtor$0@?0???$construct@U?$pair@$$CBVCZString@Value@Json@@V23@@std@@AEAU12@@?$allocator@U?$_Tree_node@U?$pair@$$CBVCZString@Value@Json@@V23@@std@@PEAX@std@@@std@@QEAAXPEAU?$pair@$$CBVCZString@Value@Json@@V23@@1@AEAU21@@Z@4HA
	DD	imagerel ?dtor$0@?0???$construct@U?$pair@$$CBVCZString@Value@Json@@V23@@std@@AEAU12@@?$allocator@U?$_Tree_node@U?$pair@$$CBVCZString@Value@Json@@V23@@std@@PEAX@std@@@std@@QEAAXPEAU?$pair@$$CBVCZString@Value@Json@@V23@@1@AEAU21@@Z@4HA+28
	DD	imagerel $unwind$?dtor$0@?0???$construct@U?$pair@$$CBVCZString@Value@Json@@V23@@std@@AEAU12@@?$allocator@U?$_Tree_node@U?$pair@$$CBVCZString@Value@Json@@V23@@std@@PEAX@std@@@std@@QEAAXPEAU?$pair@$$CBVCZString@Value@Json@@V23@@1@AEAU21@@Z@4HA
pdata	ENDS
;	COMDAT pdata
pdata	SEGMENT
$pdata$??$construct@VErrorInfo@Reader@Json@@$$V@?$allocator@VErrorInfo@Reader@Json@@@std@@QEAAXPEAVErrorInfo@Reader@Json@@@Z DD imagerel $LN5@construct
	DD	imagerel $LN5@construct+89
	DD	imagerel $unwind$??$construct@VErrorInfo@Reader@Json@@$$V@?$allocator@VErrorInfo@Reader@Json@@@std@@QEAAXPEAVErrorInfo@Reader@Json@@@Z
pdata	ENDS
;	COMDAT pdata
pdata	SEGMENT
$pdata$??$?0AEAV?$_Tree_iterator@V?$_Tree_val@U?$_Tree_simple_types@U?$pair@$$CBVCZString@Value@Json@@V23@@std@@@std@@@std@@@std@@_NX@?$pair@V?$_Tree_iterator@V?$_Tree_val@U?$_Tree_simple_types@U?$pair@$$CBVCZString@Value@Json@@V23@@std@@@std@@@std@@@std@@_N@std@@QEAA@AEAV?$_Tree_iterator@V?$_Tree_val@U?$_Tree_simple_types@U?$pair@$$CBVCZString@Value@Json@@V23@@std@@@std@@@std@@@1@$$QEA_N@Z DD imagerel $LN3@Value
	DD	imagerel $LN3@Value+71
	DD	imagerel $unwind$??$?0AEAV?$_Tree_iterator@V?$_Tree_val@U?$_Tree_simple_types@U?$pair@$$CBVCZString@Value@Json@@V23@@std@@@std@@@std@@@std@@_NX@?$pair@V?$_Tree_iterator@V?$_Tree_val@U?$_Tree_simple_types@U?$pair@$$CBVCZString@Value@Json@@V23@@std@@@std@@@std@@@std@@_N@std@@QEAA@AEAV?$_Tree_iterator@V?$_Tree_val@U?$_Tree_simple_types@U?$pair@$$CBVCZString@Value@Json@@V23@@std@@@std@@@std@@@1@$$QEA_N@Z
pdata	ENDS
;	COMDAT pdata
pdata	SEGMENT
$pdata$??$?0V?$_Tree_iterator@V?$_Tree_val@U?$_Tree_simple_types@U?$pair@$$CBVCZString@Value@Json@@V23@@std@@@std@@@std@@@std@@_NX@?$pair@V?$_Tree_iterator@V?$_Tree_val@U?$_Tree_simple_types@U?$pair@$$CBVCZString@Value@Json@@V23@@std@@@std@@@std@@@std@@_N@std@@QEAA@$$QEAV?$_Tree_iterator@V?$_Tree_val@U?$_Tree_simple_types@U?$pair@$$CBVCZString@Value@Json@@V23@@std@@@std@@@std@@@1@$$QEA_N@Z DD imagerel $LN3@Value
	DD	imagerel $LN3@Value+71
	DD	imagerel $unwind$??$?0V?$_Tree_iterator@V?$_Tree_val@U?$_Tree_simple_types@U?$pair@$$CBVCZString@Value@Json@@V23@@std@@@std@@@std@@@std@@_NX@?$pair@V?$_Tree_iterator@V?$_Tree_val@U?$_Tree_simple_types@U?$pair@$$CBVCZString@Value@Json@@V23@@std@@@std@@@std@@@std@@_N@std@@QEAA@$$QEAV?$_Tree_iterator@V?$_Tree_val@U?$_Tree_simple_types@U?$pair@$$CBVCZString@Value@Json@@V23@@std@@@std@@@std@@@1@$$QEA_N@Z
pdata	ENDS
;	COMDAT pdata
pdata	SEGMENT
$pdata$??$construct@U?$pair@$$CBVCZString@Value@Json@@V23@@std@@AEAU12@@?$allocator_traits@V?$allocator@U?$_Tree_node@U?$pair@$$CBVCZString@Value@Json@@V23@@std@@PEAX@std@@@std@@@std@@SAXAEAV?$allocator@U?$_Tree_node@U?$pair@$$CBVCZString@Value@Json@@V23@@std@@PEAX@std@@@1@PEAU?$pair@$$CBVCZString@Value@Json@@V23@@1@AEAU31@@Z DD imagerel $LN3@construct
	DD	imagerel $LN3@construct+52
	DD	imagerel $unwind$??$construct@U?$pair@$$CBVCZString@Value@Json@@V23@@std@@AEAU12@@?$allocator_traits@V?$allocator@U?$_Tree_node@U?$pair@$$CBVCZString@Value@Json@@V23@@std@@PEAX@std@@@std@@@std@@SAXAEAV?$allocator@U?$_Tree_node@U?$pair@$$CBVCZString@Value@Json@@V23@@std@@PEAX@std@@@1@PEAU?$pair@$$CBVCZString@Value@Json@@V23@@1@AEAU31@@Z
pdata	ENDS
;	COMDAT pdata
pdata	SEGMENT
$pdata$?max_size@?$allocator_traits@V?$allocator@U?$_Tree_node@U?$pair@$$CBVCZString@Value@Json@@V23@@std@@PEAX@std@@@std@@@std@@SA_KAEBV?$allocator@U?$_Tree_node@U?$pair@$$CBVCZString@Value@Json@@V23@@std@@PEAX@std@@@2@@Z DD imagerel $LN3@max_size
	DD	imagerel $LN3@max_size+24
	DD	imagerel $unwind$?max_size@?$allocator_traits@V?$allocator@U?$_Tree_node@U?$pair@$$CBVCZString@Value@Json@@V23@@std@@PEAX@std@@@std@@@std@@SA_KAEBV?$allocator@U?$_Tree_node@U?$pair@$$CBVCZString@Value@Json@@V23@@std@@PEAX@std@@@2@@Z
pdata	ENDS
;	COMDAT pdata
pdata	SEGMENT
$pdata$?max_size@?$_Wrap_alloc@V?$allocator@U?$_Tree_node@U?$pair@$$CBVCZString@Value@Json@@V23@@std@@PEAX@std@@@std@@@std@@QEBA_KU_Nil@2@@Z DD imagerel $LN3@max_size
	DD	imagerel $LN3@max_size+28
	DD	imagerel $unwind$?max_size@?$_Wrap_alloc@V?$allocator@U?$_Tree_node@U?$pair@$$CBVCZString@Value@Json@@V23@@std@@PEAX@std@@@std@@@std@@QEBA_KU_Nil@2@@Z
pdata	ENDS
;	COMDAT pdata
pdata	SEGMENT
$pdata$?max_size@?$_Tree@V?$_Tmap_traits@VCZString@Value@Json@@V23@U?$less@VCZString@Value@Json@@@std@@V?$allocator@U?$pair@$$CBVCZString@Value@Json@@V23@@std@@@5@$0A@@std@@@std@@QEBA_KXZ DD imagerel $LN3@max_size
	DD	imagerel $LN3@max_size+37
	DD	imagerel $unwind$?max_size@?$_Tree@V?$_Tmap_traits@VCZString@Value@Json@@V23@U?$less@VCZString@Value@Json@@@std@@V?$allocator@U?$pair@$$CBVCZString@Value@Json@@V23@@std@@@5@$0A@@std@@@std@@QEBA_KXZ
pdata	ENDS
;	COMDAT pdata
pdata	SEGMENT
$pdata$??_GErrorInfo@Reader@Json@@QEAAPEAXI@Z DD imagerel $LN4@scalar
	DD	imagerel $LN4@scalar+59
	DD	imagerel $unwind$??_GErrorInfo@Reader@Json@@QEAAPEAXI@Z
pdata	ENDS
;	COMDAT pdata
pdata	SEGMENT
$pdata$??_G?$pair@$$CBVCZString@Value@Json@@V23@@std@@QEAAPEAXI@Z DD imagerel $LN4@scalar
	DD	imagerel $LN4@scalar+59
	DD	imagerel $unwind$??_G?$pair@$$CBVCZString@Value@Json@@V23@@std@@QEAAPEAXI@Z
pdata	ENDS
;	COMDAT pdata
pdata	SEGMENT
$pdata$??0ErrorInfo@Reader@Json@@QEAA@AEBV012@@Z DD imagerel $LN4@ErrorInfo
	DD	imagerel $LN4@ErrorInfo+89
	DD	imagerel $unwind$??0ErrorInfo@Reader@Json@@QEAA@AEBV012@@Z
pdata	ENDS
;	COMDAT pdata
pdata	SEGMENT
$pdata$??$construct@PEAU?$_Tree_node@U?$pair@$$CBVCZString@Value@Json@@V23@@std@@PEAX@std@@AEAPEAU12@@?$allocator@U?$_Tree_node@U?$pair@$$CBVCZString@Value@Json@@V23@@std@@PEAX@std@@@std@@QEAAXPEAPEAU?$_Tree_node@U?$pair@$$CBVCZString@Value@Json@@V23@@std@@PEAX@1@AEAPEAU21@@Z DD imagerel $LN5@construct
	DD	imagerel $LN5@construct+94
	DD	imagerel $unwind$??$construct@PEAU?$_Tree_node@U?$pair@$$CBVCZString@Value@Json@@V23@@std@@PEAX@std@@AEAPEAU12@@?$allocator@U?$_Tree_node@U?$pair@$$CBVCZString@Value@Json@@V23@@std@@PEAX@std@@@std@@QEAAXPEAPEAU?$_Tree_node@U?$pair@$$CBVCZString@Value@Json@@V23@@std@@PEAX@1@AEAPEAU21@@Z
pdata	ENDS
;	COMDAT pdata
pdata	SEGMENT
$pdata$??$?0V?$allocator@U?$pair@$$CBVCZString@Value@Json@@V23@@std@@@std@@@?$_Wrap_alloc@V?$allocator@U?$_Tree_node@U?$pair@$$CBVCZString@Value@Json@@V23@@std@@PEAX@std@@@std@@@std@@QEAA@AEBV?$allocator@U?$pair@$$CBVCZString@Value@Json@@V23@@std@@@1@@Z DD imagerel $LN3@Value
	DD	imagerel $LN3@Value+39
	DD	imagerel $unwind$??$?0V?$allocator@U?$pair@$$CBVCZString@Value@Json@@V23@@std@@@std@@@?$_Wrap_alloc@V?$allocator@U?$_Tree_node@U?$pair@$$CBVCZString@Value@Json@@V23@@std@@PEAX@std@@@std@@@std@@QEAA@AEBV?$allocator@U?$pair@$$CBVCZString@Value@Json@@V23@@std@@@1@@Z
pdata	ENDS
;	COMDAT pdata
pdata	SEGMENT
$pdata$??$_Uninit_copy@PEAPEAVValue@Json@@PEAPEAV12@@std@@YAPEAPEAPEAVValue@Json@@PEAPEAPEAV12@00AEAU?$_Wrap_alloc@V?$allocator@PEAPEAVValue@Json@@@std@@@0@U_Scalar_ptr_iterator_tag@0@@Z DD imagerel $LN3@Uninit_cop
	DD	imagerel $LN3@Uninit_cop+91
	DD	imagerel $unwind$??$_Uninit_copy@PEAPEAVValue@Json@@PEAPEAV12@@std@@YAPEAPEAPEAVValue@Json@@PEAPEAPEAV12@00AEAU?$_Wrap_alloc@V?$allocator@PEAPEAVValue@Json@@@std@@@0@U_Scalar_ptr_iterator_tag@0@@Z
pdata	ENDS
;	COMDAT pdata
pdata	SEGMENT
$pdata$??$construct@U_Container_proxy@std@@U12@@?$allocator@U_Container_proxy@std@@@std@@QEAAXPEAU_Container_proxy@1@$$QEAU21@@Z DD imagerel $LN5@construct
	DD	imagerel $LN5@construct+102
	DD	imagerel $unwind$??$construct@U_Container_proxy@std@@U12@@?$allocator@U_Container_proxy@std@@@std@@QEAAXPEAU_Container_proxy@1@$$QEAU21@@Z
pdata	ENDS
;	COMDAT pdata
pdata	SEGMENT
$pdata$??$_Copy_or_move@U?$pair@$$CBVCZString@Value@Json@@V23@@std@@U?$integral_constant@_N$0A@@2@@?$_Tree@V?$_Tmap_traits@VCZString@Value@Json@@V23@U?$less@VCZString@Value@Json@@@std@@V?$allocator@U?$pair@$$CBVCZString@Value@Json@@V23@@std@@@5@$0A@@std@@@std@@IEAAPEAU?$_Tree_node@U?$pair@$$CBVCZString@Value@Json@@V23@@std@@PEAX@1@AEAU?$pair@$$CBVCZString@Value@Json@@V23@@1@U_Copy_tag@01@U?$integral_constant@_N$0A@@1@@Z DD imagerel $LN3@Copy_or_mo
	DD	imagerel $LN3@Copy_or_mo+44
	DD	imagerel $unwind$??$_Copy_or_move@U?$pair@$$CBVCZString@Value@Json@@V23@@std@@U?$integral_constant@_N$0A@@2@@?$_Tree@V?$_Tmap_traits@VCZString@Value@Json@@V23@U?$less@VCZString@Value@Json@@@std@@V?$allocator@U?$pair@$$CBVCZString@Value@Json@@V23@@std@@@5@$0A@@std@@@std@@IEAAPEAU?$_Tree_node@U?$pair@$$CBVCZString@Value@Json@@V23@@std@@PEAX@1@AEAU?$pair@$$CBVCZString@Value@Json@@V23@@1@U_Copy_tag@01@U?$integral_constant@_N$0A@@1@@Z
pdata	ENDS
;	COMDAT pdata
pdata	SEGMENT
$pdata$??$destroy@VErrorInfo@Reader@Json@@@?$allocator@VErrorInfo@Reader@Json@@@std@@QEAAXPEAVErrorInfo@Reader@Json@@@Z DD imagerel $LN3@destroy
	DD	imagerel $LN3@destroy+31
	DD	imagerel $unwind$??$destroy@VErrorInfo@Reader@Json@@@?$allocator@VErrorInfo@Reader@Json@@@std@@QEAAXPEAVErrorInfo@Reader@Json@@@Z
pdata	ENDS
;	COMDAT pdata
pdata	SEGMENT
$pdata$??$_Uninit_copy@PEAVErrorInfo@Reader@Json@@PEAV123@@std@@YAPEAPEAVErrorInfo@Reader@Json@@PEAPEAV123@00AEAU?$_Wrap_alloc@V?$allocator@PEAVErrorInfo@Reader@Json@@@std@@@0@U_Scalar_ptr_iterator_tag@0@@Z DD imagerel $LN3@Uninit_cop
	DD	imagerel $LN3@Uninit_cop+91
	DD	imagerel $unwind$??$_Uninit_copy@PEAVErrorInfo@Reader@Json@@PEAV123@@std@@YAPEAPEAVErrorInfo@Reader@Json@@PEAPEAV123@00AEAU?$_Wrap_alloc@V?$allocator@PEAVErrorInfo@Reader@Json@@@std@@@0@U_Scalar_ptr_iterator_tag@0@@Z
pdata	ENDS
;	COMDAT pdata
pdata	SEGMENT
$pdata$??$construct@PEAVValue@Json@@PEAV12@@?$allocator@PEAVValue@Json@@@std@@QEAAXPEAPEAVValue@Json@@$$QEAPEAV23@@Z DD imagerel $LN5@construct
	DD	imagerel $LN5@construct+94
	DD	imagerel $unwind$??$construct@PEAVValue@Json@@PEAV12@@?$allocator@PEAVValue@Json@@@std@@QEAAXPEAPEAVValue@Json@@$$QEAPEAV23@@Z
pdata	ENDS
;	COMDAT pdata
pdata	SEGMENT
$pdata$??$destroy@U?$pair@$$CBVCZString@Value@Json@@V23@@std@@@?$allocator@U?$_Tree_node@U?$pair@$$CBVCZString@Value@Json@@V23@@std@@PEAX@std@@@std@@QEAAXPEAU?$pair@$$CBVCZString@Value@Json@@V23@@1@@Z DD imagerel $LN3@destroy
	DD	imagerel $LN3@destroy+31
	DD	imagerel $unwind$??$destroy@U?$pair@$$CBVCZString@Value@Json@@V23@@std@@@?$allocator@U?$_Tree_node@U?$pair@$$CBVCZString@Value@Json@@V23@@std@@PEAX@std@@@std@@QEAAXPEAU?$pair@$$CBVCZString@Value@Json@@V23@@1@@Z
pdata	ENDS
;	COMDAT pdata
pdata	SEGMENT
$pdata$??$construct@VErrorInfo@Reader@Json@@$$V@?$allocator_traits@V?$allocator@VErrorInfo@Reader@Json@@@std@@@std@@SAXAEAV?$allocator@VErrorInfo@Reader@Json@@@1@PEAVErrorInfo@Reader@Json@@@Z DD imagerel $LN3@construct
	DD	imagerel $LN3@construct+34
	DD	imagerel $unwind$??$construct@VErrorInfo@Reader@Json@@$$V@?$allocator_traits@V?$allocator@VErrorInfo@Reader@Json@@@std@@@std@@SAXAEAV?$allocator@VErrorInfo@Reader@Json@@@1@PEAVErrorInfo@Reader@Json@@@Z
pdata	ENDS
;	COMDAT pdata
pdata	SEGMENT
$pdata$??$construct@VErrorInfo@Reader@Json@@AEBV123@@?$allocator@VErrorInfo@Reader@Json@@@std@@QEAAXPEAVErrorInfo@Reader@Json@@AEBV234@@Z DD imagerel $LN6@construct
	DD	imagerel $LN6@construct+110
	DD	imagerel $unwind$??$construct@VErrorInfo@Reader@Json@@AEBV123@@?$allocator@VErrorInfo@Reader@Json@@@std@@QEAAXPEAVErrorInfo@Reader@Json@@AEBV234@@Z
pdata	ENDS
;	COMDAT pdata
pdata	SEGMENT
$pdata$?dtor$0@?0???$construct@VErrorInfo@Reader@Json@@AEBV123@@?$allocator@VErrorInfo@Reader@Json@@@std@@QEAAXPEAVErrorInfo@Reader@Json@@AEBV234@@Z@4HA DD imagerel ?dtor$0@?0???$construct@VErrorInfo@Reader@Json@@AEBV123@@?$allocator@VErrorInfo@Reader@Json@@@std@@QEAAXPEAVErrorInfo@Reader@Json@@AEBV234@@Z@4HA
	DD	imagerel ?dtor$0@?0???$construct@VErrorInfo@Reader@Json@@AEBV123@@?$allocator@VErrorInfo@Reader@Json@@@std@@QEAAXPEAVErrorInfo@Reader@Json@@AEBV234@@Z@4HA+28
	DD	imagerel $unwind$?dtor$0@?0???$construct@VErrorInfo@Reader@Json@@AEBV123@@?$allocator@VErrorInfo@Reader@Json@@@std@@QEAAXPEAVErrorInfo@Reader@Json@@AEBV234@@Z@4HA
pdata	ENDS
;	COMDAT pdata
pdata	SEGMENT
$pdata$??$_Insert_nohint@AEAU?$pair@$$CBVCZString@Value@Json@@V23@@std@@PEAU?$_Tree_node@U?$pair@$$CBVCZString@Value@Json@@V23@@std@@PEAX@2@@?$_Tree@V?$_Tmap_traits@VCZString@Value@Json@@V23@U?$less@VCZString@Value@Json@@@std@@V?$allocator@U?$pair@$$CBVCZString@Value@Json@@V23@@std@@@5@$0A@@std@@@std@@IEAA?AU?$pair@V?$_Tree_iterator@V?$_Tree_val@U?$_Tree_simple_types@U?$pair@$$CBVCZString@Value@Json@@V23@@std@@@std@@@std@@@std@@_N@1@_NAEAU?$pair@$$CBVCZString@Value@Json@@V23@@1@PEAU?$_Tree_node@U?$pair@$$CBVCZString@Value@Json@@V23@@std@@PEAX@1@@Z DD imagerel $LN26@Insert_noh
	DD	imagerel $LN26@Insert_noh+1132
	DD	imagerel $unwind$??$_Insert_nohint@AEAU?$pair@$$CBVCZString@Value@Json@@V23@@std@@PEAU?$_Tree_node@U?$pair@$$CBVCZString@Value@Json@@V23@@std@@PEAX@2@@?$_Tree@V?$_Tmap_traits@VCZString@Value@Json@@V23@U?$less@VCZString@Value@Json@@@std@@V?$allocator@U?$pair@$$CBVCZString@Value@Json@@V23@@std@@@5@$0A@@std@@@std@@IEAA?AU?$pair@V?$_Tree_iterator@V?$_Tree_val@U?$_Tree_simple_types@U?$pair@$$CBVCZString@Value@Json@@V23@@std@@@std@@@std@@@std@@_N@1@_NAEAU?$pair@$$CBVCZString@Value@Json@@V23@@1@PEAU?$_Tree_node@U?$pair@$$CBVCZString@Value@Json@@V23@@std@@PEAX@1@@Z
pdata	ENDS
;	COMDAT pdata
pdata	SEGMENT
$pdata$?catch$0@?0???$_Insert_nohint@AEAU?$pair@$$CBVCZString@Value@Json@@V23@@std@@PEAU?$_Tree_node@U?$pair@$$CBVCZString@Value@Json@@V23@@std@@PEAX@2@@?$_Tree@V?$_Tmap_traits@VCZString@Value@Json@@V23@U?$less@VCZString@Value@Json@@@std@@V?$allocator@U?$pair@$$CBVCZString@Value@Json@@V23@@std@@@5@$0A@@std@@@std@@IEAA?AU?$pair@V?$_Tree_iterator@V?$_Tree_val@U?$_Tree_simple_types@U?$pair@$$CBVCZString@Value@Json@@V23@@std@@@std@@@std@@@std@@_N@1@_NAEAU?$pair@$$CBVCZString@Value@Json@@V23@@1@PEAU?$_Tree_node@U?$pair@$$CBVCZString@Value@Json@@V23@@std@@PEAX@1@@Z@4HA DD imagerel ?catch$0@?0???$_Insert_nohint@AEAU?$pair@$$CBVCZString@Value@Json@@V23@@std@@PEAU?$_Tree_node@U?$pair@$$CBVCZString@Value@Json@@V23@@std@@PEAX@2@@?$_Tree@V?$_Tmap_traits@VCZString@Value@Json@@V23@U?$less@VCZString@Value@Json@@@std@@V?$allocator@U?$pair@$$CBVCZString@Value@Json@@V23@@std@@@5@$0A@@std@@@std@@IEAA?AU?$pair@V?$_Tree_iterator@V?$_Tree_val@U?$_Tree_simple_types@U?$pair@$$CBVCZString@Value@Json@@V23@@std@@@std@@@std@@@std@@_N@1@_NAEAU?$pair@$$CBVCZString@Value@Json@@V23@@1@PEAU?$_Tree_node@U?$pair@$$CBVCZString@Value@Json@@V23@@std@@PEAX@1@@Z@4HA
	DD	imagerel ?catch$0@?0???$_Insert_nohint@AEAU?$pair@$$CBVCZString@Value@Json@@V23@@std@@PEAU?$_Tree_node@U?$pair@$$CBVCZString@Value@Json@@V23@@std@@PEAX@2@@?$_Tree@V?$_Tmap_traits@VCZString@Value@Json@@V23@U?$less@VCZString@Value@Json@@@std@@V?$allocator@U?$pair@$$CBVCZString@Value@Json@@V23@@std@@@5@$0A@@std@@@std@@IEAA?AU?$pair@V?$_Tree_iterator@V?$_Tree_val@U?$_Tree_simple_types@U?$pair@$$CBVCZString@Value@Json@@V23@@std@@@std@@@std@@@std@@_N@1@_NAEAU?$pair@$$CBVCZString@Value@Json@@V23@@1@PEAU?$_Tree_node@U?$pair@$$CBVCZString@Value@Json@@V23@@std@@PEAX@1@@Z@4HA+56
	DD	imagerel $unwind$?catch$0@?0???$_Insert_nohint@AEAU?$pair@$$CBVCZString@Value@Json@@V23@@std@@PEAU?$_Tree_node@U?$pair@$$CBVCZString@Value@Json@@V23@@std@@PEAX@2@@?$_Tree@V?$_Tmap_traits@VCZString@Value@Json@@V23@U?$less@VCZString@Value@Json@@@std@@V?$allocator@U?$pair@$$CBVCZString@Value@Json@@V23@@std@@@5@$0A@@std@@@std@@IEAA?AU?$pair@V?$_Tree_iterator@V?$_Tree_val@U?$_Tree_simple_types@U?$pair@$$CBVCZString@Value@Json@@V23@@std@@@std@@@std@@@std@@_N@1@_NAEAU?$pair@$$CBVCZString@Value@Json@@V23@@1@PEAU?$_Tree_node@U?$pair@$$CBVCZString@Value@Json@@V23@@std@@PEAX@1@@Z@4HA
pdata	ENDS
;	COMDAT pdata
pdata	SEGMENT
$pdata$??$_Insert_at@AEAU?$pair@$$CBVCZString@Value@Json@@V23@@std@@PEAU?$_Tree_node@U?$pair@$$CBVCZString@Value@Json@@V23@@std@@PEAX@2@@?$_Tree@V?$_Tmap_traits@VCZString@Value@Json@@V23@U?$less@VCZString@Value@Json@@@std@@V?$allocator@U?$pair@$$CBVCZString@Value@Json@@V23@@std@@@5@$0A@@std@@@std@@IEAA?AV?$_Tree_iterator@V?$_Tree_val@U?$_Tree_simple_types@U?$pair@$$CBVCZString@Value@Json@@V23@@std@@@std@@@std@@@1@_NPEAU?$_Tree_node@U?$pair@$$CBVCZString@Value@Json@@V23@@std@@PEAX@1@AEAU?$pair@$$CBVCZString@Value@Json@@V23@@1@1@Z DD imagerel $LN21@Insert_at
	DD	imagerel $LN21@Insert_at+1119
	DD	imagerel $unwind$??$_Insert_at@AEAU?$pair@$$CBVCZString@Value@Json@@V23@@std@@PEAU?$_Tree_node@U?$pair@$$CBVCZString@Value@Json@@V23@@std@@PEAX@2@@?$_Tree@V?$_Tmap_traits@VCZString@Value@Json@@V23@U?$less@VCZString@Value@Json@@@std@@V?$allocator@U?$pair@$$CBVCZString@Value@Json@@V23@@std@@@5@$0A@@std@@@std@@IEAA?AV?$_Tree_iterator@V?$_Tree_val@U?$_Tree_simple_types@U?$pair@$$CBVCZString@Value@Json@@V23@@std@@@std@@@std@@@1@_NPEAU?$_Tree_node@U?$pair@$$CBVCZString@Value@Json@@V23@@std@@PEAX@1@AEAU?$pair@$$CBVCZString@Value@Json@@V23@@1@1@Z
pdata	ENDS
;	COMDAT pdata
pdata	SEGMENT
$pdata$??$construct@U?$pair@$$CBVCZString@Value@Json@@V23@@std@@AEAU12@@?$_Wrap_alloc@V?$allocator@U?$_Tree_node@U?$pair@$$CBVCZString@Value@Json@@V23@@std@@PEAX@std@@@std@@@std@@QEAAXPEAU?$pair@$$CBVCZString@Value@Json@@V23@@1@AEAU21@@Z DD imagerel $LN3@construct
	DD	imagerel $LN3@construct+52
	DD	imagerel $unwind$??$construct@U?$pair@$$CBVCZString@Value@Json@@V23@@std@@AEAU12@@?$_Wrap_alloc@V?$allocator@U?$_Tree_node@U?$pair@$$CBVCZString@Value@Json@@V23@@std@@PEAX@std@@@std@@@std@@QEAAXPEAU?$pair@$$CBVCZString@Value@Json@@V23@@1@AEAU21@@Z
pdata	ENDS
;	COMDAT pdata
pdata	SEGMENT
$pdata$?_Destroy_if_not_nil@?$_Tree@V?$_Tmap_traits@VCZString@Value@Json@@V23@U?$less@VCZString@Value@Json@@@std@@V?$allocator@U?$pair@$$CBVCZString@Value@Json@@V23@@std@@@5@$0A@@std@@@std@@IEAAXPEAU?$_Tree_node@U?$pair@$$CBVCZString@Value@Json@@V23@@std@@PEAX@2@@Z DD imagerel $LN3@Destroy_if
	DD	imagerel $LN3@Destroy_if+97
	DD	imagerel $unwind$?_Destroy_if_not_nil@?$_Tree@V?$_Tmap_traits@VCZString@Value@Json@@V23@U?$less@VCZString@Value@Json@@@std@@V?$allocator@U?$pair@$$CBVCZString@Value@Json@@V23@@std@@@5@$0A@@std@@@std@@IEAAXPEAU?$_Tree_node@U?$pair@$$CBVCZString@Value@Json@@V23@@std@@PEAX@2@@Z
pdata	ENDS
;	COMDAT pdata
pdata	SEGMENT
$pdata$?_Buynode0@?$_Tree_comp_alloc@V?$_Tmap_traits@VCZString@Value@Json@@V23@U?$less@VCZString@Value@Json@@@std@@V?$allocator@U?$pair@$$CBVCZString@Value@Json@@V23@@std@@@5@$0A@@std@@@std@@QEAAPEAU?$_Tree_node@U?$pair@$$CBVCZString@Value@Json@@V23@@std@@PEAX@2@XZ DD imagerel $LN10@Buynode0
	DD	imagerel $LN10@Buynode0+323
	DD	imagerel $unwind$?_Buynode0@?$_Tree_comp_alloc@V?$_Tmap_traits@VCZString@Value@Json@@V23@U?$less@VCZString@Value@Json@@@std@@V?$allocator@U?$pair@$$CBVCZString@Value@Json@@V23@@std@@@5@$0A@@std@@@std@@QEAAPEAU?$_Tree_node@U?$pair@$$CBVCZString@Value@Json@@V23@@std@@PEAX@2@XZ
pdata	ENDS
;	COMDAT pdata
pdata	SEGMENT
$pdata$?catch$0@?0??_Buynode0@?$_Tree_comp_alloc@V?$_Tmap_traits@VCZString@Value@Json@@V23@U?$less@VCZString@Value@Json@@@std@@V?$allocator@U?$pair@$$CBVCZString@Value@Json@@V23@@std@@@5@$0A@@std@@@std@@QEAAPEAU?$_Tree_node@U?$pair@$$CBVCZString@Value@Json@@V23@@std@@PEAX@2@XZ@4HA DD imagerel ?catch$0@?0??_Buynode0@?$_Tree_comp_alloc@V?$_Tmap_traits@VCZString@Value@Json@@V23@U?$less@VCZString@Value@Json@@@std@@V?$allocator@U?$pair@$$CBVCZString@Value@Json@@V23@@std@@@5@$0A@@std@@@std@@QEAAPEAU?$_Tree_node@U?$pair@$$CBVCZString@Value@Json@@V23@@std@@PEAX@2@XZ@4HA
	DD	imagerel ?catch$0@?0??_Buynode0@?$_Tree_comp_alloc@V?$_Tmap_traits@VCZString@Value@Json@@V23@U?$less@VCZString@Value@Json@@@std@@V?$allocator@U?$pair@$$CBVCZString@Value@Json@@V23@@std@@@5@$0A@@std@@@std@@QEAAPEAU?$_Tree_node@U?$pair@$$CBVCZString@Value@Json@@V23@@std@@PEAX@2@XZ@4HA+67
	DD	imagerel $unwind$?catch$0@?0??_Buynode0@?$_Tree_comp_alloc@V?$_Tmap_traits@VCZString@Value@Json@@V23@U?$less@VCZString@Value@Json@@@std@@V?$allocator@U?$pair@$$CBVCZString@Value@Json@@V23@@std@@@5@$0A@@std@@@std@@QEAAPEAU?$_Tree_node@U?$pair@$$CBVCZString@Value@Json@@V23@@std@@PEAX@2@XZ@4HA
pdata	ENDS
;	COMDAT pdata
pdata	SEGMENT
$pdata$?_Freenode0@?$_Tree_comp_alloc@V?$_Tmap_traits@VCZString@Value@Json@@V23@U?$less@VCZString@Value@Json@@@std@@V?$allocator@U?$pair@$$CBVCZString@Value@Json@@V23@@std@@@5@$0A@@std@@@std@@QEAAXPEAU?$_Tree_node@U?$pair@$$CBVCZString@Value@Json@@V23@@std@@PEAX@2@@Z DD imagerel $LN3@Freenode0
	DD	imagerel $LN3@Freenode0+195
	DD	imagerel $unwind$?_Freenode0@?$_Tree_comp_alloc@V?$_Tmap_traits@VCZString@Value@Json@@V23@U?$less@VCZString@Value@Json@@@std@@V?$allocator@U?$pair@$$CBVCZString@Value@Json@@V23@@std@@@5@$0A@@std@@@std@@QEAAXPEAU?$_Tree_node@U?$pair@$$CBVCZString@Value@Json@@V23@@std@@PEAX@2@@Z
pdata	ENDS
;	COMDAT pdata
pdata	SEGMENT
$pdata$??$construct@PEAU?$_Tree_node@U?$pair@$$CBVCZString@Value@Json@@V23@@std@@PEAX@std@@AEAPEAU12@@?$allocator_traits@V?$allocator@U?$_Tree_node@U?$pair@$$CBVCZString@Value@Json@@V23@@std@@PEAX@std@@@std@@@std@@SAXAEAV?$allocator@U?$_Tree_node@U?$pair@$$CBVCZString@Value@Json@@V23@@std@@PEAX@std@@@1@PEAPEAU?$_Tree_node@U?$pair@$$CBVCZString@Value@Json@@V23@@std@@PEAX@1@AEAPEAU31@@Z DD imagerel $LN3@construct
	DD	imagerel $LN3@construct+52
	DD	imagerel $unwind$??$construct@PEAU?$_Tree_node@U?$pair@$$CBVCZString@Value@Json@@V23@@std@@PEAX@std@@AEAPEAU12@@?$allocator_traits@V?$allocator@U?$_Tree_node@U?$pair@$$CBVCZString@Value@Json@@V23@@std@@PEAX@std@@@std@@@std@@SAXAEAV?$allocator@U?$_Tree_node@U?$pair@$$CBVCZString@Value@Json@@V23@@std@@PEAX@std@@@1@PEAPEAU?$_Tree_node@U?$pair@$$CBVCZString@Value@Json@@V23@@std@@PEAX@1@AEAPEAU31@@Z
pdata	ENDS
;	COMDAT pdata
pdata	SEGMENT
$pdata$??$?0AEBV?$allocator@U?$pair@$$CBVCZString@Value@Json@@V23@@std@@@std@@$$V@?$_Compressed_pair@U?$_Wrap_alloc@V?$allocator@U?$_Tree_node@U?$pair@$$CBVCZString@Value@Json@@V23@@std@@PEAX@std@@@std@@@std@@V?$_Tree_val@U?$_Tree_simple_types@U?$pair@$$CBVCZString@Value@Json@@V23@@std@@@std@@@2@$00@std@@QEAA@U_One_then_variadic_args_t@1@AEBV?$allocator@U?$pair@$$CBVCZString@Value@Json@@V23@@std@@@1@@Z DD imagerel $LN3@Value
	DD	imagerel $LN3@Value+64
	DD	imagerel $unwind$??$?0AEBV?$allocator@U?$pair@$$CBVCZString@Value@Json@@V23@@std@@@std@@$$V@?$_Compressed_pair@U?$_Wrap_alloc@V?$allocator@U?$_Tree_node@U?$pair@$$CBVCZString@Value@Json@@V23@@std@@PEAX@std@@@std@@@std@@V?$_Tree_val@U?$_Tree_simple_types@U?$pair@$$CBVCZString@Value@Json@@V23@@std@@@std@@@2@$00@std@@QEAA@U_One_then_variadic_args_t@1@AEBV?$allocator@U?$pair@$$CBVCZString@Value@Json@@V23@@std@@@1@@Z
pdata	ENDS
;	COMDAT pdata
pdata	SEGMENT
$pdata$??$destroy@PEAU?$_Tree_node@U?$pair@$$CBVCZString@Value@Json@@V23@@std@@PEAX@std@@@?$allocator_traits@V?$allocator@U?$_Tree_node@U?$pair@$$CBVCZString@Value@Json@@V23@@std@@PEAX@std@@@std@@@std@@SAXAEAV?$allocator@U?$_Tree_node@U?$pair@$$CBVCZString@Value@Json@@V23@@std@@PEAX@std@@@1@PEAPEAU?$_Tree_node@U?$pair@$$CBVCZString@Value@Json@@V23@@std@@PEAX@1@@Z DD imagerel $LN3@destroy
	DD	imagerel $LN3@destroy+34
	DD	imagerel $unwind$??$destroy@PEAU?$_Tree_node@U?$pair@$$CBVCZString@Value@Json@@V23@@std@@PEAX@std@@@?$allocator_traits@V?$allocator@U?$_Tree_node@U?$pair@$$CBVCZString@Value@Json@@V23@@std@@PEAX@std@@@std@@@std@@SAXAEAV?$allocator@U?$_Tree_node@U?$pair@$$CBVCZString@Value@Json@@V23@@std@@PEAX@std@@@1@PEAPEAU?$_Tree_node@U?$pair@$$CBVCZString@Value@Json@@V23@@std@@PEAX@1@@Z
pdata	ENDS
;	COMDAT pdata
pdata	SEGMENT
$pdata$??$_Uninit_def_fill_n@PEAPEAVValue@Json@@_KPEAPEAV12@@std@@YAXPEAPEAPEAVValue@Json@@_KAEAU?$_Wrap_alloc@V?$allocator@PEAPEAVValue@Json@@@std@@@0@0U_Scalar_ptr_iterator_tag@0@@Z DD imagerel $LN3@Uninit_def
	DD	imagerel $LN3@Uninit_def+58
	DD	imagerel $unwind$??$_Uninit_def_fill_n@PEAPEAVValue@Json@@_KPEAPEAV12@@std@@YAXPEAPEAPEAVValue@Json@@_KAEAU?$_Wrap_alloc@V?$allocator@PEAPEAVValue@Json@@@std@@@0@0U_Scalar_ptr_iterator_tag@0@@Z
pdata	ENDS
;	COMDAT pdata
pdata	SEGMENT
$pdata$??$_Ptr_cat@PEAPEAVValue@Json@@PEAPEAV12@@std@@YA?AU_Scalar_ptr_iterator_tag@0@PEAPEAPEAVValue@Json@@0@Z DD imagerel $LN3@Ptr_cat
	DD	imagerel $LN3@Ptr_cat+23
	DD	imagerel $unwind$??$_Ptr_cat@PEAPEAVValue@Json@@PEAPEAV12@@std@@YA?AU_Scalar_ptr_iterator_tag@0@PEAPEAPEAVValue@Json@@0@Z
pdata	ENDS
;	COMDAT pdata
pdata	SEGMENT
$pdata$??$_Uninit_copy@PEAPEAPEAVValue@Json@@PEAPEAPEAV12@U?$_Wrap_alloc@V?$allocator@PEAPEAVValue@Json@@@std@@@std@@@std@@YAPEAPEAPEAVValue@Json@@PEAPEAPEAV12@00AEAU?$_Wrap_alloc@V?$allocator@PEAPEAVValue@Json@@@std@@@0@@Z DD imagerel $LN3@Uninit_cop
	DD	imagerel $LN3@Uninit_cop+82
	DD	imagerel $unwind$??$_Uninit_copy@PEAPEAPEAVValue@Json@@PEAPEAPEAV12@U?$_Wrap_alloc@V?$allocator@PEAPEAVValue@Json@@@std@@@std@@@std@@YAPEAPEAPEAVValue@Json@@PEAPEAPEAV12@00AEAU?$_Wrap_alloc@V?$allocator@PEAPEAVValue@Json@@@std@@@0@@Z
pdata	ENDS
;	COMDAT pdata
pdata	SEGMENT
$pdata$??$construct@U_Container_proxy@std@@U12@@?$allocator_traits@V?$allocator@U_Container_proxy@std@@@std@@@std@@SAXAEAV?$allocator@U_Container_proxy@std@@@1@PEAU_Container_proxy@1@$$QEAU31@@Z DD imagerel $LN3@construct
	DD	imagerel $LN3@construct+52
	DD	imagerel $unwind$??$construct@U_Container_proxy@std@@U12@@?$allocator_traits@V?$allocator@U_Container_proxy@std@@@std@@@std@@SAXAEAV?$allocator@U_Container_proxy@std@@@1@PEAU_Container_proxy@1@$$QEAU31@@Z
pdata	ENDS
;	COMDAT pdata
pdata	SEGMENT
$pdata$??$destroy@U_Container_proxy@std@@@?$allocator_traits@V?$allocator@U_Container_proxy@std@@@std@@@std@@SAXAEAV?$allocator@U_Container_proxy@std@@@1@PEAU_Container_proxy@1@@Z DD imagerel $LN3@destroy
	DD	imagerel $LN3@destroy+34
	DD	imagerel $unwind$??$destroy@U_Container_proxy@std@@@?$allocator_traits@V?$allocator@U_Container_proxy@std@@@std@@@std@@SAXAEAV?$allocator@U_Container_proxy@std@@@1@PEAU_Container_proxy@1@@Z
pdata	ENDS
;	COMDAT pdata
pdata	SEGMENT
$pdata$??$_Copy_nodes@U_Copy_tag@?$_Tree@V?$_Tmap_traits@VCZString@Value@Json@@V23@U?$less@VCZString@Value@Json@@@std@@V?$allocator@U?$pair@$$CBVCZString@Value@Json@@V23@@std@@@5@$0A@@std@@@std@@@?$_Tree@V?$_Tmap_traits@VCZString@Value@Json@@V23@U?$less@VCZString@Value@Json@@@std@@V?$allocator@U?$pair@$$CBVCZString@Value@Json@@V23@@std@@@5@$0A@@std@@@std@@IEAAPEAU?$_Tree_node@U?$pair@$$CBVCZString@Value@Json@@V23@@std@@PEAX@1@PEAU21@0U_Copy_tag@01@@Z DD imagerel $LN12@Copy_nodes
	DD	imagerel $LN12@Copy_nodes+379
	DD	imagerel $unwind$??$_Copy_nodes@U_Copy_tag@?$_Tree@V?$_Tmap_traits@VCZString@Value@Json@@V23@U?$less@VCZString@Value@Json@@@std@@V?$allocator@U?$pair@$$CBVCZString@Value@Json@@V23@@std@@@5@$0A@@std@@@std@@@?$_Tree@V?$_Tmap_traits@VCZString@Value@Json@@V23@U?$less@VCZString@Value@Json@@@std@@V?$allocator@U?$pair@$$CBVCZString@Value@Json@@V23@@std@@@5@$0A@@std@@@std@@IEAAPEAU?$_Tree_node@U?$pair@$$CBVCZString@Value@Json@@V23@@std@@PEAX@1@PEAU21@0U_Copy_tag@01@@Z
pdata	ENDS
;	COMDAT pdata
pdata	SEGMENT
$pdata$?catch$0@?0???$_Copy_nodes@U_Copy_tag@?$_Tree@V?$_Tmap_traits@VCZString@Value@Json@@V23@U?$less@VCZString@Value@Json@@@std@@V?$allocator@U?$pair@$$CBVCZString@Value@Json@@V23@@std@@@5@$0A@@std@@@std@@@?$_Tree@V?$_Tmap_traits@VCZString@Value@Json@@V23@U?$less@VCZString@Value@Json@@@std@@V?$allocator@U?$pair@$$CBVCZString@Value@Json@@V23@@std@@@5@$0A@@std@@@std@@IEAAPEAU?$_Tree_node@U?$pair@$$CBVCZString@Value@Json@@V23@@std@@PEAX@1@PEAU21@0U_Copy_tag@01@@Z@4HA DD imagerel ?catch$0@?0???$_Copy_nodes@U_Copy_tag@?$_Tree@V?$_Tmap_traits@VCZString@Value@Json@@V23@U?$less@VCZString@Value@Json@@@std@@V?$allocator@U?$pair@$$CBVCZString@Value@Json@@V23@@std@@@5@$0A@@std@@@std@@@?$_Tree@V?$_Tmap_traits@VCZString@Value@Json@@V23@U?$less@VCZString@Value@Json@@@std@@V?$allocator@U?$pair@$$CBVCZString@Value@Json@@V23@@std@@@5@$0A@@std@@@std@@IEAAPEAU?$_Tree_node@U?$pair@$$CBVCZString@Value@Json@@V23@@std@@PEAX@1@PEAU21@0U_Copy_tag@01@@Z@4HA
	DD	imagerel ?catch$0@?0???$_Copy_nodes@U_Copy_tag@?$_Tree@V?$_Tmap_traits@VCZString@Value@Json@@V23@U?$less@VCZString@Value@Json@@@std@@V?$allocator@U?$pair@$$CBVCZString@Value@Json@@V23@@std@@@5@$0A@@std@@@std@@@?$_Tree@V?$_Tmap_traits@VCZString@Value@Json@@V23@U?$less@VCZString@Value@Json@@@std@@V?$allocator@U?$pair@$$CBVCZString@Value@Json@@V23@@std@@@5@$0A@@std@@@std@@IEAAPEAU?$_Tree_node@U?$pair@$$CBVCZString@Value@Json@@V23@@std@@PEAX@1@PEAU21@0U_Copy_tag@01@@Z@4HA+53
	DD	imagerel $unwind$?catch$0@?0???$_Copy_nodes@U_Copy_tag@?$_Tree@V?$_Tmap_traits@VCZString@Value@Json@@V23@U?$less@VCZString@Value@Json@@@std@@V?$allocator@U?$pair@$$CBVCZString@Value@Json@@V23@@std@@@5@$0A@@std@@@std@@@?$_Tree@V?$_Tmap_traits@VCZString@Value@Json@@V23@U?$less@VCZString@Value@Json@@@std@@V?$allocator@U?$pair@$$CBVCZString@Value@Json@@V23@@std@@@5@$0A@@std@@@std@@IEAAPEAU?$_Tree_node@U?$pair@$$CBVCZString@Value@Json@@V23@@std@@PEAX@1@PEAU21@0U_Copy_tag@01@@Z@4HA
pdata	ENDS
;	COMDAT pdata
pdata	SEGMENT
$pdata$??$destroy@VErrorInfo@Reader@Json@@@?$allocator_traits@V?$allocator@VErrorInfo@Reader@Json@@@std@@@std@@SAXAEAV?$allocator@VErrorInfo@Reader@Json@@@1@PEAVErrorInfo@Reader@Json@@@Z DD imagerel $LN3@destroy
	DD	imagerel $LN3@destroy+34
	DD	imagerel $unwind$??$destroy@VErrorInfo@Reader@Json@@@?$allocator_traits@V?$allocator@VErrorInfo@Reader@Json@@@std@@@std@@SAXAEAV?$allocator@VErrorInfo@Reader@Json@@@1@PEAVErrorInfo@Reader@Json@@@Z
pdata	ENDS
;	COMDAT pdata
pdata	SEGMENT
$pdata$??$_Uninit_def_fill_n@PEAVErrorInfo@Reader@Json@@_KPEAV123@@std@@YAXPEAPEAVErrorInfo@Reader@Json@@_KAEAU?$_Wrap_alloc@V?$allocator@PEAVErrorInfo@Reader@Json@@@std@@@0@0U_Scalar_ptr_iterator_tag@0@@Z DD imagerel $LN3@Uninit_def
	DD	imagerel $LN3@Uninit_def+58
	DD	imagerel $unwind$??$_Uninit_def_fill_n@PEAVErrorInfo@Reader@Json@@_KPEAV123@@std@@YAXPEAPEAVErrorInfo@Reader@Json@@_KAEAU?$_Wrap_alloc@V?$allocator@PEAVErrorInfo@Reader@Json@@@std@@@0@0U_Scalar_ptr_iterator_tag@0@@Z
pdata	ENDS
;	COMDAT pdata
pdata	SEGMENT
$pdata$??$_Ptr_cat@PEAVErrorInfo@Reader@Json@@PEAV123@@std@@YA?AU_Scalar_ptr_iterator_tag@0@PEAPEAVErrorInfo@Reader@Json@@0@Z DD imagerel $LN3@Ptr_cat
	DD	imagerel $LN3@Ptr_cat+23
	DD	imagerel $unwind$??$_Ptr_cat@PEAVErrorInfo@Reader@Json@@PEAV123@@std@@YA?AU_Scalar_ptr_iterator_tag@0@PEAPEAVErrorInfo@Reader@Json@@0@Z
pdata	ENDS
;	COMDAT pdata
pdata	SEGMENT
$pdata$??$_Uninit_copy@PEAPEAVErrorInfo@Reader@Json@@PEAPEAV123@U?$_Wrap_alloc@V?$allocator@PEAVErrorInfo@Reader@Json@@@std@@@std@@@std@@YAPEAPEAVErrorInfo@Reader@Json@@PEAPEAV123@00AEAU?$_Wrap_alloc@V?$allocator@PEAVErrorInfo@Reader@Json@@@std@@@0@@Z DD imagerel $LN3@Uninit_cop
	DD	imagerel $LN3@Uninit_cop+82
	DD	imagerel $unwind$??$_Uninit_copy@PEAPEAVErrorInfo@Reader@Json@@PEAPEAV123@U?$_Wrap_alloc@V?$allocator@PEAVErrorInfo@Reader@Json@@@std@@@std@@@std@@YAPEAPEAVErrorInfo@Reader@Json@@PEAPEAV123@00AEAU?$_Wrap_alloc@V?$allocator@PEAVErrorInfo@Reader@Json@@@std@@@0@@Z
pdata	ENDS
;	COMDAT pdata
pdata	SEGMENT
$pdata$??$destroy@PEAVErrorInfo@Reader@Json@@@?$allocator_traits@V?$allocator@VErrorInfo@Reader@Json@@@std@@@std@@SAXAEAV?$allocator@VErrorInfo@Reader@Json@@@1@PEAPEAVErrorInfo@Reader@Json@@@Z DD imagerel $LN3@destroy
	DD	imagerel $LN3@destroy+34
	DD	imagerel $unwind$??$destroy@PEAVErrorInfo@Reader@Json@@@?$allocator_traits@V?$allocator@VErrorInfo@Reader@Json@@@std@@@std@@SAXAEAV?$allocator@VErrorInfo@Reader@Json@@@1@PEAPEAVErrorInfo@Reader@Json@@@Z
pdata	ENDS
;	COMDAT pdata
pdata	SEGMENT
$pdata$??$construct@PEAVValue@Json@@PEAV12@@?$allocator_traits@V?$allocator@PEAVValue@Json@@@std@@@std@@SAXAEAV?$allocator@PEAVValue@Json@@@1@PEAPEAVValue@Json@@$$QEAPEAV34@@Z DD imagerel $LN3@construct
	DD	imagerel $LN3@construct+52
	DD	imagerel $unwind$??$construct@PEAVValue@Json@@PEAV12@@?$allocator_traits@V?$allocator@PEAVValue@Json@@@std@@@std@@SAXAEAV?$allocator@PEAVValue@Json@@@1@PEAPEAVValue@Json@@$$QEAPEAV34@@Z
pdata	ENDS
;	COMDAT pdata
pdata	SEGMENT
$pdata$??$destroy@PEAVValue@Json@@@?$allocator_traits@V?$allocator@PEAVValue@Json@@@std@@@std@@SAXAEAV?$allocator@PEAVValue@Json@@@1@PEAPEAVValue@Json@@@Z DD imagerel $LN3@destroy
	DD	imagerel $LN3@destroy+34
	DD	imagerel $unwind$??$destroy@PEAVValue@Json@@@?$allocator_traits@V?$allocator@PEAVValue@Json@@@std@@@std@@SAXAEAV?$allocator@PEAVValue@Json@@@1@PEAPEAVValue@Json@@@Z
pdata	ENDS
;	COMDAT pdata
pdata	SEGMENT
$pdata$??$destroy@PEAPEAVValue@Json@@@?$allocator_traits@V?$allocator@PEAVValue@Json@@@std@@@std@@SAXAEAV?$allocator@PEAVValue@Json@@@1@PEAPEAPEAVValue@Json@@@Z DD imagerel $LN3@destroy
	DD	imagerel $LN3@destroy+34
	DD	imagerel $unwind$??$destroy@PEAPEAVValue@Json@@@?$allocator_traits@V?$allocator@PEAVValue@Json@@@std@@@std@@SAXAEAV?$allocator@PEAVValue@Json@@@1@PEAPEAPEAVValue@Json@@@Z
pdata	ENDS
;	COMDAT pdata
pdata	SEGMENT
$pdata$??$destroy@U?$pair@$$CBVCZString@Value@Json@@V23@@std@@@?$allocator_traits@V?$allocator@U?$_Tree_node@U?$pair@$$CBVCZString@Value@Json@@V23@@std@@PEAX@std@@@std@@@std@@SAXAEAV?$allocator@U?$_Tree_node@U?$pair@$$CBVCZString@Value@Json@@V23@@std@@PEAX@std@@@1@PEAU?$pair@$$CBVCZString@Value@Json@@V23@@1@@Z DD imagerel $LN3@destroy
	DD	imagerel $LN3@destroy+34
	DD	imagerel $unwind$??$destroy@U?$pair@$$CBVCZString@Value@Json@@V23@@std@@@?$allocator_traits@V?$allocator@U?$_Tree_node@U?$pair@$$CBVCZString@Value@Json@@V23@@std@@PEAX@std@@@std@@@std@@SAXAEAV?$allocator@U?$_Tree_node@U?$pair@$$CBVCZString@Value@Json@@V23@@std@@PEAX@std@@@1@PEAU?$pair@$$CBVCZString@Value@Json@@V23@@1@@Z
pdata	ENDS
;	COMDAT pdata
pdata	SEGMENT
$pdata$??$construct@VErrorInfo@Reader@Json@@$$V@?$_Wrap_alloc@V?$allocator@VErrorInfo@Reader@Json@@@std@@@std@@QEAAXPEAVErrorInfo@Reader@Json@@@Z DD imagerel $LN3@construct
	DD	imagerel $LN3@construct+34
	DD	imagerel $unwind$??$construct@VErrorInfo@Reader@Json@@$$V@?$_Wrap_alloc@V?$allocator@VErrorInfo@Reader@Json@@@std@@@std@@QEAAXPEAVErrorInfo@Reader@Json@@@Z
pdata	ENDS
;	COMDAT pdata
pdata	SEGMENT
$pdata$??$construct@VErrorInfo@Reader@Json@@AEBV123@@?$allocator_traits@V?$allocator@VErrorInfo@Reader@Json@@@std@@@std@@SAXAEAV?$allocator@VErrorInfo@Reader@Json@@@1@PEAVErrorInfo@Reader@Json@@AEBV345@@Z DD imagerel $LN3@construct
	DD	imagerel $LN3@construct+52
	DD	imagerel $unwind$??$construct@VErrorInfo@Reader@Json@@AEBV123@@?$allocator_traits@V?$allocator@VErrorInfo@Reader@Json@@@std@@@std@@SAXAEAV?$allocator@VErrorInfo@Reader@Json@@@1@PEAVErrorInfo@Reader@Json@@AEBV345@@Z
pdata	ENDS
;	COMDAT pdata
pdata	SEGMENT
$pdata$??$_Iter_cat@PEBD@std@@YA?AUrandom_access_iterator_tag@0@AEBQEBD@Z DD imagerel $LN3@Iter_cat
	DD	imagerel $LN3@Iter_cat+35
	DD	imagerel $unwind$??$_Iter_cat@PEBD@std@@YA?AUrandom_access_iterator_tag@0@AEBQEBD@Z
pdata	ENDS
;	COMDAT pdata
pdata	SEGMENT
$pdata$??$_Insert_hint@AEAU?$pair@$$CBVCZString@Value@Json@@V23@@std@@PEAU?$_Tree_node@U?$pair@$$CBVCZString@Value@Json@@V23@@std@@PEAX@2@@?$_Tree@V?$_Tmap_traits@VCZString@Value@Json@@V23@U?$less@VCZString@Value@Json@@@std@@V?$allocator@U?$pair@$$CBVCZString@Value@Json@@V23@@std@@@5@$0A@@std@@@std@@IEAA?AV?$_Tree_iterator@V?$_Tree_val@U?$_Tree_simple_types@U?$pair@$$CBVCZString@Value@Json@@V23@@std@@@std@@@std@@@1@V?$_Tree_const_iterator@V?$_Tree_val@U?$_Tree_simple_types@U?$pair@$$CBVCZString@Value@Json@@V23@@std@@@std@@@std@@@1@AEAU?$pair@$$CBVCZString@Value@Json@@V23@@1@PEAU?$_Tree_node@U?$pair@$$CBVCZString@Value@Json@@V23@@std@@PEAX@1@@Z DD imagerel $LN43@Insert_hin
	DD	imagerel $LN43@Insert_hin+3802
	DD	imagerel $unwind$??$_Insert_hint@AEAU?$pair@$$CBVCZString@Value@Json@@V23@@std@@PEAU?$_Tree_node@U?$pair@$$CBVCZString@Value@Json@@V23@@std@@PEAX@2@@?$_Tree@V?$_Tmap_traits@VCZString@Value@Json@@V23@U?$less@VCZString@Value@Json@@@std@@V?$allocator@U?$pair@$$CBVCZString@Value@Json@@V23@@std@@@5@$0A@@std@@@std@@IEAA?AV?$_Tree_iterator@V?$_Tree_val@U?$_Tree_simple_types@U?$pair@$$CBVCZString@Value@Json@@V23@@std@@@std@@@std@@@1@V?$_Tree_const_iterator@V?$_Tree_val@U?$_Tree_simple_types@U?$pair@$$CBVCZString@Value@Json@@V23@@std@@@std@@@std@@@1@AEAU?$pair@$$CBVCZString@Value@Json@@V23@@1@PEAU?$_Tree_node@U?$pair@$$CBVCZString@Value@Json@@V23@@std@@PEAX@1@@Z
pdata	ENDS
;	COMDAT pdata
pdata	SEGMENT
$pdata$?catch$0@?0???$_Insert_hint@AEAU?$pair@$$CBVCZString@Value@Json@@V23@@std@@PEAU?$_Tree_node@U?$pair@$$CBVCZString@Value@Json@@V23@@std@@PEAX@2@@?$_Tree@V?$_Tmap_traits@VCZString@Value@Json@@V23@U?$less@VCZString@Value@Json@@@std@@V?$allocator@U?$pair@$$CBVCZString@Value@Json@@V23@@std@@@5@$0A@@std@@@std@@IEAA?AV?$_Tree_iterator@V?$_Tree_val@U?$_Tree_simple_types@U?$pair@$$CBVCZString@Value@Json@@V23@@std@@@std@@@std@@@1@V?$_Tree_const_iterator@V?$_Tree_val@U?$_Tree_simple_types@U?$pair@$$CBVCZString@Value@Json@@V23@@std@@@std@@@std@@@1@AEAU?$pair@$$CBVCZString@Value@Json@@V23@@1@PEAU?$_Tree_node@U?$pair@$$CBVCZString@Value@Json@@V23@@std@@PEAX@1@@Z@4HA DD imagerel ?catch$0@?0???$_Insert_hint@AEAU?$pair@$$CBVCZString@Value@Json@@V23@@std@@PEAU?$_Tree_node@U?$pair@$$CBVCZString@Value@Json@@V23@@std@@PEAX@2@@?$_Tree@V?$_Tmap_traits@VCZString@Value@Json@@V23@U?$less@VCZString@Value@Json@@@std@@V?$allocator@U?$pair@$$CBVCZString@Value@Json@@V23@@std@@@5@$0A@@std@@@std@@IEAA?AV?$_Tree_iterator@V?$_Tree_val@U?$_Tree_simple_types@U?$pair@$$CBVCZString@Value@Json@@V23@@std@@@std@@@std@@@1@V?$_Tree_const_iterator@V?$_Tree_val@U?$_Tree_simple_types@U?$pair@$$CBVCZString@Value@Json@@V23@@std@@@std@@@std@@@1@AEAU?$pair@$$CBVCZString@Value@Json@@V23@@1@PEAU?$_Tree_node@U?$pair@$$CBVCZString@Value@Json@@V23@@std@@PEAX@1@@Z@4HA
	DD	imagerel ?catch$0@?0???$_Insert_hint@AEAU?$pair@$$CBVCZString@Value@Json@@V23@@std@@PEAU?$_Tree_node@U?$pair@$$CBVCZString@Value@Json@@V23@@std@@PEAX@2@@?$_Tree@V?$_Tmap_traits@VCZString@Value@Json@@V23@U?$less@VCZString@Value@Json@@@std@@V?$allocator@U?$pair@$$CBVCZString@Value@Json@@V23@@std@@@5@$0A@@std@@@std@@IEAA?AV?$_Tree_iterator@V?$_Tree_val@U?$_Tree_simple_types@U?$pair@$$CBVCZString@Value@Json@@V23@@std@@@std@@@std@@@1@V?$_Tree_const_iterator@V?$_Tree_val@U?$_Tree_simple_types@U?$pair@$$CBVCZString@Value@Json@@V23@@std@@@std@@@std@@@1@AEAU?$pair@$$CBVCZString@Value@Json@@V23@@1@PEAU?$_Tree_node@U?$pair@$$CBVCZString@Value@Json@@V23@@std@@PEAX@1@@Z@4HA+56
	DD	imagerel $unwind$?catch$0@?0???$_Insert_hint@AEAU?$pair@$$CBVCZString@Value@Json@@V23@@std@@PEAU?$_Tree_node@U?$pair@$$CBVCZString@Value@Json@@V23@@std@@PEAX@2@@?$_Tree@V?$_Tmap_traits@VCZString@Value@Json@@V23@U?$less@VCZString@Value@Json@@@std@@V?$allocator@U?$pair@$$CBVCZString@Value@Json@@V23@@std@@@5@$0A@@std@@@std@@IEAA?AV?$_Tree_iterator@V?$_Tree_val@U?$_Tree_simple_types@U?$pair@$$CBVCZString@Value@Json@@V23@@std@@@std@@@std@@@1@V?$_Tree_const_iterator@V?$_Tree_val@U?$_Tree_simple_types@U?$pair@$$CBVCZString@Value@Json@@V23@@std@@@std@@@std@@@1@AEAU?$pair@$$CBVCZString@Value@Json@@V23@@1@PEAU?$_Tree_node@U?$pair@$$CBVCZString@Value@Json@@V23@@std@@PEAX@1@@Z@4HA
pdata	ENDS
;	COMDAT pdata
pdata	SEGMENT
$pdata$??$_Buynode@AEAU?$pair@$$CBVCZString@Value@Json@@V23@@std@@@?$_Tree_comp_alloc@V?$_Tmap_traits@VCZString@Value@Json@@V23@U?$less@VCZString@Value@Json@@@std@@V?$allocator@U?$pair@$$CBVCZString@Value@Json@@V23@@std@@@5@$0A@@std@@@std@@QEAAPEAU?$_Tree_node@U?$pair@$$CBVCZString@Value@Json@@V23@@std@@PEAX@1@AEAU?$pair@$$CBVCZString@Value@Json@@V23@@1@@Z DD imagerel $LN10@Buynode
	DD	imagerel $LN10@Buynode+156
	DD	imagerel $unwind$??$_Buynode@AEAU?$pair@$$CBVCZString@Value@Json@@V23@@std@@@?$_Tree_comp_alloc@V?$_Tmap_traits@VCZString@Value@Json@@V23@U?$less@VCZString@Value@Json@@@std@@V?$allocator@U?$pair@$$CBVCZString@Value@Json@@V23@@std@@@5@$0A@@std@@@std@@QEAAPEAU?$_Tree_node@U?$pair@$$CBVCZString@Value@Json@@V23@@std@@PEAX@1@AEAU?$pair@$$CBVCZString@Value@Json@@V23@@1@@Z
pdata	ENDS
;	COMDAT pdata
pdata	SEGMENT
$pdata$?catch$0@?0???$_Buynode@AEAU?$pair@$$CBVCZString@Value@Json@@V23@@std@@@?$_Tree_comp_alloc@V?$_Tmap_traits@VCZString@Value@Json@@V23@U?$less@VCZString@Value@Json@@@std@@V?$allocator@U?$pair@$$CBVCZString@Value@Json@@V23@@std@@@5@$0A@@std@@@std@@QEAAPEAU?$_Tree_node@U?$pair@$$CBVCZString@Value@Json@@V23@@std@@PEAX@1@AEAU?$pair@$$CBVCZString@Value@Json@@V23@@1@@Z@4HA DD imagerel ?catch$0@?0???$_Buynode@AEAU?$pair@$$CBVCZString@Value@Json@@V23@@std@@@?$_Tree_comp_alloc@V?$_Tmap_traits@VCZString@Value@Json@@V23@U?$less@VCZString@Value@Json@@@std@@V?$allocator@U?$pair@$$CBVCZString@Value@Json@@V23@@std@@@5@$0A@@std@@@std@@QEAAPEAU?$_Tree_node@U?$pair@$$CBVCZString@Value@Json@@V23@@std@@PEAX@1@AEAU?$pair@$$CBVCZString@Value@Json@@V23@@1@@Z@4HA
	DD	imagerel ?catch$0@?0???$_Buynode@AEAU?$pair@$$CBVCZString@Value@Json@@V23@@std@@@?$_Tree_comp_alloc@V?$_Tmap_traits@VCZString@Value@Json@@V23@U?$less@VCZString@Value@Json@@@std@@V?$allocator@U?$pair@$$CBVCZString@Value@Json@@V23@@std@@@5@$0A@@std@@@std@@QEAAPEAU?$_Tree_node@U?$pair@$$CBVCZString@Value@Json@@V23@@std@@PEAX@1@AEAU?$pair@$$CBVCZString@Value@Json@@V23@@1@@Z@4HA+50
	DD	imagerel $unwind$?catch$0@?0???$_Buynode@AEAU?$pair@$$CBVCZString@Value@Json@@V23@@std@@@?$_Tree_comp_alloc@V?$_Tmap_traits@VCZString@Value@Json@@V23@U?$less@VCZString@Value@Json@@@std@@V?$allocator@U?$pair@$$CBVCZString@Value@Json@@V23@@std@@@5@$0A@@std@@@std@@QEAAPEAU?$_Tree_node@U?$pair@$$CBVCZString@Value@Json@@V23@@std@@PEAX@1@AEAU?$pair@$$CBVCZString@Value@Json@@V23@@1@@Z@4HA
pdata	ENDS
;	COMDAT pdata
pdata	SEGMENT
$pdata$?_Compare@?$_Tree@V?$_Tmap_traits@VCZString@Value@Json@@V23@U?$less@VCZString@Value@Json@@@std@@V?$allocator@U?$pair@$$CBVCZString@Value@Json@@V23@@std@@@5@$0A@@std@@@std@@IEBA_NAEBVCZString@Value@Json@@0@Z DD imagerel $LN3@Compare
	DD	imagerel $LN3@Compare+52
	DD	imagerel $unwind$?_Compare@?$_Tree@V?$_Tmap_traits@VCZString@Value@Json@@V23@U?$less@VCZString@Value@Json@@@std@@V?$allocator@U?$pair@$$CBVCZString@Value@Json@@V23@@std@@@5@$0A@@std@@@std@@IEBA_NAEBVCZString@Value@Json@@0@Z
pdata	ENDS
;	COMDAT pdata
pdata	SEGMENT
$pdata$??0?$_Wrap_alloc@V?$allocator@PEAVValue@Json@@@std@@@std@@QEAA@AEBV?$allocator@PEAVValue@Json@@@1@@Z DD imagerel $LN3@Wrap_alloc
	DD	imagerel $LN3@Wrap_alloc+39
	DD	imagerel $unwind$??0?$_Wrap_alloc@V?$allocator@PEAVValue@Json@@@std@@@std@@QEAA@AEBV?$allocator@PEAVValue@Json@@@1@@Z
pdata	ENDS
;	COMDAT pdata
pdata	SEGMENT
$pdata$??0?$_Deque_val@U?$_Deque_simple_types@PEAVValue@Json@@@std@@@std@@QEAA@XZ DD imagerel $LN4@Deque_val
	DD	imagerel $LN4@Deque_val+81
	DD	imagerel $unwind$??0?$_Deque_val@U?$_Deque_simple_types@PEAVValue@Json@@@std@@@std@@QEAA@XZ
pdata	ENDS
;	COMDAT pdata
pdata	SEGMENT
