; Listing generated by Microsoft (R) Optimizing Compiler Version 19.16.27027.1 

include listing.inc


PUBLIC	??_C@_05LAPONLG@false@				; `string'
PUBLIC	??_C@_04LOAJBDKD@true@				; `string'
PUBLIC	??_C@_00CNPNBAHC@@				; `string'
PUBLIC	??_C@_02LMMGGCAJ@?3?5@				; `string'
PUBLIC	??_C@_06ECBCCLMB@?$CF?$CD?416g@			; `string'
PUBLIC	??_C@_07FKPPGBGM@?$CC?2?$AI?$AM?6?$AN?7@	; `string'
PUBLIC	??_C@_01BJJEKLCA@?$CC@				; `string'
PUBLIC	??_C@_02MCKKLHBJ@?2?$CC@			; `string'
PUBLIC	??_C@_02HDBGODGB@?2?2@				; `string'
PUBLIC	??_C@_02DCNDPIBM@?2b@				; `string'
PUBLIC	??_C@_02FGLPDNBI@?2f@				; `string'
PUBLIC	??_C@_02JOGGLHBA@?2n@				; `string'
PUBLIC	??_C@_02HIBBOKEN@?2r@				; `string'
PUBLIC	??_C@_02COELENML@?2t@				; `string'
PUBLIC	??_C@_02DHFAHMIK@?2u@				; `string'
PUBLIC	??_C@_01EEMJAFIK@?6@				; `string'
PUBLIC	??_C@_04MLLLIHIP@null@				; `string'
PUBLIC	??_C@_01OHGJGJJP@?$FL@				; `string'
PUBLIC	??_C@_01IHBHIGKO@?0@				; `string'
PUBLIC	??_C@_01LBDDMOBJ@?$FN@				; `string'
PUBLIC	??_C@_01HCONENDN@?$HL@				; `string'
PUBLIC	??_C@_01JLIPDDHJ@?3@				; `string'
PUBLIC	??_C@_01CELHOKLL@?$HN@				; `string'
PUBLIC	??_C@_02MCILKGOH@?$HL?$HN@			; `string'
PUBLIC	??_C@_03MCPBMLDJ@?5?3?5@			; `string'
PUBLIC	??_C@_02GPECMEKF@?$FL?$FN@			; `string'
PUBLIC	??_C@_02PFNDMDBO@?$FL?5@			; `string'
PUBLIC	??_C@_02KEGNLNML@?0?5@				; `string'
PUBLIC	??_C@_02DHOGEDBE@?5?$FN@			; `string'
PUBLIC	??_C@_01CLKCMJKC@?5@				; `string'
PUBLIC	??_C@_01GPOEFGEJ@?7@				; `string'
PUBLIC	??_R4?$basic_ostringstream@DU?$char_traits@D@std@@V?$allocator@D@2@@std@@6B@ ; std::basic_ostringstream<char,std::char_traits<char>,std::allocator<char> >::`RTTI Complete Object Locator'
PUBLIC	??_R2StyledWriter@Json@@8			; Json::StyledWriter::`RTTI Base Class Array'
PUBLIC	??_R1A@?0A@EA@FastWriter@Json@@8		; Json::FastWriter::`RTTI Base Class Descriptor at (0,-1,0,64)'
PUBLIC	??_7?$basic_ostringstream@DU?$char_traits@D@std@@V?$allocator@D@2@@std@@6B@ ; std::basic_ostringstream<char,std::char_traits<char>,std::allocator<char> >::`vftable'
PUBLIC	??_7Writer@Json@@6B@				; Json::Writer::`vftable'
PUBLIC	??_R2FastWriter@Json@@8				; Json::FastWriter::`RTTI Base Class Array'
PUBLIC	??_R3StyledWriter@Json@@8			; Json::StyledWriter::`RTTI Class Hierarchy Descriptor'
PUBLIC	??_R0?AV?$basic_stringbuf@DU?$char_traits@D@std@@V?$allocator@D@2@@std@@@8 ; std::basic_stringbuf<char,std::char_traits<char>,std::allocator<char> > `RTTI Type Descriptor'
PUBLIC	??_R4StyledWriter@Json@@6B@			; Json::StyledWriter::`RTTI Complete Object Locator'
PUBLIC	??_R0?AVFastWriter@Json@@@8			; Json::FastWriter `RTTI Type Descriptor'
PUBLIC	??_R0?AVios_base@std@@@8			; std::ios_base `RTTI Type Descriptor'
PUBLIC	??_R2?$basic_stringbuf@DU?$char_traits@D@std@@V?$allocator@D@2@@std@@8 ; std::basic_stringbuf<char,std::char_traits<char>,std::allocator<char> >::`RTTI Base Class Array'
PUBLIC	??_R3?$basic_ostringstream@DU?$char_traits@D@std@@V?$allocator@D@2@@std@@8 ; std::basic_ostringstream<char,std::char_traits<char>,std::allocator<char> >::`RTTI Class Hierarchy Descriptor'
PUBLIC	??_R17A@3EA@?$_Iosb@H@std@@8			; std::_Iosb<int>::`RTTI Base Class Descriptor at (8,0,4,64)'
PUBLIC	??_R1A@?0A@EA@?$basic_streambuf@DU?$char_traits@D@std@@@std@@8 ; std::basic_streambuf<char,std::char_traits<char> >::`RTTI Base Class Descriptor at (0,-1,0,64)'
PUBLIC	??_7StyledWriter@Json@@6B@			; Json::StyledWriter::`vftable'
PUBLIC	?_OptionsStorage@?1??__local_stdio_printf_options@@9@4_KA ; `__local_stdio_printf_options'::`2'::_OptionsStorage
PUBLIC	??_R0?AV?$_Iosb@H@std@@@8			; std::_Iosb<int> `RTTI Type Descriptor'
PUBLIC	??_R3FastWriter@Json@@8				; Json::FastWriter::`RTTI Class Hierarchy Descriptor'
PUBLIC	??_R0?AV?$basic_streambuf@DU?$char_traits@D@std@@@std@@@8 ; std::basic_streambuf<char,std::char_traits<char> > `RTTI Type Descriptor'
PUBLIC	??_R1A@?0A@EA@?$basic_ostringstream@DU?$char_traits@D@std@@V?$allocator@D@2@@std@@8 ; std::basic_ostringstream<char,std::char_traits<char>,std::allocator<char> >::`RTTI Base Class Descriptor at (0,-1,0,64)'
PUBLIC	??_7FastWriter@Json@@6B@			; Json::FastWriter::`vftable'
PUBLIC	??_R3?$basic_stringbuf@DU?$char_traits@D@std@@V?$allocator@D@2@@std@@8 ; std::basic_stringbuf<char,std::char_traits<char>,std::allocator<char> >::`RTTI Class Hierarchy Descriptor'
PUBLIC	??_R2?$basic_ostream@DU?$char_traits@D@std@@@std@@8 ; std::basic_ostream<char,std::char_traits<char> >::`RTTI Base Class Array'
PUBLIC	??_R0?AV?$basic_ostringstream@DU?$char_traits@D@std@@V?$allocator@D@2@@std@@@8 ; std::basic_ostringstream<char,std::char_traits<char>,std::allocator<char> > `RTTI Type Descriptor'
PUBLIC	??_R4FastWriter@Json@@6B@			; Json::FastWriter::`RTTI Complete Object Locator'
PUBLIC	??_R3?$basic_ios@DU?$char_traits@D@std@@@std@@8	; std::basic_ios<char,std::char_traits<char> >::`RTTI Class Hierarchy Descriptor'
PUBLIC	??_R3Writer@Json@@8				; Json::Writer::`RTTI Class Hierarchy Descriptor'
PUBLIC	??_R0?AVStyledWriter@Json@@@8			; Json::StyledWriter `RTTI Type Descriptor'
PUBLIC	??_7?$basic_stringbuf@DU?$char_traits@D@std@@V?$allocator@D@2@@std@@6B@ ; std::basic_stringbuf<char,std::char_traits<char>,std::allocator<char> >::`vftable'
PUBLIC	??_R2Writer@Json@@8				; Json::Writer::`RTTI Base Class Array'
PUBLIC	??_R1A@?0A@EA@ios_base@std@@8			; std::ios_base::`RTTI Base Class Descriptor at (0,-1,0,64)'
PUBLIC	??_R1A@?0A@EA@?$basic_ostream@DU?$char_traits@D@std@@@std@@8 ; std::basic_ostream<char,std::char_traits<char> >::`RTTI Base Class Descriptor at (0,-1,0,64)'
PUBLIC	??_R0?AV?$basic_ios@DU?$char_traits@D@std@@@std@@@8 ; std::basic_ios<char,std::char_traits<char> > `RTTI Type Descriptor'
PUBLIC	??_R2?$basic_streambuf@DU?$char_traits@D@std@@@std@@8 ; std::basic_streambuf<char,std::char_traits<char> >::`RTTI Base Class Array'
PUBLIC	??_R1A@?0A@EA@?$_Iosb@H@std@@8			; std::_Iosb<int>::`RTTI Base Class Descriptor at (0,-1,0,64)'
PUBLIC	??_R1A@?0A@EA@?$basic_stringbuf@DU?$char_traits@D@std@@V?$allocator@D@2@@std@@8 ; std::basic_stringbuf<char,std::char_traits<char>,std::allocator<char> >::`RTTI Base Class Descriptor at (0,-1,0,64)'
PUBLIC	??_R1A@?0A@EA@Writer@Json@@8			; Json::Writer::`RTTI Base Class Descriptor at (0,-1,0,64)'
PUBLIC	??_R4Writer@Json@@6B@				; Json::Writer::`RTTI Complete Object Locator'
PUBLIC	??_8?$basic_ostringstream@DU?$char_traits@D@std@@V?$allocator@D@2@@std@@7B@ ; std::basic_ostringstream<char,std::char_traits<char>,std::allocator<char> >::`vbtable'
PUBLIC	??_R4?$basic_stringbuf@DU?$char_traits@D@std@@V?$allocator@D@2@@std@@6B@ ; std::basic_stringbuf<char,std::char_traits<char>,std::allocator<char> >::`RTTI Complete Object Locator'
PUBLIC	??_R1A@A@3FA@?$basic_ios@DU?$char_traits@D@std@@@std@@8 ; std::basic_ios<char,std::char_traits<char> >::`RTTI Base Class Descriptor at (0,0,4,80)'
PUBLIC	??_R0?AV?$basic_ostream@DU?$char_traits@D@std@@@std@@@8 ; std::basic_ostream<char,std::char_traits<char> > `RTTI Type Descriptor'
PUBLIC	??_R2ios_base@std@@8				; std::ios_base::`RTTI Base Class Array'
PUBLIC	??_R3?$basic_ostream@DU?$char_traits@D@std@@@std@@8 ; std::basic_ostream<char,std::char_traits<char> >::`RTTI Class Hierarchy Descriptor'
PUBLIC	??_R0?AVWriter@Json@@@8				; Json::Writer `RTTI Type Descriptor'
PUBLIC	??_R3ios_base@std@@8				; std::ios_base::`RTTI Class Hierarchy Descriptor'
PUBLIC	??_R3?$basic_streambuf@DU?$char_traits@D@std@@@std@@8 ; std::basic_streambuf<char,std::char_traits<char> >::`RTTI Class Hierarchy Descriptor'
PUBLIC	??_R2?$_Iosb@H@std@@8				; std::_Iosb<int>::`RTTI Base Class Array'
PUBLIC	??_R1A@A@3EA@ios_base@std@@8			; std::ios_base::`RTTI Base Class Descriptor at (0,0,4,64)'
PUBLIC	??_R1A@?0A@EA@?$basic_ios@DU?$char_traits@D@std@@@std@@8 ; std::basic_ios<char,std::char_traits<char> >::`RTTI Base Class Descriptor at (0,-1,0,64)'
PUBLIC	??_R1A@?0A@EA@StyledWriter@Json@@8		; Json::StyledWriter::`RTTI Base Class Descriptor at (0,-1,0,64)'
PUBLIC	??_R3?$_Iosb@H@std@@8				; std::_Iosb<int>::`RTTI Class Hierarchy Descriptor'
PUBLIC	??_R17?0A@EA@?$_Iosb@H@std@@8			; std::_Iosb<int>::`RTTI Base Class Descriptor at (8,-1,0,64)'
PUBLIC	??_R2?$basic_ios@DU?$char_traits@D@std@@@std@@8	; std::basic_ios<char,std::char_traits<char> >::`RTTI Base Class Array'
PUBLIC	??_R2?$basic_ostringstream@DU?$char_traits@D@std@@V?$allocator@D@2@@std@@8 ; std::basic_ostringstream<char,std::char_traits<char>,std::allocator<char> >::`RTTI Base Class Array'
EXTRN	__imp_?rdstate@ios_base@std@@QEBAHXZ:PROC
EXTRN	__imp_?good@ios_base@std@@QEBA_NXZ:PROC
EXTRN	__imp_?flags@ios_base@std@@QEBAHXZ:PROC
EXTRN	__imp_?setf@ios_base@std@@QEAAHH@Z:PROC
EXTRN	__imp_?setf@ios_base@std@@QEAAHHH@Z:PROC
EXTRN	__imp_?width@ios_base@std@@QEBA_JXZ:PROC
EXTRN	__imp_?width@ios_base@std@@QEAA_J_J@Z:PROC
EXTRN	__imp_??6?$basic_ostream@DU?$char_traits@D@std@@@std@@QEAAAEAV01@H@Z:PROC
EXTRN	__imp_??6?$basic_ostream@DU?$char_traits@D@std@@@std@@QEAAAEAV01@P6AAEAVios_base@1@AEAV21@@Z@Z:PROC
EXTRN	__imp_??1?$basic_ostream@DU?$char_traits@D@std@@@std@@UEAA@XZ:PROC
EXTRN	?imbue@?$basic_streambuf@DU?$char_traits@D@std@@@std@@MEAAXAEBVlocale@2@@Z:PROC ; std::basic_streambuf<char,std::char_traits<char> >::imbue
EXTRN	__imp_?imbue@?$basic_streambuf@DU?$char_traits@D@std@@@std@@MEAAXAEBVlocale@2@@Z:PROC
EXTRN	?sync@?$basic_streambuf@DU?$char_traits@D@std@@@std@@MEAAHXZ:PROC ; std::basic_streambuf<char,std::char_traits<char> >::sync
EXTRN	__imp_?sync@?$basic_streambuf@DU?$char_traits@D@std@@@std@@MEAAHXZ:PROC
EXTRN	?setbuf@?$basic_streambuf@DU?$char_traits@D@std@@@std@@MEAAPEAV12@PEAD_J@Z:PROC ; std::basic_streambuf<char,std::char_traits<char> >::setbuf
EXTRN	__imp_?setbuf@?$basic_streambuf@DU?$char_traits@D@std@@@std@@MEAAPEAV12@PEAD_J@Z:PROC
EXTRN	?xsputn@?$basic_streambuf@DU?$char_traits@D@std@@@std@@MEAA_JPEBD_J@Z:PROC ; std::basic_streambuf<char,std::char_traits<char> >::xsputn
EXTRN	__imp_?xsputn@?$basic_streambuf@DU?$char_traits@D@std@@@std@@MEAA_JPEBD_J@Z:PROC
EXTRN	?xsgetn@?$basic_streambuf@DU?$char_traits@D@std@@@std@@MEAA_JPEAD_J@Z:PROC ; std::basic_streambuf<char,std::char_traits<char> >::xsgetn
EXTRN	__imp_?xsgetn@?$basic_streambuf@DU?$char_traits@D@std@@@std@@MEAA_JPEAD_J@Z:PROC
EXTRN	?uflow@?$basic_streambuf@DU?$char_traits@D@std@@@std@@MEAAHXZ:PROC ; std::basic_streambuf<char,std::char_traits<char> >::uflow
EXTRN	__imp_?uflow@?$basic_streambuf@DU?$char_traits@D@std@@@std@@MEAAHXZ:PROC
EXTRN	?showmanyc@?$basic_streambuf@DU?$char_traits@D@std@@@std@@MEAA_JXZ:PROC ; std::basic_streambuf<char,std::char_traits<char> >::showmanyc
EXTRN	__imp_?showmanyc@?$basic_streambuf@DU?$char_traits@D@std@@@std@@MEAA_JXZ:PROC
EXTRN	?_Unlock@?$basic_streambuf@DU?$char_traits@D@std@@@std@@UEAAXXZ:PROC ; std::basic_streambuf<char,std::char_traits<char> >::_Unlock
EXTRN	__imp_?_Unlock@?$basic_streambuf@DU?$char_traits@D@std@@@std@@UEAAXXZ:PROC
EXTRN	?_Lock@?$basic_streambuf@DU?$char_traits@D@std@@@std@@UEAAXXZ:PROC ; std::basic_streambuf<char,std::char_traits<char> >::_Lock
EXTRN	__imp_?_Lock@?$basic_streambuf@DU?$char_traits@D@std@@@std@@UEAAXXZ:PROC
EXTRN	__imp_??1?$basic_streambuf@DU?$char_traits@D@std@@@std@@UEAA@XZ:PROC
EXTRN	__imp_??1?$basic_ios@DU?$char_traits@D@std@@@std@@UEAA@XZ:PROC
EXTRN	__imp_??0?$basic_ostream@DU?$char_traits@D@std@@@std@@QEAA@PEAV?$basic_streambuf@DU?$char_traits@D@std@@@1@_N@Z:PROC
EXTRN	__imp_?_Pninc@?$basic_streambuf@DU?$char_traits@D@std@@@std@@IEAAPEADXZ:PROC
EXTRN	__imp_?setp@?$basic_streambuf@DU?$char_traits@D@std@@@std@@IEAAXPEAD00@Z:PROC
EXTRN	__imp_?epptr@?$basic_streambuf@DU?$char_traits@D@std@@@std@@IEBAPEADXZ:PROC
EXTRN	__imp_?setg@?$basic_streambuf@DU?$char_traits@D@std@@@std@@IEAAXPEAD00@Z:PROC
EXTRN	__imp_?gbump@?$basic_streambuf@DU?$char_traits@D@std@@@std@@IEAAXH@Z:PROC
EXTRN	__imp_?egptr@?$basic_streambuf@DU?$char_traits@D@std@@@std@@IEBAPEADXZ:PROC
EXTRN	__imp_?pptr@?$basic_streambuf@DU?$char_traits@D@std@@@std@@IEBAPEADXZ:PROC
EXTRN	__imp_?gptr@?$basic_streambuf@DU?$char_traits@D@std@@@std@@IEBAPEADXZ:PROC
EXTRN	__imp_?eback@?$basic_streambuf@DU?$char_traits@D@std@@@std@@IEBAPEADXZ:PROC
EXTRN	__imp_??0?$basic_ios@DU?$char_traits@D@std@@@std@@IEAA@XZ:PROC
EXTRN	__imp_?fill@?$basic_ios@DU?$char_traits@D@std@@@std@@QEBADXZ:PROC
EXTRN	__imp_?rdbuf@?$basic_ios@DU?$char_traits@D@std@@@std@@QEBAPEAV?$basic_streambuf@DU?$char_traits@D@std@@@2@XZ:PROC
EXTRN	__imp_?setstate@?$basic_ios@DU?$char_traits@D@std@@@std@@QEAAXH_N@Z:PROC
EXTRN	__imp_?flush@?$basic_ostream@DU?$char_traits@D@std@@@std@@QEAAAEAV12@XZ:PROC
EXTRN	__imp_?_Osfx@?$basic_ostream@DU?$char_traits@D@std@@@std@@QEAAXXZ:PROC
EXTRN	__imp_?setp@?$basic_streambuf@DU?$char_traits@D@std@@@std@@IEAAXPEAD0@Z:PROC
EXTRN	__imp_?pbase@?$basic_streambuf@DU?$char_traits@D@std@@@std@@IEBAPEADXZ:PROC
EXTRN	__imp_??0?$basic_streambuf@DU?$char_traits@D@std@@@std@@IEAA@XZ:PROC
EXTRN	__imp_?tie@?$basic_ios@DU?$char_traits@D@std@@@std@@QEBAPEAV?$basic_ostream@DU?$char_traits@D@std@@@2@XZ:PROC
EXTRN	__imp_?sputc@?$basic_streambuf@DU?$char_traits@D@std@@@std@@QEAAHD@Z:PROC
EXTRN	__imp_?sputn@?$basic_streambuf@DU?$char_traits@D@std@@@std@@QEAA_JPEBD_J@Z:PROC
EXTRN	__imp_?fill@?$basic_ios@DU?$char_traits@D@std@@@std@@QEAADD@Z:PROC
EXTRN	__imp___stdio_common_vsprintf_s:PROC
EXTRN	__imp_?setw@std@@YA?AU?$_Smanip@_J@1@_J@Z:PROC
EXTRN	?uncaught_exception@std@@YA_NXZ:PROC		; std::uncaught_exception
EXTRN	__imp_strpbrk:PROC
;	COMDAT ?_OptionsStorage@?1??__local_stdio_printf_options@@9@4_KA
_BSS	SEGMENT
?_OptionsStorage@?1??__local_stdio_printf_options@@9@4_KA DQ 01H DUP (?) ; `__local_stdio_printf_options'::`2'::_OptionsStorage
_BSS	ENDS
;	COMDAT ??_R2?$basic_ostringstream@DU?$char_traits@D@std@@V?$allocator@D@2@@std@@8
rdata$r	SEGMENT
??_R2?$basic_ostringstream@DU?$char_traits@D@std@@V?$allocator@D@2@@std@@8 DD imagerel ??_R1A@?0A@EA@?$basic_ostringstream@DU?$char_traits@D@std@@V?$allocator@D@2@@std@@8 ; std::basic_ostringstream<char,std::char_traits<char>,std::allocator<char> >::`RTTI Base Class Array'
	DD	imagerel ??_R1A@?0A@EA@?$basic_ostream@DU?$char_traits@D@std@@@std@@8
	DD	imagerel ??_R1A@A@3FA@?$basic_ios@DU?$char_traits@D@std@@@std@@8
	DD	imagerel ??_R1A@A@3EA@ios_base@std@@8
	DD	imagerel ??_R17A@3EA@?$_Iosb@H@std@@8
	ORG $+3
rdata$r	ENDS
;	COMDAT ??_R2?$basic_ios@DU?$char_traits@D@std@@@std@@8
rdata$r	SEGMENT
??_R2?$basic_ios@DU?$char_traits@D@std@@@std@@8 DD imagerel ??_R1A@?0A@EA@?$basic_ios@DU?$char_traits@D@std@@@std@@8 ; std::basic_ios<char,std::char_traits<char> >::`RTTI Base Class Array'
	DD	imagerel ??_R1A@?0A@EA@ios_base@std@@8
	DD	imagerel ??_R17?0A@EA@?$_Iosb@H@std@@8
	ORG $+3
rdata$r	ENDS
;	COMDAT ??_R17?0A@EA@?$_Iosb@H@std@@8
rdata$r	SEGMENT
??_R17?0A@EA@?$_Iosb@H@std@@8 DD imagerel ??_R0?AV?$_Iosb@H@std@@@8 ; std::_Iosb<int>::`RTTI Base Class Descriptor at (8,-1,0,64)'
	DD	00H
	DD	08H
	DD	0ffffffffH
	DD	00H
	DD	040H
	DD	imagerel ??_R3?$_Iosb@H@std@@8
rdata$r	ENDS
;	COMDAT ??_R3?$_Iosb@H@std@@8
rdata$r	SEGMENT
??_R3?$_Iosb@H@std@@8 DD 00H				; std::_Iosb<int>::`RTTI Class Hierarchy Descriptor'
	DD	00H
	DD	01H
	DD	imagerel ??_R2?$_Iosb@H@std@@8
rdata$r	ENDS
;	COMDAT ??_R1A@?0A@EA@StyledWriter@Json@@8
rdata$r	SEGMENT
??_R1A@?0A@EA@StyledWriter@Json@@8 DD imagerel ??_R0?AVStyledWriter@Json@@@8 ; Json::StyledWriter::`RTTI Base Class Descriptor at (0,-1,0,64)'
	DD	01H
	DD	00H
	DD	0ffffffffH
	DD	00H
	DD	040H
	DD	imagerel ??_R3StyledWriter@Json@@8
rdata$r	ENDS
;	COMDAT ??_R1A@?0A@EA@?$basic_ios@DU?$char_traits@D@std@@@std@@8
rdata$r	SEGMENT
??_R1A@?0A@EA@?$basic_ios@DU?$char_traits@D@std@@@std@@8 DD imagerel ??_R0?AV?$basic_ios@DU?$char_traits@D@std@@@std@@@8 ; std::basic_ios<char,std::char_traits<char> >::`RTTI Base Class Descriptor at (0,-1,0,64)'
	DD	02H
	DD	00H
	DD	0ffffffffH
	DD	00H
	DD	040H
	DD	imagerel ??_R3?$basic_ios@DU?$char_traits@D@std@@@std@@8
rdata$r	ENDS
;	COMDAT ??_R1A@A@3EA@ios_base@std@@8
rdata$r	SEGMENT
??_R1A@A@3EA@ios_base@std@@8 DD imagerel ??_R0?AVios_base@std@@@8 ; std::ios_base::`RTTI Base Class Descriptor at (0,0,4,64)'
	DD	01H
	DD	00H
	DD	00H
	DD	04H
	DD	040H
	DD	imagerel ??_R3ios_base@std@@8
rdata$r	ENDS
;	COMDAT ??_R2?$_Iosb@H@std@@8
rdata$r	SEGMENT
??_R2?$_Iosb@H@std@@8 DD imagerel ??_R1A@?0A@EA@?$_Iosb@H@std@@8 ; std::_Iosb<int>::`RTTI Base Class Array'
	ORG $+3
rdata$r	ENDS
;	COMDAT ??_R3?$basic_streambuf@DU?$char_traits@D@std@@@std@@8
rdata$r	SEGMENT
??_R3?$basic_streambuf@DU?$char_traits@D@std@@@std@@8 DD 00H ; std::basic_streambuf<char,std::char_traits<char> >::`RTTI Class Hierarchy Descriptor'
	DD	00H
	DD	01H
	DD	imagerel ??_R2?$basic_streambuf@DU?$char_traits@D@std@@@std@@8
rdata$r	ENDS
;	COMDAT ??_R3ios_base@std@@8
rdata$r	SEGMENT
??_R3ios_base@std@@8 DD 00H				; std::ios_base::`RTTI Class Hierarchy Descriptor'
	DD	00H
	DD	02H
	DD	imagerel ??_R2ios_base@std@@8
rdata$r	ENDS
;	COMDAT ??_R0?AVWriter@Json@@@8
data$r	SEGMENT
??_R0?AVWriter@Json@@@8 DQ FLAT:??_7type_info@@6B@	; Json::Writer `RTTI Type Descriptor'
	DQ	0000000000000000H
	DB	'.?AVWriter@Json@@', 00H
data$r	ENDS
;	COMDAT ??_R3?$basic_ostream@DU?$char_traits@D@std@@@std@@8
rdata$r	SEGMENT
??_R3?$basic_ostream@DU?$char_traits@D@std@@@std@@8 DD 00H ; std::basic_ostream<char,std::char_traits<char> >::`RTTI Class Hierarchy Descriptor'
	DD	00H
	DD	04H
	DD	imagerel ??_R2?$basic_ostream@DU?$char_traits@D@std@@@std@@8
rdata$r	ENDS
;	COMDAT ??_R2ios_base@std@@8
rdata$r	SEGMENT
??_R2ios_base@std@@8 DD imagerel ??_R1A@?0A@EA@ios_base@std@@8 ; std::ios_base::`RTTI Base Class Array'
	DD	imagerel ??_R17?0A@EA@?$_Iosb@H@std@@8
	ORG $+3
rdata$r	ENDS
;	COMDAT ??_R0?AV?$basic_ostream@DU?$char_traits@D@std@@@std@@@8
data$r	SEGMENT
??_R0?AV?$basic_ostream@DU?$char_traits@D@std@@@std@@@8 DQ FLAT:??_7type_info@@6B@ ; std::basic_ostream<char,std::char_traits<char> > `RTTI Type Descriptor'
	DQ	0000000000000000H
	DB	'.?AV?$basic_ostream@DU?$char_traits@D@std@@@std@@', 00H
data$r	ENDS
;	COMDAT ??_R1A@A@3FA@?$basic_ios@DU?$char_traits@D@std@@@std@@8
rdata$r	SEGMENT
??_R1A@A@3FA@?$basic_ios@DU?$char_traits@D@std@@@std@@8 DD imagerel ??_R0?AV?$basic_ios@DU?$char_traits@D@std@@@std@@@8 ; std::basic_ios<char,std::char_traits<char> >::`RTTI Base Class Descriptor at (0,0,4,80)'
	DD	02H
	DD	00H
	DD	00H
	DD	04H
	DD	050H
	DD	imagerel ??_R3?$basic_ios@DU?$char_traits@D@std@@@std@@8
rdata$r	ENDS
;	COMDAT ??_R4?$basic_stringbuf@DU?$char_traits@D@std@@V?$allocator@D@2@@std@@6B@
rdata$r	SEGMENT
??_R4?$basic_stringbuf@DU?$char_traits@D@std@@V?$allocator@D@2@@std@@6B@ DD 01H ; std::basic_stringbuf<char,std::char_traits<char>,std::allocator<char> >::`RTTI Complete Object Locator'
	DD	00H
	DD	00H
	DD	imagerel ??_R0?AV?$basic_stringbuf@DU?$char_traits@D@std@@V?$allocator@D@2@@std@@@8
	DD	imagerel ??_R3?$basic_stringbuf@DU?$char_traits@D@std@@V?$allocator@D@2@@std@@8
	DD	imagerel ??_R4?$basic_stringbuf@DU?$char_traits@D@std@@V?$allocator@D@2@@std@@6B@
rdata$r	ENDS
;	COMDAT ??_8?$basic_ostringstream@DU?$char_traits@D@std@@V?$allocator@D@2@@std@@7B@
CONST	SEGMENT
??_8?$basic_ostringstream@DU?$char_traits@D@std@@V?$allocator@D@2@@std@@7B@ DD 00H ; std::basic_ostringstream<char,std::char_traits<char>,std::allocator<char> >::`vbtable'
	DD	088H
CONST	ENDS
;	COMDAT ??_R4Writer@Json@@6B@
rdata$r	SEGMENT
??_R4Writer@Json@@6B@ DD 01H				; Json::Writer::`RTTI Complete Object Locator'
	DD	00H
	DD	00H
	DD	imagerel ??_R0?AVWriter@Json@@@8
	DD	imagerel ??_R3Writer@Json@@8
	DD	imagerel ??_R4Writer@Json@@6B@
rdata$r	ENDS
;	COMDAT ??_R1A@?0A@EA@Writer@Json@@8
rdata$r	SEGMENT
??_R1A@?0A@EA@Writer@Json@@8 DD imagerel ??_R0?AVWriter@Json@@@8 ; Json::Writer::`RTTI Base Class Descriptor at (0,-1,0,64)'
	DD	00H
	DD	00H
	DD	0ffffffffH
	DD	00H
	DD	040H
	DD	imagerel ??_R3Writer@Json@@8
rdata$r	ENDS
;	COMDAT ??_R1A@?0A@EA@?$basic_stringbuf@DU?$char_traits@D@std@@V?$allocator@D@2@@std@@8
rdata$r	SEGMENT
??_R1A@?0A@EA@?$basic_stringbuf@DU?$char_traits@D@std@@V?$allocator@D@2@@std@@8 DD imagerel ??_R0?AV?$basic_stringbuf@DU?$char_traits@D@std@@V?$allocator@D@2@@std@@@8 ; std::basic_stringbuf<char,std::char_traits<char>,std::allocator<char> >::`RTTI Base Class Descriptor at (0,-1,0,64)'
	DD	01H
	DD	00H
	DD	0ffffffffH
	DD	00H
	DD	040H
	DD	imagerel ??_R3?$basic_stringbuf@DU?$char_traits@D@std@@V?$allocator@D@2@@std@@8
rdata$r	ENDS
;	COMDAT ??_R1A@?0A@EA@?$_Iosb@H@std@@8
rdata$r	SEGMENT
??_R1A@?0A@EA@?$_Iosb@H@std@@8 DD imagerel ??_R0?AV?$_Iosb@H@std@@@8 ; std::_Iosb<int>::`RTTI Base Class Descriptor at (0,-1,0,64)'
	DD	00H
	DD	00H
	DD	0ffffffffH
	DD	00H
	DD	040H
	DD	imagerel ??_R3?$_Iosb@H@std@@8
rdata$r	ENDS
;	COMDAT ??_R2?$basic_streambuf@DU?$char_traits@D@std@@@std@@8
rdata$r	SEGMENT
??_R2?$basic_streambuf@DU?$char_traits@D@std@@@std@@8 DD imagerel ??_R1A@?0A@EA@?$basic_streambuf@DU?$char_traits@D@std@@@std@@8 ; std::basic_streambuf<char,std::char_traits<char> >::`RTTI Base Class Array'
	ORG $+3
rdata$r	ENDS
;	COMDAT ??_R0?AV?$basic_ios@DU?$char_traits@D@std@@@std@@@8
data$r	SEGMENT
??_R0?AV?$basic_ios@DU?$char_traits@D@std@@@std@@@8 DQ FLAT:??_7type_info@@6B@ ; std::basic_ios<char,std::char_traits<char> > `RTTI Type Descriptor'
	DQ	0000000000000000H
	DB	'.?AV?$basic_ios@DU?$char_traits@D@std@@@std@@', 00H
data$r	ENDS
;	COMDAT ??_R1A@?0A@EA@?$basic_ostream@DU?$char_traits@D@std@@@std@@8
rdata$r	SEGMENT
??_R1A@?0A@EA@?$basic_ostream@DU?$char_traits@D@std@@@std@@8 DD imagerel ??_R0?AV?$basic_ostream@DU?$char_traits@D@std@@@std@@@8 ; std::basic_ostream<char,std::char_traits<char> >::`RTTI Base Class Descriptor at (0,-1,0,64)'
	DD	03H
	DD	00H
	DD	0ffffffffH
	DD	00H
	DD	040H
	DD	imagerel ??_R3?$basic_ostream@DU?$char_traits@D@std@@@std@@8
rdata$r	ENDS
;	COMDAT ??_R1A@?0A@EA@ios_base@std@@8
rdata$r	SEGMENT
??_R1A@?0A@EA@ios_base@std@@8 DD imagerel ??_R0?AVios_base@std@@@8 ; std::ios_base::`RTTI Base Class Descriptor at (0,-1,0,64)'
	DD	01H
	DD	00H
	DD	0ffffffffH
	DD	00H
	DD	040H
	DD	imagerel ??_R3ios_base@std@@8
rdata$r	ENDS
;	COMDAT ??_R2Writer@Json@@8
rdata$r	SEGMENT
??_R2Writer@Json@@8 DD imagerel ??_R1A@?0A@EA@Writer@Json@@8 ; Json::Writer::`RTTI Base Class Array'
	ORG $+3
rdata$r	ENDS
;	COMDAT ??_7?$basic_stringbuf@DU?$char_traits@D@std@@V?$allocator@D@2@@std@@6B@
CONST	SEGMENT
??_7?$basic_stringbuf@DU?$char_traits@D@std@@V?$allocator@D@2@@std@@6B@ DQ FLAT:??_R4?$basic_stringbuf@DU?$char_traits@D@std@@V?$allocator@D@2@@std@@6B@ ; std::basic_stringbuf<char,std::char_traits<char>,std::allocator<char> >::`vftable'
	DQ	FLAT:??_E?$basic_stringbuf@DU?$char_traits@D@std@@V?$allocator@D@2@@std@@UEAAPEAXI@Z
	DQ	FLAT:?_Lock@?$basic_streambuf@DU?$char_traits@D@std@@@std@@UEAAXXZ
	DQ	FLAT:?_Unlock@?$basic_streambuf@DU?$char_traits@D@std@@@std@@UEAAXXZ
	DQ	FLAT:?overflow@?$basic_stringbuf@DU?$char_traits@D@std@@V?$allocator@D@2@@std@@MEAAHH@Z
	DQ	FLAT:?pbackfail@?$basic_stringbuf@DU?$char_traits@D@std@@V?$allocator@D@2@@std@@MEAAHH@Z
	DQ	FLAT:?showmanyc@?$basic_streambuf@DU?$char_traits@D@std@@@std@@MEAA_JXZ
	DQ	FLAT:?underflow@?$basic_stringbuf@DU?$char_traits@D@std@@V?$allocator@D@2@@std@@MEAAHXZ
	DQ	FLAT:?uflow@?$basic_streambuf@DU?$char_traits@D@std@@@std@@MEAAHXZ
	DQ	FLAT:?xsgetn@?$basic_streambuf@DU?$char_traits@D@std@@@std@@MEAA_JPEAD_J@Z
	DQ	FLAT:?xsputn@?$basic_streambuf@DU?$char_traits@D@std@@@std@@MEAA_JPEBD_J@Z
	DQ	FLAT:?seekoff@?$basic_stringbuf@DU?$char_traits@D@std@@V?$allocator@D@2@@std@@MEAA?AV?$fpos@U_Mbstatet@@@2@_JHH@Z
	DQ	FLAT:?seekpos@?$basic_stringbuf@DU?$char_traits@D@std@@V?$allocator@D@2@@std@@MEAA?AV?$fpos@U_Mbstatet@@@2@V32@H@Z
	DQ	FLAT:?setbuf@?$basic_streambuf@DU?$char_traits@D@std@@@std@@MEAAPEAV12@PEAD_J@Z
	DQ	FLAT:?sync@?$basic_streambuf@DU?$char_traits@D@std@@@std@@MEAAHXZ
	DQ	FLAT:?imbue@?$basic_streambuf@DU?$char_traits@D@std@@@std@@MEAAXAEBVlocale@2@@Z
CONST	ENDS
;	COMDAT ??_R0?AVStyledWriter@Json@@@8
data$r	SEGMENT
??_R0?AVStyledWriter@Json@@@8 DQ FLAT:??_7type_info@@6B@ ; Json::StyledWriter `RTTI Type Descriptor'
	DQ	0000000000000000H
	DB	'.?AVStyledWriter@Json@@', 00H
data$r	ENDS
;	COMDAT ??_R3Writer@Json@@8
rdata$r	SEGMENT
??_R3Writer@Json@@8 DD 00H				; Json::Writer::`RTTI Class Hierarchy Descriptor'
	DD	00H
	DD	01H
	DD	imagerel ??_R2Writer@Json@@8
rdata$r	ENDS
;	COMDAT ??_R3?$basic_ios@DU?$char_traits@D@std@@@std@@8
rdata$r	SEGMENT
??_R3?$basic_ios@DU?$char_traits@D@std@@@std@@8 DD 00H	; std::basic_ios<char,std::char_traits<char> >::`RTTI Class Hierarchy Descriptor'
	DD	00H
	DD	03H
	DD	imagerel ??_R2?$basic_ios@DU?$char_traits@D@std@@@std@@8
rdata$r	ENDS
;	COMDAT ??_R4FastWriter@Json@@6B@
rdata$r	SEGMENT
??_R4FastWriter@Json@@6B@ DD 01H			; Json::FastWriter::`RTTI Complete Object Locator'
	DD	00H
	DD	00H
	DD	imagerel ??_R0?AVFastWriter@Json@@@8
	DD	imagerel ??_R3FastWriter@Json@@8
	DD	imagerel ??_R4FastWriter@Json@@6B@
rdata$r	ENDS
;	COMDAT ??_R0?AV?$basic_ostringstream@DU?$char_traits@D@std@@V?$allocator@D@2@@std@@@8
data$r	SEGMENT
??_R0?AV?$basic_ostringstream@DU?$char_traits@D@std@@V?$allocator@D@2@@std@@@8 DQ FLAT:??_7type_info@@6B@ ; std::basic_ostringstream<char,std::char_traits<char>,std::allocator<char> > `RTTI Type Descriptor'
	DQ	0000000000000000H
	DB	'.?AV?$basic_ostringstream@DU?$char_traits@D@std@@V?$allo'
	DB	'cator@D@2@@std@@', 00H
data$r	ENDS
;	COMDAT ??_R2?$basic_ostream@DU?$char_traits@D@std@@@std@@8
rdata$r	SEGMENT
??_R2?$basic_ostream@DU?$char_traits@D@std@@@std@@8 DD imagerel ??_R1A@?0A@EA@?$basic_ostream@DU?$char_traits@D@std@@@std@@8 ; std::basic_ostream<char,std::char_traits<char> >::`RTTI Base Class Array'
	DD	imagerel ??_R1A@A@3FA@?$basic_ios@DU?$char_traits@D@std@@@std@@8
	DD	imagerel ??_R1A@A@3EA@ios_base@std@@8
	DD	imagerel ??_R17A@3EA@?$_Iosb@H@std@@8
	ORG $+3
rdata$r	ENDS
;	COMDAT ??_R3?$basic_stringbuf@DU?$char_traits@D@std@@V?$allocator@D@2@@std@@8
rdata$r	SEGMENT
??_R3?$basic_stringbuf@DU?$char_traits@D@std@@V?$allocator@D@2@@std@@8 DD 00H ; std::basic_stringbuf<char,std::char_traits<char>,std::allocator<char> >::`RTTI Class Hierarchy Descriptor'
	DD	00H
	DD	02H
	DD	imagerel ??_R2?$basic_stringbuf@DU?$char_traits@D@std@@V?$allocator@D@2@@std@@8
rdata$r	ENDS
;	COMDAT ??_7FastWriter@Json@@6B@
CONST	SEGMENT
??_7FastWriter@Json@@6B@ DQ FLAT:??_R4FastWriter@Json@@6B@ ; Json::FastWriter::`vftable'
	DQ	FLAT:??_EFastWriter@Json@@UEAAPEAXI@Z
	DQ	FLAT:?write@FastWriter@Json@@UEAA?AV?$basic_string@DU?$char_traits@D@std@@V?$allocator@D@2@@std@@AEBVValue@2@@Z
CONST	ENDS
;	COMDAT ??_R1A@?0A@EA@?$basic_ostringstream@DU?$char_traits@D@std@@V?$allocator@D@2@@std@@8
rdata$r	SEGMENT
??_R1A@?0A@EA@?$basic_ostringstream@DU?$char_traits@D@std@@V?$allocator@D@2@@std@@8 DD imagerel ??_R0?AV?$basic_ostringstream@DU?$char_traits@D@std@@V?$allocator@D@2@@std@@@8 ; std::basic_ostringstream<char,std::char_traits<char>,std::allocator<char> >::`RTTI Base Class Descriptor at (0,-1,0,64)'
	DD	04H
	DD	00H
	DD	0ffffffffH
	DD	00H
	DD	040H
	DD	imagerel ??_R3?$basic_ostringstream@DU?$char_traits@D@std@@V?$allocator@D@2@@std@@8
rdata$r	ENDS
;	COMDAT ??_R0?AV?$basic_streambuf@DU?$char_traits@D@std@@@std@@@8
data$r	SEGMENT
??_R0?AV?$basic_streambuf@DU?$char_traits@D@std@@@std@@@8 DQ FLAT:??_7type_info@@6B@ ; std::basic_streambuf<char,std::char_traits<char> > `RTTI Type Descriptor'
	DQ	0000000000000000H
	DB	'.?AV?$basic_streambuf@DU?$char_traits@D@std@@@std@@', 00H
data$r	ENDS
;	COMDAT ??_R3FastWriter@Json@@8
rdata$r	SEGMENT
??_R3FastWriter@Json@@8 DD 00H				; Json::FastWriter::`RTTI Class Hierarchy Descriptor'
	DD	00H
	DD	02H
	DD	imagerel ??_R2FastWriter@Json@@8
rdata$r	ENDS
;	COMDAT ??_R0?AV?$_Iosb@H@std@@@8
data$r	SEGMENT
??_R0?AV?$_Iosb@H@std@@@8 DQ FLAT:??_7type_info@@6B@	; std::_Iosb<int> `RTTI Type Descriptor'
	DQ	0000000000000000H
	DB	'.?AV?$_Iosb@H@std@@', 00H
data$r	ENDS
;	COMDAT ??_7StyledWriter@Json@@6B@
CONST	SEGMENT
??_7StyledWriter@Json@@6B@ DQ FLAT:??_R4StyledWriter@Json@@6B@ ; Json::StyledWriter::`vftable'
	DQ	FLAT:??_EStyledWriter@Json@@UEAAPEAXI@Z
	DQ	FLAT:?write@StyledWriter@Json@@UEAA?AV?$basic_string@DU?$char_traits@D@std@@V?$allocator@D@2@@std@@AEBVValue@2@@Z
CONST	ENDS
;	COMDAT ??_R1A@?0A@EA@?$basic_streambuf@DU?$char_traits@D@std@@@std@@8
rdata$r	SEGMENT
??_R1A@?0A@EA@?$basic_streambuf@DU?$char_traits@D@std@@@std@@8 DD imagerel ??_R0?AV?$basic_streambuf@DU?$char_traits@D@std@@@std@@@8 ; std::basic_streambuf<char,std::char_traits<char> >::`RTTI Base Class Descriptor at (0,-1,0,64)'
	DD	00H
	DD	00H
	DD	0ffffffffH
	DD	00H
	DD	040H
	DD	imagerel ??_R3?$basic_streambuf@DU?$char_traits@D@std@@@std@@8
rdata$r	ENDS
;	COMDAT ??_R17A@3EA@?$_Iosb@H@std@@8
rdata$r	SEGMENT
??_R17A@3EA@?$_Iosb@H@std@@8 DD imagerel ??_R0?AV?$_Iosb@H@std@@@8 ; std::_Iosb<int>::`RTTI Base Class Descriptor at (8,0,4,64)'
	DD	00H
	DD	08H
	DD	00H
	DD	04H
	DD	040H
	DD	imagerel ??_R3?$_Iosb@H@std@@8
rdata$r	ENDS
;	COMDAT ??_R3?$basic_ostringstream@DU?$char_traits@D@std@@V?$allocator@D@2@@std@@8
rdata$r	SEGMENT
??_R3?$basic_ostringstream@DU?$char_traits@D@std@@V?$allocator@D@2@@std@@8 DD 00H ; std::basic_ostringstream<char,std::char_traits<char>,std::allocator<char> >::`RTTI Class Hierarchy Descriptor'
	DD	00H
	DD	05H
	DD	imagerel ??_R2?$basic_ostringstream@DU?$char_traits@D@std@@V?$allocator@D@2@@std@@8
rdata$r	ENDS
;	COMDAT ??_R2?$basic_stringbuf@DU?$char_traits@D@std@@V?$allocator@D@2@@std@@8
rdata$r	SEGMENT
??_R2?$basic_stringbuf@DU?$char_traits@D@std@@V?$allocator@D@2@@std@@8 DD imagerel ??_R1A@?0A@EA@?$basic_stringbuf@DU?$char_traits@D@std@@V?$allocator@D@2@@std@@8 ; std::basic_stringbuf<char,std::char_traits<char>,std::allocator<char> >::`RTTI Base Class Array'
	DD	imagerel ??_R1A@?0A@EA@?$basic_streambuf@DU?$char_traits@D@std@@@std@@8
	ORG $+3
rdata$r	ENDS
;	COMDAT ??_R0?AVios_base@std@@@8
data$r	SEGMENT
??_R0?AVios_base@std@@@8 DQ FLAT:??_7type_info@@6B@	; std::ios_base `RTTI Type Descriptor'
	DQ	0000000000000000H
	DB	'.?AVios_base@std@@', 00H
data$r	ENDS
;	COMDAT ??_R0?AVFastWriter@Json@@@8
data$r	SEGMENT
??_R0?AVFastWriter@Json@@@8 DQ FLAT:??_7type_info@@6B@	; Json::FastWriter `RTTI Type Descriptor'
	DQ	0000000000000000H
	DB	'.?AVFastWriter@Json@@', 00H
data$r	ENDS
;	COMDAT ??_R4StyledWriter@Json@@6B@
rdata$r	SEGMENT
??_R4StyledWriter@Json@@6B@ DD 01H			; Json::StyledWriter::`RTTI Complete Object Locator'
	DD	00H
	DD	00H
	DD	imagerel ??_R0?AVStyledWriter@Json@@@8
	DD	imagerel ??_R3StyledWriter@Json@@8
	DD	imagerel ??_R4StyledWriter@Json@@6B@
rdata$r	ENDS
;	COMDAT ??_R0?AV?$basic_stringbuf@DU?$char_traits@D@std@@V?$allocator@D@2@@std@@@8
data$r	SEGMENT
??_R0?AV?$basic_stringbuf@DU?$char_traits@D@std@@V?$allocator@D@2@@std@@@8 DQ FLAT:??_7type_info@@6B@ ; std::basic_stringbuf<char,std::char_traits<char>,std::allocator<char> > `RTTI Type Descriptor'
	DQ	0000000000000000H
	DB	'.?AV?$basic_stringbuf@DU?$char_traits@D@std@@V?$allocato'
	DB	'r@D@2@@std@@', 00H
data$r	ENDS
;	COMDAT ??_R3StyledWriter@Json@@8
rdata$r	SEGMENT
??_R3StyledWriter@Json@@8 DD 00H			; Json::StyledWriter::`RTTI Class Hierarchy Descriptor'
	DD	00H
	DD	02H
	DD	imagerel ??_R2StyledWriter@Json@@8
rdata$r	ENDS
;	COMDAT ??_R2FastWriter@Json@@8
rdata$r	SEGMENT
??_R2FastWriter@Json@@8 DD imagerel ??_R1A@?0A@EA@FastWriter@Json@@8 ; Json::FastWriter::`RTTI Base Class Array'
	DD	imagerel ??_R1A@?0A@EA@Writer@Json@@8
	ORG $+3
rdata$r	ENDS
;	COMDAT ??_7Writer@Json@@6B@
CONST	SEGMENT
??_7Writer@Json@@6B@ DQ FLAT:??_R4Writer@Json@@6B@	; Json::Writer::`vftable'
	DQ	FLAT:??_EWriter@Json@@UEAAPEAXI@Z
	DQ	FLAT:_purecall
CONST	ENDS
;	COMDAT ??_7?$basic_ostringstream@DU?$char_traits@D@std@@V?$allocator@D@2@@std@@6B@
CONST	SEGMENT
??_7?$basic_ostringstream@DU?$char_traits@D@std@@V?$allocator@D@2@@std@@6B@ DQ FLAT:??_R4?$basic_ostringstream@DU?$char_traits@D@std@@V?$allocator@D@2@@std@@6B@ ; std::basic_ostringstream<char,std::char_traits<char>,std::allocator<char> >::`vftable'
	DQ	FLAT:??_E?$basic_ostringstream@DU?$char_traits@D@std@@V?$allocator@D@2@@std@@$4PPPPPPPM@A@EAAPEAXI@Z
CONST	ENDS
;	COMDAT ??_R1A@?0A@EA@FastWriter@Json@@8
rdata$r	SEGMENT
??_R1A@?0A@EA@FastWriter@Json@@8 DD imagerel ??_R0?AVFastWriter@Json@@@8 ; Json::FastWriter::`RTTI Base Class Descriptor at (0,-1,0,64)'
	DD	01H
	DD	00H
	DD	0ffffffffH
	DD	00H
	DD	040H
	DD	imagerel ??_R3FastWriter@Json@@8
rdata$r	ENDS
;	COMDAT ??_R2StyledWriter@Json@@8
rdata$r	SEGMENT
??_R2StyledWriter@Json@@8 DD imagerel ??_R1A@?0A@EA@StyledWriter@Json@@8 ; Json::StyledWriter::`RTTI Base Class Array'
	DD	imagerel ??_R1A@?0A@EA@Writer@Json@@8
	ORG $+3
rdata$r	ENDS
;	COMDAT ??_R4?$basic_ostringstream@DU?$char_traits@D@std@@V?$allocator@D@2@@std@@6B@
rdata$r	SEGMENT
??_R4?$basic_ostringstream@DU?$char_traits@D@std@@V?$allocator@D@2@@std@@6B@ DD 01H ; std::basic_ostringstream<char,std::char_traits<char>,std::allocator<char> >::`RTTI Complete Object Locator'
	DD	088H
	DD	04H
	DD	imagerel ??_R0?AV?$basic_ostringstream@DU?$char_traits@D@std@@V?$allocator@D@2@@std@@@8
	DD	imagerel ??_R3?$basic_ostringstream@DU?$char_traits@D@std@@V?$allocator@D@2@@std@@8
	DD	imagerel ??_R4?$basic_ostringstream@DU?$char_traits@D@std@@V?$allocator@D@2@@std@@6B@
rdata$r	ENDS
;	COMDAT ??_C@_01GPOEFGEJ@?7@
CONST	SEGMENT
??_C@_01GPOEFGEJ@?7@ DB 09H, 00H			; `string'
CONST	ENDS
;	COMDAT ??_C@_01CLKCMJKC@?5@
CONST	SEGMENT
??_C@_01CLKCMJKC@?5@ DB ' ', 00H			; `string'
CONST	ENDS
;	COMDAT ??_C@_02DHOGEDBE@?5?$FN@
CONST	SEGMENT
??_C@_02DHOGEDBE@?5?$FN@ DB ' ]', 00H			; `string'
CONST	ENDS
;	COMDAT ??_C@_02KEGNLNML@?0?5@
CONST	SEGMENT
??_C@_02KEGNLNML@?0?5@ DB ', ', 00H			; `string'
CONST	ENDS
;	COMDAT ??_C@_02PFNDMDBO@?$FL?5@
CONST	SEGMENT
??_C@_02PFNDMDBO@?$FL?5@ DB '[ ', 00H			; `string'
CONST	ENDS
;	COMDAT ??_C@_02GPECMEKF@?$FL?$FN@
CONST	SEGMENT
??_C@_02GPECMEKF@?$FL?$FN@ DB '[]', 00H			; `string'
CONST	ENDS
;	COMDAT ??_C@_03MCPBMLDJ@?5?3?5@
CONST	SEGMENT
??_C@_03MCPBMLDJ@?5?3?5@ DB ' : ', 00H			; `string'
CONST	ENDS
;	COMDAT ??_C@_02MCILKGOH@?$HL?$HN@
CONST	SEGMENT
??_C@_02MCILKGOH@?$HL?$HN@ DB '{}', 00H			; `string'
CONST	ENDS
;	COMDAT ??_C@_01CELHOKLL@?$HN@
CONST	SEGMENT
??_C@_01CELHOKLL@?$HN@ DB '}', 00H			; `string'
CONST	ENDS
;	COMDAT ??_C@_01JLIPDDHJ@?3@
CONST	SEGMENT
??_C@_01JLIPDDHJ@?3@ DB ':', 00H			; `string'
CONST	ENDS
;	COMDAT ??_C@_01HCONENDN@?$HL@
CONST	SEGMENT
??_C@_01HCONENDN@?$HL@ DB '{', 00H			; `string'
CONST	ENDS
;	COMDAT ??_C@_01LBDDMOBJ@?$FN@
CONST	SEGMENT
??_C@_01LBDDMOBJ@?$FN@ DB ']', 00H			; `string'
CONST	ENDS
;	COMDAT ??_C@_01IHBHIGKO@?0@
CONST	SEGMENT
??_C@_01IHBHIGKO@?0@ DB ',', 00H			; `string'
CONST	ENDS
;	COMDAT ??_C@_01OHGJGJJP@?$FL@
CONST	SEGMENT
??_C@_01OHGJGJJP@?$FL@ DB '[', 00H			; `string'
CONST	ENDS
;	COMDAT ??_C@_04MLLLIHIP@null@
CONST	SEGMENT
??_C@_04MLLLIHIP@null@ DB 'null', 00H			; `string'
CONST	ENDS
;	COMDAT ??_C@_01EEMJAFIK@?6@
CONST	SEGMENT
??_C@_01EEMJAFIK@?6@ DB 0aH, 00H			; `string'
CONST	ENDS
;	COMDAT ??_C@_02DHFAHMIK@?2u@
CONST	SEGMENT
??_C@_02DHFAHMIK@?2u@ DB '\u', 00H			; `string'
CONST	ENDS
;	COMDAT ??_C@_02COELENML@?2t@
CONST	SEGMENT
??_C@_02COELENML@?2t@ DB '\t', 00H			; `string'
CONST	ENDS
;	COMDAT ??_C@_02HIBBOKEN@?2r@
CONST	SEGMENT
??_C@_02HIBBOKEN@?2r@ DB '\r', 00H			; `string'
CONST	ENDS
;	COMDAT ??_C@_02JOGGLHBA@?2n@
CONST	SEGMENT
??_C@_02JOGGLHBA@?2n@ DB '\n', 00H			; `string'
CONST	ENDS
;	COMDAT ??_C@_02FGLPDNBI@?2f@
CONST	SEGMENT
??_C@_02FGLPDNBI@?2f@ DB '\f', 00H			; `string'
CONST	ENDS
;	COMDAT ??_C@_02DCNDPIBM@?2b@
CONST	SEGMENT
??_C@_02DCNDPIBM@?2b@ DB '\b', 00H			; `string'
CONST	ENDS
;	COMDAT ??_C@_02HDBGODGB@?2?2@
CONST	SEGMENT
??_C@_02HDBGODGB@?2?2@ DB '\\', 00H			; `string'
CONST	ENDS
;	COMDAT ??_C@_02MCKKLHBJ@?2?$CC@
CONST	SEGMENT
??_C@_02MCKKLHBJ@?2?$CC@ DB '\"', 00H			; `string'
CONST	ENDS
;	COMDAT ??_C@_01BJJEKLCA@?$CC@
CONST	SEGMENT
??_C@_01BJJEKLCA@?$CC@ DB '"', 00H			; `string'
CONST	ENDS
;	COMDAT ??_C@_07FKPPGBGM@?$CC?2?$AI?$AM?6?$AN?7@
CONST	SEGMENT
??_C@_07FKPPGBGM@?$CC?2?$AI?$AM?6?$AN?7@ DB '"\', 08H, 0cH, 0aH, 0dH, 09H
	DB	00H						; `string'
CONST	ENDS
;	COMDAT ??_C@_06ECBCCLMB@?$CF?$CD?416g@
CONST	SEGMENT
??_C@_06ECBCCLMB@?$CF?$CD?416g@ DB '%#.16g', 00H	; `string'
CONST	ENDS
;	COMDAT ??_C@_02LMMGGCAJ@?3?5@
CONST	SEGMENT
??_C@_02LMMGGCAJ@?3?5@ DB ': ', 00H			; `string'
CONST	ENDS
;	COMDAT ??_C@_00CNPNBAHC@@
CONST	SEGMENT
??_C@_00CNPNBAHC@@ DB 00H				; `string'
CONST	ENDS
;	COMDAT ??_C@_04LOAJBDKD@true@
CONST	SEGMENT
??_C@_04LOAJBDKD@true@ DB 'true', 00H			; `string'
CONST	ENDS
;	COMDAT ??_C@_05LAPONLG@false@
CONST	SEGMENT
??_C@_05LAPONLG@false@ DB 'false', 00H			; `string'
CONST	ENDS
PUBLIC	??_E?$basic_ostringstream@DU?$char_traits@D@std@@V?$allocator@D@2@@std@@$4PPPPPPPM@A@EAAPEAXI@Z ; std::basic_ostringstream<char,std::char_traits<char>,std::allocator<char> >::`vector deleting destructor'
PUBLIC	??$_Insert_string@DU?$char_traits@D@std@@_K@std@@YAAEAV?$basic_ostream@DU?$char_traits@D@std@@@0@AEAV10@QEBD_K@Z ; std::_Insert_string<char,std::char_traits<char>,unsigned __int64>
PUBLIC	??0?$_Fillobj@D@std@@QEAA@D@Z			; std::_Fillobj<char>::_Fillobj<char>
PUBLIC	??$addressof@D@std@@YAPEADAEAD@Z		; std::addressof<char>
PUBLIC	??$_Max_value@PEAD@std@@YAAEBQEADAEBQEAD0@Z	; std::_Max_value<char *>
PUBLIC	??$addressof@V?$_Vector_val@U?$_Simple_types@V?$basic_string@DU?$char_traits@D@std@@V?$allocator@D@2@@std@@@std@@@std@@@std@@YAPEAV?$_Vector_val@U?$_Simple_types@V?$basic_string@DU?$char_traits@D@std@@V?$allocator@D@2@@std@@@std@@@0@AEAV10@@Z ; std::addressof<std::_Vector_val<std::_Simple_types<std::basic_string<char,std::char_traits<char>,std::allocator<char> > > > >
PUBLIC	??$?6DU?$char_traits@D@std@@V?$allocator@D@1@@std@@YAAEAV?$basic_ostream@DU?$char_traits@D@std@@@0@AEAV10@AEBV?$basic_string@DU?$char_traits@D@std@@V?$allocator@D@2@@0@@Z ; std::operator<<<char,std::char_traits<char>,std::allocator<char> >
PUBLIC	??$?HDU?$char_traits@D@std@@V?$allocator@D@1@@std@@YA?AV?$basic_string@DU?$char_traits@D@std@@V?$allocator@D@2@@0@QEBD$$QEAV10@@Z ; std::operator+<char,std::char_traits<char>,std::allocator<char> >
PUBLIC	??$?6DU?$char_traits@D@std@@_J@std@@YAAEAV?$basic_ostream@DU?$char_traits@D@std@@@0@AEAV10@AEBU?$_Smanip@_J@0@@Z ; std::operator<<<char,std::char_traits<char>,__int64>
PUBLIC	??$?6DU?$char_traits@D@std@@D@std@@YAAEAV?$basic_ostream@DU?$char_traits@D@std@@@0@AEAV10@AEBU?$_Fillobj@D@0@@Z ; std::operator<<<char,std::char_traits<char>,char>
PUBLIC	??$setfill@D@std@@YA?AU?$_Fillobj@D@0@D@Z	; std::setfill<char>
PUBLIC	??$?6U?$char_traits@D@std@@@std@@YAAEAV?$basic_ostream@DU?$char_traits@D@std@@@0@AEAV10@PEBD@Z ; std::operator<<<std::char_traits<char> >
PUBLIC	?_Getstate@?$basic_stringbuf@DU?$char_traits@D@std@@V?$allocator@D@2@@std@@CAHH@Z ; std::basic_stringbuf<char,std::char_traits<char>,std::allocator<char> >::_Getstate
PUBLIC	??0_Sentry_base@?$basic_ostream@DU?$char_traits@D@std@@@std@@QEAA@AEAV12@@Z ; std::basic_ostream<char,std::char_traits<char> >::_Sentry_base::_Sentry_base
PUBLIC	??1_Sentry_base@?$basic_ostream@DU?$char_traits@D@std@@@std@@QEAA@XZ ; std::basic_ostream<char,std::char_traits<char> >::_Sentry_base::~_Sentry_base
PUBLIC	??0?$_Vector_const_iterator@V?$_Vector_val@U?$_Simple_types@V?$basic_string@DU?$char_traits@D@std@@V?$allocator@D@2@@std@@@std@@@std@@@std@@QEAA@PEAV?$basic_string@DU?$char_traits@D@std@@V?$allocator@D@2@@1@PEBU_Container_base0@1@@Z ; std::_Vector_const_iterator<std::_Vector_val<std::_Simple_types<std::basic_string<char,std::char_traits<char>,std::allocator<char> > > > >::_Vector_const_iterator<std::_Vector_val<std::_Simple_types<std::basic_string<char,std::char_traits<char>,std::allocator<char> > > > >
PUBLIC	??0?$fpos@U_Mbstatet@@@std@@QEAA@_J@Z		; std::fpos<_Mbstatet>::fpos<_Mbstatet>
PUBLIC	??B?$fpos@U_Mbstatet@@@std@@QEBA_JXZ		; std::fpos<_Mbstatet>::operator __int64
PUBLIC	??0?$basic_stringbuf@DU?$char_traits@D@std@@V?$allocator@D@2@@std@@QEAA@H@Z ; std::basic_stringbuf<char,std::char_traits<char>,std::allocator<char> >::basic_stringbuf<char,std::char_traits<char>,std::allocator<char> >
PUBLIC	?str@?$basic_stringbuf@DU?$char_traits@D@std@@V?$allocator@D@2@@std@@QEBA?AV?$basic_string@DU?$char_traits@D@std@@V?$allocator@D@2@@2@XZ ; std::basic_stringbuf<char,std::char_traits<char>,std::allocator<char> >::str
PUBLIC	?_Tidy@?$basic_stringbuf@DU?$char_traits@D@std@@V?$allocator@D@2@@std@@IEAAXXZ ; std::basic_stringbuf<char,std::char_traits<char>,std::allocator<char> >::_Tidy
PUBLIC	??0sentry@?$basic_ostream@DU?$char_traits@D@std@@@std@@QEAA@AEAV12@@Z ; std::basic_ostream<char,std::char_traits<char> >::sentry::sentry
PUBLIC	??1sentry@?$basic_ostream@DU?$char_traits@D@std@@@std@@QEAA@XZ ; std::basic_ostream<char,std::char_traits<char> >::sentry::~sentry
PUBLIC	??Bsentry@?$basic_ostream@DU?$char_traits@D@std@@@std@@QEBA_NXZ ; std::basic_ostream<char,std::char_traits<char> >::sentry::operator bool
PUBLIC	?_Reallocate_exactly@?$vector@V?$basic_string@DU?$char_traits@D@std@@V?$allocator@D@2@@std@@V?$allocator@V?$basic_string@DU?$char_traits@D@std@@V?$allocator@D@2@@std@@@2@@std@@AEAAX_K@Z ; std::vector<std::basic_string<char,std::char_traits<char>,std::allocator<char> >,std::allocator<std::basic_string<char,std::char_traits<char>,std::allocator<char> > > >::_Reallocate_exactly
PUBLIC	??0?$_Vector_iterator@V?$_Vector_val@U?$_Simple_types@V?$basic_string@DU?$char_traits@D@std@@V?$allocator@D@2@@std@@@std@@@std@@@std@@QEAA@PEAV?$basic_string@DU?$char_traits@D@std@@V?$allocator@D@2@@1@PEBU_Container_base0@1@@Z ; std::_Vector_iterator<std::_Vector_val<std::_Simple_types<std::basic_string<char,std::char_traits<char>,std::allocator<char> > > > >::_Vector_iterator<std::_Vector_val<std::_Simple_types<std::basic_string<char,std::char_traits<char>,std::allocator<char> > > > >
PUBLIC	??D?$_Vector_const_iterator@V?$_Vector_val@U?$_Simple_types@V?$basic_string@DU?$char_traits@D@std@@V?$allocator@D@2@@std@@@std@@@std@@@std@@QEBAAEBV?$basic_string@DU?$char_traits@D@std@@V?$allocator@D@2@@1@XZ ; std::_Vector_const_iterator<std::_Vector_val<std::_Simple_types<std::basic_string<char,std::char_traits<char>,std::allocator<char> > > > >::operator*
PUBLIC	??E?$_Vector_const_iterator@V?$_Vector_val@U?$_Simple_types@V?$basic_string@DU?$char_traits@D@std@@V?$allocator@D@2@@std@@@std@@@std@@@std@@QEAAAEAV01@XZ ; std::_Vector_const_iterator<std::_Vector_val<std::_Simple_types<std::basic_string<char,std::char_traits<char>,std::allocator<char> > > > >::operator++
PUBLIC	?_Compat@?$_Vector_const_iterator@V?$_Vector_val@U?$_Simple_types@V?$basic_string@DU?$char_traits@D@std@@V?$allocator@D@2@@std@@@std@@@std@@@std@@QEBAXAEBV12@@Z ; std::_Vector_const_iterator<std::_Vector_val<std::_Simple_types<std::basic_string<char,std::char_traits<char>,std::allocator<char> > > > >::_Compat
PUBLIC	?pointer_to@?$pointer_traits@PEAD@std@@SAPEADAEAD@Z ; std::pointer_traits<char *>::pointer_to
PUBLIC	??_G?$basic_stringbuf@DU?$char_traits@D@std@@V?$allocator@D@2@@std@@UEAAPEAXI@Z ; std::basic_stringbuf<char,std::char_traits<char>,std::allocator<char> >::`scalar deleting destructor'
PUBLIC	??_G?$basic_ostringstream@DU?$char_traits@D@std@@V?$allocator@D@2@@std@@UEAAPEAXI@Z ; std::basic_ostringstream<char,std::char_traits<char>,std::allocator<char> >::`scalar deleting destructor'
PUBLIC	??1?$basic_stringbuf@DU?$char_traits@D@std@@V?$allocator@D@2@@std@@UEAA@XZ ; std::basic_stringbuf<char,std::char_traits<char>,std::allocator<char> >::~basic_stringbuf<char,std::char_traits<char>,std::allocator<char> >
PUBLIC	?overflow@?$basic_stringbuf@DU?$char_traits@D@std@@V?$allocator@D@2@@std@@MEAAHH@Z ; std::basic_stringbuf<char,std::char_traits<char>,std::allocator<char> >::overflow
PUBLIC	?pbackfail@?$basic_stringbuf@DU?$char_traits@D@std@@V?$allocator@D@2@@std@@MEAAHH@Z ; std::basic_stringbuf<char,std::char_traits<char>,std::allocator<char> >::pbackfail
PUBLIC	?underflow@?$basic_stringbuf@DU?$char_traits@D@std@@V?$allocator@D@2@@std@@MEAAHXZ ; std::basic_stringbuf<char,std::char_traits<char>,std::allocator<char> >::underflow
PUBLIC	?seekoff@?$basic_stringbuf@DU?$char_traits@D@std@@V?$allocator@D@2@@std@@MEAA?AV?$fpos@U_Mbstatet@@@2@_JHH@Z ; std::basic_stringbuf<char,std::char_traits<char>,std::allocator<char> >::seekoff
PUBLIC	?seekpos@?$basic_stringbuf@DU?$char_traits@D@std@@V?$allocator@D@2@@std@@MEAA?AV?$fpos@U_Mbstatet@@@2@V32@H@Z ; std::basic_stringbuf<char,std::char_traits<char>,std::allocator<char> >::seekpos
PUBLIC	??0?$basic_ostringstream@DU?$char_traits@D@std@@V?$allocator@D@2@@std@@QEAA@H@Z ; std::basic_ostringstream<char,std::char_traits<char>,std::allocator<char> >::basic_ostringstream<char,std::char_traits<char>,std::allocator<char> >
PUBLIC	??1?$basic_ostringstream@DU?$char_traits@D@std@@V?$allocator@D@2@@std@@UEAA@XZ ; std::basic_ostringstream<char,std::char_traits<char>,std::allocator<char> >::~basic_ostringstream<char,std::char_traits<char>,std::allocator<char> >
PUBLIC	?str@?$basic_ostringstream@DU?$char_traits@D@std@@V?$allocator@D@2@@std@@QEBA?AV?$basic_string@DU?$char_traits@D@std@@V?$allocator@D@2@@2@XZ ; std::basic_ostringstream<char,std::char_traits<char>,std::allocator<char> >::str
PUBLIC	?reserve@?$vector@V?$basic_string@DU?$char_traits@D@std@@V?$allocator@D@2@@std@@V?$allocator@V?$basic_string@DU?$char_traits@D@std@@V?$allocator@D@2@@std@@@2@@std@@QEAAX_K@Z ; std::vector<std::basic_string<char,std::char_traits<char>,std::allocator<char> >,std::allocator<std::basic_string<char,std::char_traits<char>,std::allocator<char> > > >::reserve
PUBLIC	?clear@?$vector@V?$basic_string@DU?$char_traits@D@std@@V?$allocator@D@2@@std@@V?$allocator@V?$basic_string@DU?$char_traits@D@std@@V?$allocator@D@2@@std@@@2@@std@@QEAAXXZ ; std::vector<std::basic_string<char,std::char_traits<char>,std::allocator<char> >,std::allocator<std::basic_string<char,std::char_traits<char>,std::allocator<char> > > >::clear
PUBLIC	?begin@?$vector@V?$basic_string@DU?$char_traits@D@std@@V?$allocator@D@2@@std@@V?$allocator@V?$basic_string@DU?$char_traits@D@std@@V?$allocator@D@2@@std@@@2@@std@@QEAA?AV?$_Vector_iterator@V?$_Vector_val@U?$_Simple_types@V?$basic_string@DU?$char_traits@D@std@@V?$allocator@D@2@@std@@@std@@@std@@@2@XZ ; std::vector<std::basic_string<char,std::char_traits<char>,std::allocator<char> >,std::allocator<std::basic_string<char,std::char_traits<char>,std::allocator<char> > > >::begin
PUBLIC	?end@?$vector@V?$basic_string@DU?$char_traits@D@std@@V?$allocator@D@2@@std@@V?$allocator@V?$basic_string@DU?$char_traits@D@std@@V?$allocator@D@2@@std@@@2@@std@@QEAA?AV?$_Vector_iterator@V?$_Vector_val@U?$_Simple_types@V?$basic_string@DU?$char_traits@D@std@@V?$allocator@D@2@@std@@@std@@@std@@@2@XZ ; std::vector<std::basic_string<char,std::char_traits<char>,std::allocator<char> >,std::allocator<std::basic_string<char,std::char_traits<char>,std::allocator<char> > > >::end
PUBLIC	?empty@?$vector@V?$basic_string@DU?$char_traits@D@std@@V?$allocator@D@2@@std@@V?$allocator@V?$basic_string@DU?$char_traits@D@std@@V?$allocator@D@2@@std@@@2@@std@@QEBA_NXZ ; std::vector<std::basic_string<char,std::char_traits<char>,std::allocator<char> >,std::allocator<std::basic_string<char,std::char_traits<char>,std::allocator<char> > > >::empty
PUBLIC	??A?$vector@V?$basic_string@DU?$char_traits@D@std@@V?$allocator@D@2@@std@@V?$allocator@V?$basic_string@DU?$char_traits@D@std@@V?$allocator@D@2@@std@@@2@@std@@QEAAAEAV?$basic_string@DU?$char_traits@D@std@@V?$allocator@D@2@@1@_K@Z ; std::vector<std::basic_string<char,std::char_traits<char>,std::allocator<char> >,std::allocator<std::basic_string<char,std::char_traits<char>,std::allocator<char> > > >::operator[]
PUBLIC	??D?$_Vector_iterator@V?$_Vector_val@U?$_Simple_types@V?$basic_string@DU?$char_traits@D@std@@V?$allocator@D@2@@std@@@std@@@std@@@std@@QEBAAEAV?$basic_string@DU?$char_traits@D@std@@V?$allocator@D@2@@1@XZ ; std::_Vector_iterator<std::_Vector_val<std::_Simple_types<std::basic_string<char,std::char_traits<char>,std::allocator<char> > > > >::operator*
PUBLIC	??E?$_Vector_iterator@V?$_Vector_val@U?$_Simple_types@V?$basic_string@DU?$char_traits@D@std@@V?$allocator@D@2@@std@@@std@@@std@@@std@@QEAAAEAV01@XZ ; std::_Vector_iterator<std::_Vector_val<std::_Simple_types<std::basic_string<char,std::char_traits<char>,std::allocator<char> > > > >::operator++
PUBLIC	??8?$_Vector_const_iterator@V?$_Vector_val@U?$_Simple_types@V?$basic_string@DU?$char_traits@D@std@@V?$allocator@D@2@@std@@@std@@@std@@@std@@QEBA_NAEBV01@@Z ; std::_Vector_const_iterator<std::_Vector_val<std::_Simple_types<std::basic_string<char,std::char_traits<char>,std::allocator<char> > > > >::operator==
PUBLIC	??9?$_Vector_const_iterator@V?$_Vector_val@U?$_Simple_types@V?$basic_string@DU?$char_traits@D@std@@V?$allocator@D@2@@std@@@std@@@std@@@std@@QEBA_NAEBV01@@Z ; std::_Vector_const_iterator<std::_Vector_val<std::_Simple_types<std::basic_string<char,std::char_traits<char>,std::allocator<char> > > > >::operator!=
PUBLIC	?normalizeEOL@StyledWriter@Json@@CA?AV?$basic_string@DU?$char_traits@D@std@@V?$allocator@D@2@@std@@AEBV34@@Z ; Json::StyledWriter::normalizeEOL
PUBLIC	?hasCommentForValue@StyledWriter@Json@@AEAA_NAEBVValue@2@@Z ; Json::StyledWriter::hasCommentForValue
PUBLIC	?writeCommentAfterValueOnSameLine@StyledWriter@Json@@AEAAXAEBVValue@2@@Z ; Json::StyledWriter::writeCommentAfterValueOnSameLine
PUBLIC	?writeCommentBeforeValue@StyledWriter@Json@@AEAAXAEBVValue@2@@Z ; Json::StyledWriter::writeCommentBeforeValue
PUBLIC	?unindent@StyledWriter@Json@@AEAAXXZ		; Json::StyledWriter::unindent
PUBLIC	?indent@StyledWriter@Json@@AEAAXXZ		; Json::StyledWriter::indent
PUBLIC	?writeWithIndent@StyledWriter@Json@@AEAAXAEBV?$basic_string@DU?$char_traits@D@std@@V?$allocator@D@2@@std@@@Z ; Json::StyledWriter::writeWithIndent
PUBLIC	?writeIndent@StyledWriter@Json@@AEAAXXZ		; Json::StyledWriter::writeIndent
PUBLIC	?pushValue@StyledWriter@Json@@AEAAXAEBV?$basic_string@DU?$char_traits@D@std@@V?$allocator@D@2@@std@@@Z ; Json::StyledWriter::pushValue
PUBLIC	?isMultineArray@StyledWriter@Json@@AEAA_NAEBVValue@2@@Z ; Json::StyledWriter::isMultineArray
PUBLIC	?writeArrayValue@StyledWriter@Json@@AEAAXAEBVValue@2@@Z ; Json::StyledWriter::writeArrayValue
PUBLIC	?writeValue@StyledWriter@Json@@AEAAXAEBVValue@2@@Z ; Json::StyledWriter::writeValue
PUBLIC	?write@StyledWriter@Json@@UEAA?AV?$basic_string@DU?$char_traits@D@std@@V?$allocator@D@2@@std@@AEBVValue@2@@Z ; Json::StyledWriter::write
PUBLIC	??0StyledWriter@Json@@QEAA@XZ			; Json::StyledWriter::StyledWriter
PUBLIC	?writeValue@FastWriter@Json@@AEAAXAEBVValue@2@@Z ; Json::FastWriter::writeValue
PUBLIC	?write@FastWriter@Json@@UEAA?AV?$basic_string@DU?$char_traits@D@std@@V?$allocator@D@2@@std@@AEBVValue@2@@Z ; Json::FastWriter::write
PUBLIC	??0Writer@Json@@QEAA@XZ				; Json::Writer::Writer
PUBLIC	??0FastWriter@Json@@QEAA@XZ			; Json::FastWriter::FastWriter
PUBLIC	??_GWriter@Json@@UEAAPEAXI@Z			; Json::Writer::`scalar deleting destructor'
PUBLIC	??1Writer@Json@@UEAA@XZ				; Json::Writer::~Writer
PUBLIC	??_D?$basic_ostringstream@DU?$char_traits@D@std@@V?$allocator@D@2@@std@@QEAAXXZ ; std::basic_ostringstream<char,std::char_traits<char>,std::allocator<char> >::`vbase destructor'
PUBLIC	?valueToQuotedString@Json@@YA?AV?$basic_string@DU?$char_traits@D@std@@V?$allocator@D@2@@std@@PEBD@Z ; Json::valueToQuotedString
PUBLIC	?valueToString@Json@@YA?AV?$basic_string@DU?$char_traits@D@std@@V?$allocator@D@2@@std@@_N@Z ; Json::valueToString
PUBLIC	?valueToString@Json@@YA?AV?$basic_string@DU?$char_traits@D@std@@V?$allocator@D@2@@std@@N@Z ; Json::valueToString
PUBLIC	?valueToString@Json@@YA?AV?$basic_string@DU?$char_traits@D@std@@V?$allocator@D@2@@std@@I@Z ; Json::valueToString
PUBLIC	?valueToString@Json@@YA?AV?$basic_string@DU?$char_traits@D@std@@V?$allocator@D@2@@std@@H@Z ; Json::valueToString
PUBLIC	??_GStyledWriter@Json@@UEAAPEAXI@Z		; Json::StyledWriter::`scalar deleting destructor'
PUBLIC	??1StyledWriter@Json@@UEAA@XZ			; Json::StyledWriter::~StyledWriter
PUBLIC	??_GFastWriter@Json@@UEAAPEAXI@Z		; Json::FastWriter::`scalar deleting destructor'
PUBLIC	??1FastWriter@Json@@UEAA@XZ			; Json::FastWriter::~FastWriter
PUBLIC	?uppercase@std@@YAAEAVios_base@1@AEAV21@@Z	; std::uppercase
PUBLIC	?hex@std@@YAAEAVios_base@1@AEAV21@@Z		; std::hex
PUBLIC	?eof@?$char_traits@D@std@@SAHXZ			; std::char_traits<char>::eof
PUBLIC	?not_eof@?$char_traits@D@std@@SAHAEBH@Z		; std::char_traits<char>::not_eof
PUBLIC	?eq_int_type@?$char_traits@D@std@@SA_NAEBH0@Z	; std::char_traits<char>::eq_int_type
PUBLIC	?to_int_type@?$char_traits@D@std@@SAHAEBD@Z	; std::char_traits<char>::to_int_type
PUBLIC	?to_char_type@?$char_traits@D@std@@SADAEBH@Z	; std::char_traits<char>::to_char_type
PUBLIC	sprintf_s
PUBLIC	_vsprintf_s_l
PUBLIC	__local_stdio_printf_options
EXTRN	??_E?$basic_ostringstream@DU?$char_traits@D@std@@V?$allocator@D@2@@std@@UEAAPEAXI@Z:PROC ; std::basic_ostringstream<char,std::char_traits<char>,std::allocator<char> >::`vector deleting destructor'
EXTRN	??_E?$basic_stringbuf@DU?$char_traits@D@std@@V?$allocator@D@2@@std@@UEAAPEAXI@Z:PROC ; std::basic_stringbuf<char,std::char_traits<char>,std::allocator<char> >::`vector deleting destructor'
EXTRN	??_EFastWriter@Json@@UEAAPEAXI@Z:PROC		; Json::FastWriter::`vector deleting destructor'
EXTRN	??_EWriter@Json@@UEAAPEAXI@Z:PROC		; Json::Writer::`vector deleting destructor'
EXTRN	??_EStyledWriter@Json@@UEAAPEAXI@Z:PROC		; Json::StyledWriter::`vector deleting destructor'
;	COMDAT pdata
pdata	SEGMENT
$pdata$??$_Insert_string@DU?$char_traits@D@std@@_K@std@@YAAEAV?$basic_ostream@DU?$char_traits@D@std@@@0@AEAV10@QEBD_K@Z DD imagerel $LN108
	DD	imagerel $LN108+466
	DD	imagerel $unwind$??$_Insert_string@DU?$char_traits@D@std@@_K@std@@YAAEAV?$basic_ostream@DU?$char_traits@D@std@@@0@AEAV10@QEBD_K@Z
pdata	ENDS
;	COMDAT pdata
pdata	SEGMENT
$pdata$?catch$4@?0???$_Insert_string@DU?$char_traits@D@std@@_K@std@@YAAEAV?$basic_ostream@DU?$char_traits@D@std@@@0@AEAV10@QEBD_K@Z@4HA DD imagerel ?catch$4@?0???$_Insert_string@DU?$char_traits@D@std@@_K@std@@YAAEAV?$basic_ostream@DU?$char_traits@D@std@@@0@AEAV10@QEBD_K@Z@4HA
	DD	imagerel ?catch$4@?0???$_Insert_string@DU?$char_traits@D@std@@_K@std@@YAAEAV?$basic_ostream@DU?$char_traits@D@std@@@0@AEAV10@QEBD_K@Z@4HA+56
	DD	imagerel $unwind$?catch$4@?0???$_Insert_string@DU?$char_traits@D@std@@_K@std@@YAAEAV?$basic_ostream@DU?$char_traits@D@std@@@0@AEAV10@QEBD_K@Z@4HA
pdata	ENDS
;	COMDAT pdata
pdata	SEGMENT
$pdata$??$?6DU?$char_traits@D@std@@V?$allocator@D@1@@std@@YAAEAV?$basic_ostream@DU?$char_traits@D@std@@@0@AEAV10@AEBV?$basic_string@DU?$char_traits@D@std@@V?$allocator@D@2@@0@@Z DD imagerel $LN4
	DD	imagerel $LN4+69
	DD	imagerel $unwind$??$?6DU?$char_traits@D@std@@V?$allocator@D@1@@std@@YAAEAV?$basic_ostream@DU?$char_traits@D@std@@@0@AEAV10@AEBV?$basic_string@DU?$char_traits@D@std@@V?$allocator@D@2@@0@@Z
pdata	ENDS
;	COMDAT pdata
pdata	SEGMENT
$pdata$??$?HDU?$char_traits@D@std@@V?$allocator@D@1@@std@@YA?AV?$basic_string@DU?$char_traits@D@std@@V?$allocator@D@2@@0@QEBD$$QEAV10@@Z DD imagerel $LN7
	DD	imagerel $LN7+53
	DD	imagerel $unwind$??$?HDU?$char_traits@D@std@@V?$allocator@D@1@@std@@YA?AV?$basic_string@DU?$char_traits@D@std@@V?$allocator@D@2@@0@QEBD$$QEAV10@@Z
pdata	ENDS
;	COMDAT pdata
pdata	SEGMENT
$pdata$??$?6DU?$char_traits@D@std@@_J@std@@YAAEAV?$basic_ostream@DU?$char_traits@D@std@@@0@AEAV10@AEBU?$_Smanip@_J@0@@Z DD imagerel $LN4
	DD	imagerel $LN4+38
	DD	imagerel $unwind$??$?6DU?$char_traits@D@std@@_J@std@@YAAEAV?$basic_ostream@DU?$char_traits@D@std@@@0@AEAV10@AEBU?$_Smanip@_J@0@@Z
pdata	ENDS
;	COMDAT pdata
pdata	SEGMENT
$pdata$??$?6U?$char_traits@D@std@@@std@@YAAEAV?$basic_ostream@DU?$char_traits@D@std@@@0@AEAV10@PEBD@Z DD imagerel $LN106
	DD	imagerel $LN106+451
	DD	imagerel $unwind$??$?6U?$char_traits@D@std@@@std@@YAAEAV?$basic_ostream@DU?$char_traits@D@std@@@0@AEAV10@PEBD@Z
pdata	ENDS
;	COMDAT pdata
pdata	SEGMENT
$pdata$?catch$4@?0???$?6U?$char_traits@D@std@@@std@@YAAEAV?$basic_ostream@DU?$char_traits@D@std@@@0@AEAV10@PEBD@Z@4HA DD imagerel ?catch$4@?0???$?6U?$char_traits@D@std@@@std@@YAAEAV?$basic_ostream@DU?$char_traits@D@std@@@0@AEAV10@PEBD@Z@4HA
	DD	imagerel ?catch$4@?0???$?6U?$char_traits@D@std@@@std@@YAAEAV?$basic_ostream@DU?$char_traits@D@std@@@0@AEAV10@PEBD@Z@4HA+56
	DD	imagerel $unwind$?catch$4@?0???$?6U?$char_traits@D@std@@@std@@YAAEAV?$basic_ostream@DU?$char_traits@D@std@@@0@AEAV10@PEBD@Z@4HA
pdata	ENDS
;	COMDAT pdata
pdata	SEGMENT
$pdata$??0_Sentry_base@?$basic_ostream@DU?$char_traits@D@std@@@std@@QEAA@AEAV12@@Z DD imagerel $LN10
	DD	imagerel $LN10+44
	DD	imagerel $unwind$??0_Sentry_base@?$basic_ostream@DU?$char_traits@D@std@@@std@@QEAA@AEAV12@@Z
pdata	ENDS
;	COMDAT pdata
pdata	SEGMENT
$pdata$??1_Sentry_base@?$basic_ostream@DU?$char_traits@D@std@@@std@@QEAA@XZ DD imagerel $LN10
	DD	imagerel $LN10+45
	DD	imagerel $unwind$??1_Sentry_base@?$basic_ostream@DU?$char_traits@D@std@@@std@@QEAA@XZ
pdata	ENDS
;	COMDAT pdata
pdata	SEGMENT
$pdata$??0?$_Vector_const_iterator@V?$_Vector_val@U?$_Simple_types@V?$basic_string@DU?$char_traits@D@std@@V?$allocator@D@2@@std@@@std@@@std@@@std@@QEAA@PEAV?$basic_string@DU?$char_traits@D@std@@V?$allocator@D@2@@1@PEBU_Container_base0@1@@Z DD imagerel $LN4
	DD	imagerel $LN4+29
	DD	imagerel $unwind$??0?$_Vector_const_iterator@V?$_Vector_val@U?$_Simple_types@V?$basic_string@DU?$char_traits@D@std@@V?$allocator@D@2@@std@@@std@@@std@@@std@@QEAA@PEAV?$basic_string@DU?$char_traits@D@std@@V?$allocator@D@2@@1@PEBU_Container_base0@1@@Z
pdata	ENDS
;	COMDAT pdata
pdata	SEGMENT
$pdata$??0?$basic_stringbuf@DU?$char_traits@D@std@@V?$allocator@D@2@@std@@QEAA@H@Z DD imagerel $LN12
	DD	imagerel $LN12+58
	DD	imagerel $unwind$??0?$basic_stringbuf@DU?$char_traits@D@std@@V?$allocator@D@2@@std@@QEAA@H@Z
pdata	ENDS
;	COMDAT pdata
pdata	SEGMENT
$pdata$?str@?$basic_stringbuf@DU?$char_traits@D@std@@V?$allocator@D@2@@std@@QEBA?AV?$basic_string@DU?$char_traits@D@std@@V?$allocator@D@2@@2@XZ DD imagerel $LN27
	DD	imagerel $LN27+159
	DD	imagerel $unwind$?str@?$basic_stringbuf@DU?$char_traits@D@std@@V?$allocator@D@2@@std@@QEBA?AV?$basic_string@DU?$char_traits@D@std@@V?$allocator@D@2@@2@XZ
pdata	ENDS
;	COMDAT pdata
pdata	SEGMENT
$pdata$?dtor$0@?0??str@?$basic_stringbuf@DU?$char_traits@D@std@@V?$allocator@D@2@@std@@QEBA?AV?$basic_string@DU?$char_traits@D@std@@V?$allocator@D@2@@2@XZ@4HA DD imagerel ?dtor$0@?0??str@?$basic_stringbuf@DU?$char_traits@D@std@@V?$allocator@D@2@@std@@QEBA?AV?$basic_string@DU?$char_traits@D@std@@V?$allocator@D@2@@2@XZ@4HA
	DD	imagerel ?dtor$0@?0??str@?$basic_stringbuf@DU?$char_traits@D@std@@V?$allocator@D@2@@std@@QEBA?AV?$basic_string@DU?$char_traits@D@std@@V?$allocator@D@2@@2@XZ@4HA+38
	DD	imagerel $unwind$?dtor$0@?0??str@?$basic_stringbuf@DU?$char_traits@D@std@@V?$allocator@D@2@@std@@QEBA?AV?$basic_string@DU?$char_traits@D@std@@V?$allocator@D@2@@2@XZ@4HA
pdata	ENDS
;	COMDAT pdata
pdata	SEGMENT
$pdata$?_Tidy@?$basic_stringbuf@DU?$char_traits@D@std@@V?$allocator@D@2@@std@@IEAAXXZ DD imagerel $LN26
	DD	imagerel $LN26+128
	DD	imagerel $unwind$?_Tidy@?$basic_stringbuf@DU?$char_traits@D@std@@V?$allocator@D@2@@std@@IEAAXXZ
pdata	ENDS
;	COMDAT pdata
pdata	SEGMENT
$pdata$??0sentry@?$basic_ostream@DU?$char_traits@D@std@@@std@@QEAA@AEAV12@@Z DD imagerel $LN28
	DD	imagerel $LN28+126
	DD	imagerel $unwind$??0sentry@?$basic_ostream@DU?$char_traits@D@std@@@std@@QEAA@AEAV12@@Z
pdata	ENDS
;	COMDAT pdata
pdata	SEGMENT
$pdata$??1sentry@?$basic_ostream@DU?$char_traits@D@std@@@std@@QEAA@XZ DD imagerel $LN15
	DD	imagerel $LN15+71
	DD	imagerel $unwind$??1sentry@?$basic_ostream@DU?$char_traits@D@std@@@std@@QEAA@XZ
pdata	ENDS
;	COMDAT pdata
pdata	SEGMENT
$pdata$?_Reallocate_exactly@?$vector@V?$basic_string@DU?$char_traits@D@std@@V?$allocator@D@2@@std@@V?$allocator@V?$basic_string@DU?$char_traits@D@std@@V?$allocator@D@2@@std@@@2@@std@@AEAAX_K@Z DD imagerel $LN10
	DD	imagerel $LN10+141
	DD	imagerel $unwind$?_Reallocate_exactly@?$vector@V?$basic_string@DU?$char_traits@D@std@@V?$allocator@D@2@@std@@V?$allocator@V?$basic_string@DU?$char_traits@D@std@@V?$allocator@D@2@@std@@@2@@std@@AEAAX_K@Z
pdata	ENDS
;	COMDAT pdata
pdata	SEGMENT
$pdata$??0?$_Vector_iterator@V?$_Vector_val@U?$_Simple_types@V?$basic_string@DU?$char_traits@D@std@@V?$allocator@D@2@@std@@@std@@@std@@@std@@QEAA@PEAV?$basic_string@DU?$char_traits@D@std@@V?$allocator@D@2@@1@PEBU_Container_base0@1@@Z DD imagerel $LN6
	DD	imagerel $LN6+29
	DD	imagerel $unwind$??0?$_Vector_iterator@V?$_Vector_val@U?$_Simple_types@V?$basic_string@DU?$char_traits@D@std@@V?$allocator@D@2@@std@@@std@@@std@@@std@@QEAA@PEAV?$basic_string@DU?$char_traits@D@std@@V?$allocator@D@2@@1@PEBU_Container_base0@1@@Z
pdata	ENDS
;	COMDAT pdata
pdata	SEGMENT
$pdata$??_G?$basic_stringbuf@DU?$char_traits@D@std@@V?$allocator@D@2@@std@@UEAAPEAXI@Z DD imagerel $LN7
	DD	imagerel $LN7+52
	DD	imagerel $unwind$??_G?$basic_stringbuf@DU?$char_traits@D@std@@V?$allocator@D@2@@std@@UEAAPEAXI@Z
pdata	ENDS
;	COMDAT pdata
pdata	SEGMENT
$pdata$??_G?$basic_ostringstream@DU?$char_traits@D@std@@V?$allocator@D@2@@std@@UEAAPEAXI@Z DD imagerel $LN12
	DD	imagerel $LN12+146
	DD	imagerel $unwind$??_G?$basic_ostringstream@DU?$char_traits@D@std@@V?$allocator@D@2@@std@@UEAAPEAXI@Z
pdata	ENDS
;	COMDAT pdata
pdata	SEGMENT
$pdata$??1?$basic_stringbuf@DU?$char_traits@D@std@@V?$allocator@D@2@@std@@UEAA@XZ DD imagerel $LN28
	DD	imagerel $LN28+157
	DD	imagerel $unwind$??1?$basic_stringbuf@DU?$char_traits@D@std@@V?$allocator@D@2@@std@@UEAA@XZ
pdata	ENDS
;	COMDAT pdata
pdata	SEGMENT
$pdata$?overflow@?$basic_stringbuf@DU?$char_traits@D@std@@V?$allocator@D@2@@std@@MEAAHH@Z DD imagerel $LN60
	DD	imagerel $LN60+179
	DD	imagerel $unwind$?overflow@?$basic_stringbuf@DU?$char_traits@D@std@@V?$allocator@D@2@@std@@MEAAHH@Z
pdata	ENDS
;	COMDAT pdata
pdata	SEGMENT
$pdata$0$?overflow@?$basic_stringbuf@DU?$char_traits@D@std@@V?$allocator@D@2@@std@@MEAAHH@Z DD imagerel $LN60+179
	DD	imagerel $LN60+191
	DD	imagerel $chain$0$?overflow@?$basic_stringbuf@DU?$char_traits@D@std@@V?$allocator@D@2@@std@@MEAAHH@Z
pdata	ENDS
;	COMDAT pdata
pdata	SEGMENT
$pdata$1$?overflow@?$basic_stringbuf@DU?$char_traits@D@std@@V?$allocator@D@2@@std@@MEAAHH@Z DD imagerel $LN60+191
	DD	imagerel $LN60+347
	DD	imagerel $chain$1$?overflow@?$basic_stringbuf@DU?$char_traits@D@std@@V?$allocator@D@2@@std@@MEAAHH@Z
pdata	ENDS
;	COMDAT pdata
pdata	SEGMENT
$pdata$2$?overflow@?$basic_stringbuf@DU?$char_traits@D@std@@V?$allocator@D@2@@std@@MEAAHH@Z DD imagerel $LN60+347
	DD	imagerel $LN60+407
	DD	imagerel $chain$2$?overflow@?$basic_stringbuf@DU?$char_traits@D@std@@V?$allocator@D@2@@std@@MEAAHH@Z
pdata	ENDS
;	COMDAT pdata
pdata	SEGMENT
$pdata$3$?overflow@?$basic_stringbuf@DU?$char_traits@D@std@@V?$allocator@D@2@@std@@MEAAHH@Z DD imagerel $LN60+407
	DD	imagerel $LN60+429
	DD	imagerel $chain$3$?overflow@?$basic_stringbuf@DU?$char_traits@D@std@@V?$allocator@D@2@@std@@MEAAHH@Z
pdata	ENDS
;	COMDAT pdata
pdata	SEGMENT
$pdata$?pbackfail@?$basic_stringbuf@DU?$char_traits@D@std@@V?$allocator@D@2@@std@@MEAAHH@Z DD imagerel $LN38
	DD	imagerel $LN38+132
	DD	imagerel $unwind$?pbackfail@?$basic_stringbuf@DU?$char_traits@D@std@@V?$allocator@D@2@@std@@MEAAHH@Z
pdata	ENDS
;	COMDAT pdata
pdata	SEGMENT
$pdata$?seekoff@?$basic_stringbuf@DU?$char_traits@D@std@@V?$allocator@D@2@@std@@MEAA?AV?$fpos@U_Mbstatet@@@2@_JHH@Z DD imagerel $LN45
	DD	imagerel $LN45+326
	DD	imagerel $unwind$?seekoff@?$basic_stringbuf@DU?$char_traits@D@std@@V?$allocator@D@2@@std@@MEAA?AV?$fpos@U_Mbstatet@@@2@_JHH@Z
pdata	ENDS
;	COMDAT pdata
pdata	SEGMENT
$pdata$?seekpos@?$basic_stringbuf@DU?$char_traits@D@std@@V?$allocator@D@2@@std@@MEAA?AV?$fpos@U_Mbstatet@@@2@V32@H@Z DD imagerel $LN32
	DD	imagerel $LN32+232
	DD	imagerel $unwind$?seekpos@?$basic_stringbuf@DU?$char_traits@D@std@@V?$allocator@D@2@@std@@MEAA?AV?$fpos@U_Mbstatet@@@2@V32@H@Z
pdata	ENDS
;	COMDAT pdata
pdata	SEGMENT
$pdata$??0?$basic_ostringstream@DU?$char_traits@D@std@@V?$allocator@D@2@@std@@QEAA@H@Z DD imagerel $LN19
	DD	imagerel $LN19+193
	DD	imagerel $unwind$??0?$basic_ostringstream@DU?$char_traits@D@std@@V?$allocator@D@2@@std@@QEAA@H@Z
pdata	ENDS
;	COMDAT pdata
pdata	SEGMENT
$pdata$?dtor$0@?0???0?$basic_ostringstream@DU?$char_traits@D@std@@V?$allocator@D@2@@std@@QEAA@H@Z@4HA DD imagerel ?dtor$0@?0???0?$basic_ostringstream@DU?$char_traits@D@std@@V?$allocator@D@2@@std@@QEAA@H@Z@4HA
	DD	imagerel ?dtor$0@?0???0?$basic_ostringstream@DU?$char_traits@D@std@@V?$allocator@D@2@@std@@QEAA@H@Z@4HA+46
	DD	imagerel $unwind$?dtor$0@?0???0?$basic_ostringstream@DU?$char_traits@D@std@@V?$allocator@D@2@@std@@QEAA@H@Z@4HA
pdata	ENDS
;	COMDAT pdata
pdata	SEGMENT
$pdata$??1?$basic_ostringstream@DU?$char_traits@D@std@@V?$allocator@D@2@@std@@UEAA@XZ DD imagerel $LN5
	DD	imagerel $LN5+86
	DD	imagerel $unwind$??1?$basic_ostringstream@DU?$char_traits@D@std@@V?$allocator@D@2@@std@@UEAA@XZ
pdata	ENDS
;	COMDAT pdata
pdata	SEGMENT
$pdata$?str@?$basic_ostringstream@DU?$char_traits@D@std@@V?$allocator@D@2@@std@@QEBA?AV?$basic_string@DU?$char_traits@D@std@@V?$allocator@D@2@@2@XZ DD imagerel $LN31
	DD	imagerel $LN31+175
	DD	imagerel $unwind$?str@?$basic_ostringstream@DU?$char_traits@D@std@@V?$allocator@D@2@@std@@QEBA?AV?$basic_string@DU?$char_traits@D@std@@V?$allocator@D@2@@2@XZ
pdata	ENDS
;	COMDAT pdata
pdata	SEGMENT
$pdata$?dtor$1@?0??str@?$basic_ostringstream@DU?$char_traits@D@std@@V?$allocator@D@2@@std@@QEBA?AV?$basic_string@DU?$char_traits@D@std@@V?$allocator@D@2@@2@XZ@4HA DD imagerel ?dtor$1@?0??str@?$basic_ostringstream@DU?$char_traits@D@std@@V?$allocator@D@2@@std@@QEBA?AV?$basic_string@DU?$char_traits@D@std@@V?$allocator@D@2@@2@XZ@4HA
	DD	imagerel ?dtor$1@?0??str@?$basic_ostringstream@DU?$char_traits@D@std@@V?$allocator@D@2@@std@@QEBA?AV?$basic_string@DU?$char_traits@D@std@@V?$allocator@D@2@@2@XZ@4HA+38
	DD	imagerel $unwind$?dtor$1@?0??str@?$basic_ostringstream@DU?$char_traits@D@std@@V?$allocator@D@2@@std@@QEBA?AV?$basic_string@DU?$char_traits@D@std@@V?$allocator@D@2@@2@XZ@4HA
pdata	ENDS
;	COMDAT pdata
pdata	SEGMENT
$pdata$?reserve@?$vector@V?$basic_string@DU?$char_traits@D@std@@V?$allocator@D@2@@std@@V?$allocator@V?$basic_string@DU?$char_traits@D@std@@V?$allocator@D@2@@std@@@2@@std@@QEAAX_K@Z DD imagerel $LN8
	DD	imagerel $LN8+67
	DD	imagerel $unwind$?reserve@?$vector@V?$basic_string@DU?$char_traits@D@std@@V?$allocator@D@2@@std@@V?$allocator@V?$basic_string@DU?$char_traits@D@std@@V?$allocator@D@2@@std@@@2@@std@@QEAAX_K@Z
pdata	ENDS
;	COMDAT pdata
pdata	SEGMENT
$pdata$?clear@?$vector@V?$basic_string@DU?$char_traits@D@std@@V?$allocator@D@2@@std@@V?$allocator@V?$basic_string@DU?$char_traits@D@std@@V?$allocator@D@2@@std@@@2@@std@@QEAAXXZ DD imagerel $LN5
	DD	imagerel $LN5+103
	DD	imagerel $unwind$?clear@?$vector@V?$basic_string@DU?$char_traits@D@std@@V?$allocator@D@2@@std@@V?$allocator@V?$basic_string@DU?$char_traits@D@std@@V?$allocator@D@2@@std@@@2@@std@@QEAAXXZ
pdata	ENDS
;	COMDAT pdata
pdata	SEGMENT
$pdata$?begin@?$vector@V?$basic_string@DU?$char_traits@D@std@@V?$allocator@D@2@@std@@V?$allocator@V?$basic_string@DU?$char_traits@D@std@@V?$allocator@D@2@@std@@@2@@std@@QEAA?AV?$_Vector_iterator@V?$_Vector_val@U?$_Simple_types@V?$basic_string@DU?$char_traits@D@std@@V?$allocator@D@2@@std@@@std@@@std@@@2@XZ DD imagerel $LN11
	DD	imagerel $LN11+73
	DD	imagerel $unwind$?begin@?$vector@V?$basic_string@DU?$char_traits@D@std@@V?$allocator@D@2@@std@@V?$allocator@V?$basic_string@DU?$char_traits@D@std@@V?$allocator@D@2@@std@@@2@@std@@QEAA?AV?$_Vector_iterator@V?$_Vector_val@U?$_Simple_types@V?$basic_string@DU?$char_traits@D@std@@V?$allocator@D@2@@std@@@std@@@std@@@2@XZ
pdata	ENDS
;	COMDAT pdata
pdata	SEGMENT
$pdata$?end@?$vector@V?$basic_string@DU?$char_traits@D@std@@V?$allocator@D@2@@std@@V?$allocator@V?$basic_string@DU?$char_traits@D@std@@V?$allocator@D@2@@std@@@2@@std@@QEAA?AV?$_Vector_iterator@V?$_Vector_val@U?$_Simple_types@V?$basic_string@DU?$char_traits@D@std@@V?$allocator@D@2@@std@@@std@@@std@@@2@XZ DD imagerel $LN11
	DD	imagerel $LN11+73
	DD	imagerel $unwind$?end@?$vector@V?$basic_string@DU?$char_traits@D@std@@V?$allocator@D@2@@std@@V?$allocator@V?$basic_string@DU?$char_traits@D@std@@V?$allocator@D@2@@std@@@2@@std@@QEAA?AV?$_Vector_iterator@V?$_Vector_val@U?$_Simple_types@V?$basic_string@DU?$char_traits@D@std@@V?$allocator@D@2@@std@@@std@@@std@@@2@XZ
pdata	ENDS
;	COMDAT pdata
pdata	SEGMENT
$pdata$?empty@?$vector@V?$basic_string@DU?$char_traits@D@std@@V?$allocator@D@2@@std@@V?$allocator@V?$basic_string@DU?$char_traits@D@std@@V?$allocator@D@2@@std@@@2@@std@@QEBA_NXZ DD imagerel $LN5
	DD	imagerel $LN5+49
	DD	imagerel $unwind$?empty@?$vector@V?$basic_string@DU?$char_traits@D@std@@V?$allocator@D@2@@std@@V?$allocator@V?$basic_string@DU?$char_traits@D@std@@V?$allocator@D@2@@std@@@2@@std@@QEBA_NXZ
pdata	ENDS
;	COMDAT pdata
pdata	SEGMENT
$pdata$??A?$vector@V?$basic_string@DU?$char_traits@D@std@@V?$allocator@D@2@@std@@V?$allocator@V?$basic_string@DU?$char_traits@D@std@@V?$allocator@D@2@@std@@@2@@std@@QEAAAEAV?$basic_string@DU?$char_traits@D@std@@V?$allocator@D@2@@1@_K@Z DD imagerel $LN4
	DD	imagerel $LN4+30
	DD	imagerel $unwind$??A?$vector@V?$basic_string@DU?$char_traits@D@std@@V?$allocator@D@2@@std@@V?$allocator@V?$basic_string@DU?$char_traits@D@std@@V?$allocator@D@2@@std@@@2@@std@@QEAAAEAV?$basic_string@DU?$char_traits@D@std@@V?$allocator@D@2@@1@_K@Z
pdata	ENDS
;	COMDAT pdata
pdata	SEGMENT
$pdata$?normalizeEOL@StyledWriter@Json@@CA?AV?$basic_string@DU?$char_traits@D@std@@V?$allocator@D@2@@std@@AEBV34@@Z DD imagerel $LN16
	DD	imagerel $LN16+188
	DD	imagerel $unwind$?normalizeEOL@StyledWriter@Json@@CA?AV?$basic_string@DU?$char_traits@D@std@@V?$allocator@D@2@@std@@AEBV34@@Z
pdata	ENDS
;	COMDAT pdata
pdata	SEGMENT
$pdata$?dtor$0@?0??normalizeEOL@StyledWriter@Json@@CA?AV?$basic_string@DU?$char_traits@D@std@@V?$allocator@D@2@@std@@AEBV34@@Z@4HA DD imagerel ?dtor$0@?0??normalizeEOL@StyledWriter@Json@@CA?AV?$basic_string@DU?$char_traits@D@std@@V?$allocator@D@2@@std@@AEBV34@@Z@4HA
	DD	imagerel ?dtor$0@?0??normalizeEOL@StyledWriter@Json@@CA?AV?$basic_string@DU?$char_traits@D@std@@V?$allocator@D@2@@std@@AEBV34@@Z@4HA+38
	DD	imagerel $unwind$?dtor$0@?0??normalizeEOL@StyledWriter@Json@@CA?AV?$basic_string@DU?$char_traits@D@std@@V?$allocator@D@2@@std@@AEBV34@@Z@4HA
pdata	ENDS
;	COMDAT pdata
pdata	SEGMENT
$pdata$?writeCommentAfterValueOnSameLine@StyledWriter@Json@@AEAAXAEBVValue@2@@Z DD imagerel $LN49
	DD	imagerel $LN49+358
	DD	imagerel $unwind$?writeCommentAfterValueOnSameLine@StyledWriter@Json@@AEAAXAEBVValue@2@@Z
pdata	ENDS
;	COMDAT pdata
pdata	SEGMENT
$pdata$?writeCommentBeforeValue@StyledWriter@Json@@AEAAXAEBVValue@2@@Z DD imagerel $LN24
	DD	imagerel $LN24+146
	DD	imagerel $unwind$?writeCommentBeforeValue@StyledWriter@Json@@AEAAXAEBVValue@2@@Z
pdata	ENDS
;	COMDAT pdata
pdata	SEGMENT
$pdata$?unindent@StyledWriter@Json@@AEAAXXZ DD imagerel $LN4
	DD	imagerel $LN4+54
	DD	imagerel $unwind$?unindent@StyledWriter@Json@@AEAAXXZ
pdata	ENDS
;	COMDAT pdata
pdata	SEGMENT
$pdata$?indent@StyledWriter@Json@@AEAAXXZ DD imagerel $LN6
	DD	imagerel $LN6+93
	DD	imagerel $unwind$?indent@StyledWriter@Json@@AEAAXXZ
pdata	ENDS
;	COMDAT pdata
pdata	SEGMENT
$pdata$?writeWithIndent@StyledWriter@Json@@AEAAXAEBV?$basic_string@DU?$char_traits@D@std@@V?$allocator@D@2@@std@@@Z DD imagerel $LN9
	DD	imagerel $LN9+120
	DD	imagerel $unwind$?writeWithIndent@StyledWriter@Json@@AEAAXAEBV?$basic_string@DU?$char_traits@D@std@@V?$allocator@D@2@@std@@@Z
pdata	ENDS
;	COMDAT pdata
pdata	SEGMENT
$pdata$?writeIndent@StyledWriter@Json@@AEAAXXZ DD imagerel $LN7
	DD	imagerel $LN7+96
	DD	imagerel $unwind$?writeIndent@StyledWriter@Json@@AEAAXXZ
pdata	ENDS
;	COMDAT pdata
pdata	SEGMENT
$pdata$?isMultineArray@StyledWriter@Json@@AEAA_NAEBVValue@2@@Z DD imagerel $LN167
	DD	imagerel $LN167+492
	DD	imagerel $unwind$?isMultineArray@StyledWriter@Json@@AEAA_NAEBVValue@2@@Z
pdata	ENDS
;	COMDAT pdata
pdata	SEGMENT
$pdata$?writeArrayValue@StyledWriter@Json@@AEAAXAEBVValue@2@@Z DD imagerel $LN96
	DD	imagerel $LN96+876
	DD	imagerel $unwind$?writeArrayValue@StyledWriter@Json@@AEAAXAEBVValue@2@@Z
pdata	ENDS
;	COMDAT pdata
pdata	SEGMENT
$pdata$?writeValue@StyledWriter@Json@@AEAAXAEBVValue@2@@Z DD imagerel $LN106
	DD	imagerel $LN106+1180
	DD	imagerel $unwind$?writeValue@StyledWriter@Json@@AEAAXAEBVValue@2@@Z
pdata	ENDS
;	COMDAT pdata
pdata	SEGMENT
$pdata$?write@StyledWriter@Json@@UEAA?AV?$basic_string@DU?$char_traits@D@std@@V?$allocator@D@2@@std@@AEBVValue@2@@Z DD imagerel $LN7
	DD	imagerel $LN7+150
	DD	imagerel $unwind$?write@StyledWriter@Json@@UEAA?AV?$basic_string@DU?$char_traits@D@std@@V?$allocator@D@2@@std@@AEBVValue@2@@Z
pdata	ENDS
;	COMDAT pdata
pdata	SEGMENT
$pdata$??0StyledWriter@Json@@QEAA@XZ DD imagerel $LN7
	DD	imagerel $LN7+69
	DD	imagerel $unwind$??0StyledWriter@Json@@QEAA@XZ
pdata	ENDS
;	COMDAT pdata
pdata	SEGMENT
$pdata$?writeValue@FastWriter@Json@@AEAAXAEBVValue@2@@Z DD imagerel $LN127
	DD	imagerel $LN127+984
	DD	imagerel $unwind$?writeValue@FastWriter@Json@@AEAAXAEBVValue@2@@Z
pdata	ENDS
;	COMDAT pdata
pdata	SEGMENT
$pdata$?write@FastWriter@Json@@UEAA?AV?$basic_string@DU?$char_traits@D@std@@V?$allocator@D@2@@std@@AEBVValue@2@@Z DD imagerel $LN7
	DD	imagerel $LN7+108
	DD	imagerel $unwind$?write@FastWriter@Json@@UEAA?AV?$basic_string@DU?$char_traits@D@std@@V?$allocator@D@2@@std@@AEBVValue@2@@Z
pdata	ENDS
;	COMDAT pdata
pdata	SEGMENT
$pdata$??0FastWriter@Json@@QEAA@XZ DD imagerel $LN7
	DD	imagerel $LN7+41
	DD	imagerel $unwind$??0FastWriter@Json@@QEAA@XZ
pdata	ENDS
;	COMDAT pdata
pdata	SEGMENT
$pdata$??_GWriter@Json@@UEAAPEAXI@Z DD imagerel $LN9
	DD	imagerel $LN9+43
	DD	imagerel $unwind$??_GWriter@Json@@UEAAPEAXI@Z
pdata	ENDS
;	COMDAT pdata
pdata	SEGMENT
$pdata$??_D?$basic_ostringstream@DU?$char_traits@D@std@@V?$allocator@D@2@@std@@QEAAXXZ DD imagerel $LN8
	DD	imagerel $LN8+95
	DD	imagerel $unwind$??_D?$basic_ostringstream@DU?$char_traits@D@std@@V?$allocator@D@2@@std@@QEAAXXZ
pdata	ENDS
;	COMDAT pdata
pdata	SEGMENT
$pdata$?valueToQuotedString@Json@@YA?AV?$basic_string@DU?$char_traits@D@std@@V?$allocator@D@2@@std@@PEBD@Z DD imagerel $LN111
	DD	imagerel $LN111+1177
	DD	imagerel $unwind$?valueToQuotedString@Json@@YA?AV?$basic_string@DU?$char_traits@D@std@@V?$allocator@D@2@@std@@PEBD@Z
pdata	ENDS
;	COMDAT pdata
pdata	SEGMENT
$pdata$?dtor$6@?0??valueToQuotedString@Json@@YA?AV?$basic_string@DU?$char_traits@D@std@@V?$allocator@D@2@@std@@PEBD@Z@4HA DD imagerel ?dtor$6@?0??valueToQuotedString@Json@@YA?AV?$basic_string@DU?$char_traits@D@std@@V?$allocator@D@2@@std@@PEBD@Z@4HA
	DD	imagerel ?dtor$6@?0??valueToQuotedString@Json@@YA?AV?$basic_string@DU?$char_traits@D@std@@V?$allocator@D@2@@std@@PEBD@Z@4HA+46
	DD	imagerel $unwind$?dtor$6@?0??valueToQuotedString@Json@@YA?AV?$basic_string@DU?$char_traits@D@std@@V?$allocator@D@2@@std@@PEBD@Z@4HA
pdata	ENDS
;	COMDAT pdata
pdata	SEGMENT
$pdata$?dtor$11@?0??valueToQuotedString@Json@@YA?AV?$basic_string@DU?$char_traits@D@std@@V?$allocator@D@2@@std@@PEBD@Z@4HA DD imagerel ?dtor$11@?0??valueToQuotedString@Json@@YA?AV?$basic_string@DU?$char_traits@D@std@@V?$allocator@D@2@@std@@PEBD@Z@4HA
	DD	imagerel ?dtor$11@?0??valueToQuotedString@Json@@YA?AV?$basic_string@DU?$char_traits@D@std@@V?$allocator@D@2@@std@@PEBD@Z@4HA+41
	DD	imagerel $unwind$?dtor$11@?0??valueToQuotedString@Json@@YA?AV?$basic_string@DU?$char_traits@D@std@@V?$allocator@D@2@@std@@PEBD@Z@4HA
pdata	ENDS
;	COMDAT pdata
pdata	SEGMENT
$pdata$?valueToString@Json@@YA?AV?$basic_string@DU?$char_traits@D@std@@V?$allocator@D@2@@std@@_N@Z DD imagerel $LN7
	DD	imagerel $LN7+49
	DD	imagerel $unwind$?valueToString@Json@@YA?AV?$basic_string@DU?$char_traits@D@std@@V?$allocator@D@2@@std@@_N@Z
pdata	ENDS
;	COMDAT pdata
pdata	SEGMENT
$pdata$?valueToString@Json@@YA?AV?$basic_string@DU?$char_traits@D@std@@V?$allocator@D@2@@std@@N@Z DD imagerel $LN28
	DD	imagerel $LN28+211
	DD	imagerel $unwind$?valueToString@Json@@YA?AV?$basic_string@DU?$char_traits@D@std@@V?$allocator@D@2@@std@@N@Z
pdata	ENDS
;	COMDAT pdata
pdata	SEGMENT
$pdata$?valueToString@Json@@YA?AV?$basic_string@DU?$char_traits@D@std@@V?$allocator@D@2@@std@@I@Z DD imagerel $LN15
	DD	imagerel $LN15+123
	DD	imagerel $unwind$?valueToString@Json@@YA?AV?$basic_string@DU?$char_traits@D@std@@V?$allocator@D@2@@std@@I@Z
pdata	ENDS
;	COMDAT pdata
pdata	SEGMENT
$pdata$?valueToString@Json@@YA?AV?$basic_string@DU?$char_traits@D@std@@V?$allocator@D@2@@std@@H@Z DD imagerel $LN17
	DD	imagerel $LN17+150
	DD	imagerel $unwind$?valueToString@Json@@YA?AV?$basic_string@DU?$char_traits@D@std@@V?$allocator@D@2@@std@@H@Z
pdata	ENDS
;	COMDAT pdata
pdata	SEGMENT
$pdata$??_GStyledWriter@Json@@UEAAPEAXI@Z DD imagerel $LN12
	DD	imagerel $LN12+94
	DD	imagerel $unwind$??_GStyledWriter@Json@@UEAAPEAXI@Z
pdata	ENDS
;	COMDAT pdata
pdata	SEGMENT
$pdata$??1StyledWriter@Json@@UEAA@XZ DD imagerel $LN7
	DD	imagerel $LN7+62
	DD	imagerel $unwind$??1StyledWriter@Json@@UEAA@XZ
pdata	ENDS
;	COMDAT pdata
pdata	SEGMENT
$pdata$??_GFastWriter@Json@@UEAAPEAXI@Z DD imagerel $LN12
	DD	imagerel $LN12+76
	DD	imagerel $unwind$??_GFastWriter@Json@@UEAAPEAXI@Z
pdata	ENDS
;	COMDAT pdata
pdata	SEGMENT
$pdata$??1FastWriter@Json@@UEAA@XZ DD imagerel $LN7
	DD	imagerel $LN7+44
	DD	imagerel $unwind$??1FastWriter@Json@@UEAA@XZ
pdata	ENDS
;	COMDAT pdata
pdata	SEGMENT
$pdata$sprintf_s DD imagerel $LN6
	DD	imagerel $LN6+88
	DD	imagerel $unwind$sprintf_s
pdata	ENDS
;	COMDAT pdata
pdata	SEGMENT
$pdata$_vsprintf_s_l DD imagerel $LN4
	DD	imagerel $LN4+92
	DD	imagerel $unwind$_vsprintf_s_l
;	COMDAT xdata
xdata	SEGMENT
$unwind$_vsprintf_s_l DD 060f01H
	DD	09640fH
	DD	08340fH
	DD	0700b520fH
xdata	ENDS
;	COMDAT xdata
xdata	SEGMENT
$unwind$sprintf_s DD 051201H
	DD	0700e6212H
	DD	0500c600dH
	DD	0300bH
xdata	ENDS
;	COMDAT xdata
xdata	SEGMENT
$unwind$??1FastWriter@Json@@UEAA@XZ DD 020601H
	DD	030023206H
xdata	ENDS
;	COMDAT xdata
xdata	SEGMENT
$unwind$??_GFastWriter@Json@@UEAAPEAXI@Z DD 040a01H
	DD	06340aH
	DD	07006320aH
xdata	ENDS
;	COMDAT xdata
xdata	SEGMENT
$unwind$??1StyledWriter@Json@@UEAA@XZ DD 020601H
	DD	030023206H
xdata	ENDS
;	COMDAT xdata
xdata	SEGMENT
$unwind$??_GStyledWriter@Json@@UEAAPEAXI@Z DD 040a01H
	DD	06340aH
	DD	07006320aH
xdata	ENDS
;	COMDAT xdata
xdata	SEGMENT
$unwind$?valueToString@Json@@YA?AV?$basic_string@DU?$char_traits@D@std@@V?$allocator@D@2@@std@@H@Z DD 021519H
	DD	030029206H
	DD	imagerel __GSHandlerCheck
	DD	048H
xdata	ENDS
;	COMDAT xdata
xdata	SEGMENT
$unwind$?valueToString@Json@@YA?AV?$basic_string@DU?$char_traits@D@std@@V?$allocator@D@2@@std@@I@Z DD 021519H
	DD	030029206H
	DD	imagerel __GSHandlerCheck
	DD	048H
xdata	ENDS
;	COMDAT xdata
xdata	SEGMENT
$unwind$?valueToString@Json@@YA?AV?$basic_string@DU?$char_traits@D@std@@V?$allocator@D@2@@std@@N@Z DD 021519H
	DD	030029206H
	DD	imagerel __GSHandlerCheck
	DD	048H
xdata	ENDS
;	COMDAT xdata
xdata	SEGMENT
$unwind$?valueToString@Json@@YA?AV?$basic_string@DU?$char_traits@D@std@@V?$allocator@D@2@@std@@_N@Z DD 020601H
	DD	030023206H
xdata	ENDS
;	COMDAT xdata
xdata	SEGMENT
$unwind$?dtor$11@?0??valueToQuotedString@Json@@YA?AV?$basic_string@DU?$char_traits@D@std@@V?$allocator@D@2@@std@@PEBD@Z@4HA DD 020601H
	DD	050023206H
xdata	ENDS
;	COMDAT xdata
xdata	SEGMENT
$unwind$?dtor$6@?0??valueToQuotedString@Json@@YA?AV?$basic_string@DU?$char_traits@D@std@@V?$allocator@D@2@@std@@PEBD@Z@4HA DD 020601H
	DD	050023206H
xdata	ENDS
;	COMDAT xdata
xdata	SEGMENT
$ip2state$?valueToQuotedString@Json@@YA?AV?$basic_string@DU?$char_traits@D@std@@V?$allocator@D@2@@std@@PEBD@Z DD imagerel ?valueToQuotedString@Json@@YA?AV?$basic_string@DU?$char_traits@D@std@@V?$allocator@D@2@@std@@PEBD@Z+141
	DD	0ffffffffH
	DD	imagerel ?valueToQuotedString@Json@@YA?AV?$basic_string@DU?$char_traits@D@std@@V?$allocator@D@2@@std@@PEBD@Z+157
	DD	00H
	DD	imagerel ?valueToQuotedString@Json@@YA?AV?$basic_string@DU?$char_traits@D@std@@V?$allocator@D@2@@std@@PEBD@Z+176
	DD	01H
	DD	imagerel ?valueToQuotedString@Json@@YA?AV?$basic_string@DU?$char_traits@D@std@@V?$allocator@D@2@@std@@PEBD@Z+241
	DD	02H
	DD	imagerel ?valueToQuotedString@Json@@YA?AV?$basic_string@DU?$char_traits@D@std@@V?$allocator@D@2@@std@@PEBD@Z+341
	DD	00H
	DD	imagerel ?valueToQuotedString@Json@@YA?AV?$basic_string@DU?$char_traits@D@std@@V?$allocator@D@2@@std@@PEBD@Z+354
	DD	02H
	DD	imagerel ?valueToQuotedString@Json@@YA?AV?$basic_string@DU?$char_traits@D@std@@V?$allocator@D@2@@std@@PEBD@Z+525
	DD	03H
	DD	imagerel ?valueToQuotedString@Json@@YA?AV?$basic_string@DU?$char_traits@D@std@@V?$allocator@D@2@@std@@PEBD@Z+558
	DD	04H
	DD	imagerel ?valueToQuotedString@Json@@YA?AV?$basic_string@DU?$char_traits@D@std@@V?$allocator@D@2@@std@@PEBD@Z+632
	DD	05H
	DD	imagerel ?valueToQuotedString@Json@@YA?AV?$basic_string@DU?$char_traits@D@std@@V?$allocator@D@2@@std@@PEBD@Z+740
	DD	06H
	DD	imagerel ?valueToQuotedString@Json@@YA?AV?$basic_string@DU?$char_traits@D@std@@V?$allocator@D@2@@std@@PEBD@Z+855
	DD	05H
	DD	imagerel ?valueToQuotedString@Json@@YA?AV?$basic_string@DU?$char_traits@D@std@@V?$allocator@D@2@@std@@PEBD@Z+866
	DD	07H
	DD	imagerel ?valueToQuotedString@Json@@YA?AV?$basic_string@DU?$char_traits@D@std@@V?$allocator@D@2@@std@@PEBD@Z+952
	DD	02H
	DD	imagerel ?valueToQuotedString@Json@@YA?AV?$basic_string@DU?$char_traits@D@std@@V?$allocator@D@2@@std@@PEBD@Z+1005
	DD	0ffffffffH
	DD	imagerel ?valueToQuotedString@Json@@YA?AV?$basic_string@DU?$char_traits@D@std@@V?$allocator@D@2@@std@@PEBD@Z+1060
	DD	00H
xdata	ENDS
;	COMDAT xdata
xdata	SEGMENT
$stateUnwindMap$?valueToQuotedString@Json@@YA?AV?$basic_string@DU?$char_traits@D@std@@V?$allocator@D@2@@std@@PEBD@Z DD 0ffffffffH
	DD	imagerel ?dtor$0@?0??valueToQuotedString@Json@@YA?AV?$basic_string@DU?$char_traits@D@std@@V?$allocator@D@2@@std@@PEBD@Z@4HA
	DD	00H
	DD	imagerel ?dtor$1@?0??valueToQuotedString@Json@@YA?AV?$basic_string@DU?$char_traits@D@std@@V?$allocator@D@2@@std@@PEBD@Z@4HA
	DD	0ffffffffH
	DD	imagerel ?dtor$3@?0??valueToQuotedString@Json@@YA?AV?$basic_string@DU?$char_traits@D@std@@V?$allocator@D@2@@std@@PEBD@Z@4HA
	DD	02H
	DD	imagerel ?dtor$6@?0??valueToQuotedString@Json@@YA?AV?$basic_string@DU?$char_traits@D@std@@V?$allocator@D@2@@std@@PEBD@Z@4HA
	DD	03H
	DD	imagerel ?dtor$7@?0??valueToQuotedString@Json@@YA?AV?$basic_string@DU?$char_traits@D@std@@V?$allocator@D@2@@std@@PEBD@Z@4HA
	DD	02H
	DD	imagerel ?dtor$4@?0??valueToQuotedString@Json@@YA?AV?$basic_string@DU?$char_traits@D@std@@V?$allocator@D@2@@std@@PEBD@Z@4HA
	DD	05H
	DD	imagerel ?dtor$11@?0??valueToQuotedString@Json@@YA?AV?$basic_string@DU?$char_traits@D@std@@V?$allocator@D@2@@std@@PEBD@Z@4HA
	DD	05H
	DD	imagerel ?dtor$5@?0??valueToQuotedString@Json@@YA?AV?$basic_string@DU?$char_traits@D@std@@V?$allocator@D@2@@std@@PEBD@Z@4HA
xdata	ENDS
;	COMDAT CONST
CONST	SEGMENT
$cppxdata$?valueToQuotedString@Json@@YA?AV?$basic_string@DU?$char_traits@D@std@@V?$allocator@D@2@@std@@PEBD@Z DD 019930522H
	DD	08H
	DD	imagerel $stateUnwindMap$?valueToQuotedString@Json@@YA?AV?$basic_string@DU?$char_traits@D@std@@V?$allocator@D@2@@std@@PEBD@Z
	DD	00H
	DD	00H
	DD	0fH
	DD	imagerel $ip2state$?valueToQuotedString@Json@@YA?AV?$basic_string@DU?$char_traits@D@std@@V?$allocator@D@2@@std@@PEBD@Z
	DD	0130H
	DD	00H
	DD	01H
CONST	ENDS
;	COMDAT xdata
xdata	SEGMENT
$unwind$?valueToQuotedString@Json@@YA?AV?$basic_string@DU?$char_traits@D@std@@V?$allocator@D@2@@std@@PEBD@Z DD 0b3c19H
	DD	03e342bH
	DD	034011bH
	DD	0e00af00cH
	DD	0c006d008H
	DD	060037004H
	DD	05002H
	DD	imagerel __GSHandlerCheck_EH
	DD	imagerel $cppxdata$?valueToQuotedString@Json@@YA?AV?$basic_string@DU?$char_traits@D@std@@V?$allocator@D@2@@std@@PEBD@Z
	DD	019aH
xdata	ENDS
;	COMDAT xdata
xdata	SEGMENT
$unwind$??_D?$basic_ostringstream@DU?$char_traits@D@std@@V?$allocator@D@2@@std@@QEAAXXZ DD 020601H
	DD	030023206H
xdata	ENDS
;	COMDAT xdata
xdata	SEGMENT
$unwind$??_GWriter@Json@@UEAAPEAXI@Z DD 020601H
	DD	030023206H
xdata	ENDS
;	COMDAT xdata
xdata	SEGMENT
$unwind$??0FastWriter@Json@@QEAA@XZ DD 020601H
	DD	030023206H
xdata	ENDS
;	COMDAT xdata
xdata	SEGMENT
$unwind$?write@FastWriter@Json@@UEAA?AV?$basic_string@DU?$char_traits@D@std@@V?$allocator@D@2@@std@@AEBVValue@2@@Z DD 081401H
	DD	086414H
	DD	075414H
	DD	063414H
	DD	070103214H
xdata	ENDS
;	COMDAT xdata
xdata	SEGMENT
$ip2state$?writeValue@FastWriter@Json@@AEAAXAEBVValue@2@@Z DD imagerel ?writeValue@FastWriter@Json@@AEAAXAEBVValue@2@@Z+104
	DD	0ffffffffH
	DD	imagerel ?writeValue@FastWriter@Json@@AEAAXAEBVValue@2@@Z+134
	DD	00H
	DD	imagerel ?writeValue@FastWriter@Json@@AEAAXAEBVValue@2@@Z+147
	DD	0ffffffffH
	DD	imagerel ?writeValue@FastWriter@Json@@AEAAXAEBVValue@2@@Z+181
	DD	01H
	DD	imagerel ?writeValue@FastWriter@Json@@AEAAXAEBVValue@2@@Z+194
	DD	0ffffffffH
	DD	imagerel ?writeValue@FastWriter@Json@@AEAAXAEBVValue@2@@Z+229
	DD	02H
	DD	imagerel ?writeValue@FastWriter@Json@@AEAAXAEBVValue@2@@Z+242
	DD	0ffffffffH
	DD	imagerel ?writeValue@FastWriter@Json@@AEAAXAEBVValue@2@@Z+269
	DD	03H
	DD	imagerel ?writeValue@FastWriter@Json@@AEAAXAEBVValue@2@@Z+282
	DD	0ffffffffH
	DD	imagerel ?writeValue@FastWriter@Json@@AEAAXAEBVValue@2@@Z+334
	DD	04H
	DD	imagerel ?writeValue@FastWriter@Json@@AEAAXAEBVValue@2@@Z+348
	DD	0ffffffffH
	DD	imagerel ?writeValue@FastWriter@Json@@AEAAXAEBVValue@2@@Z+546
	DD	06H
	DD	imagerel ?writeValue@FastWriter@Json@@AEAAXAEBVValue@2@@Z+750
	DD	07H
	DD	imagerel ?writeValue@FastWriter@Json@@AEAAXAEBVValue@2@@Z+763
	DD	06H
	DD	imagerel ?writeValue@FastWriter@Json@@AEAAXAEBVValue@2@@Z+903
	DD	0ffffffffH
	DD	imagerel ?writeValue@FastWriter@Json@@AEAAXAEBVValue@2@@Z+952
	DD	00H
xdata	ENDS
;	COMDAT xdata
xdata	SEGMENT
$stateUnwindMap$?writeValue@FastWriter@Json@@AEAAXAEBVValue@2@@Z DD 0ffffffffH
	DD	imagerel ?dtor$0@?0??writeValue@FastWriter@Json@@AEAAXAEBVValue@2@@Z@4HA
	DD	0ffffffffH
	DD	imagerel ?dtor$1@?0??writeValue@FastWriter@Json@@AEAAXAEBVValue@2@@Z@4HA
	DD	0ffffffffH
	DD	imagerel ?dtor$2@?0??writeValue@FastWriter@Json@@AEAAXAEBVValue@2@@Z@4HA
	DD	0ffffffffH
	DD	imagerel ?dtor$3@?0??writeValue@FastWriter@Json@@AEAAXAEBVValue@2@@Z@4HA
	DD	0ffffffffH
	DD	imagerel ?dtor$4@?0??writeValue@FastWriter@Json@@AEAAXAEBVValue@2@@Z@4HA
	DD	0ffffffffH
	DD	imagerel __imp___std_terminate
	DD	0ffffffffH
	DD	imagerel ?dtor$5@?0??writeValue@FastWriter@Json@@AEAAXAEBVValue@2@@Z@4HA
	DD	06H
	DD	imagerel ?dtor$6@?0??writeValue@FastWriter@Json@@AEAAXAEBVValue@2@@Z@4HA
xdata	ENDS
;	COMDAT CONST
CONST	SEGMENT
$cppxdata$?writeValue@FastWriter@Json@@AEAAXAEBVValue@2@@Z DD 019930522H
	DD	08H
	DD	imagerel $stateUnwindMap$?writeValue@FastWriter@Json@@AEAAXAEBVValue@2@@Z
	DD	00H
	DD	00H
	DD	010H
	DD	imagerel $ip2state$?writeValue@FastWriter@Json@@AEAAXAEBVValue@2@@Z
	DD	040H
	DD	00H
	DD	01H
CONST	ENDS
;	COMDAT xdata
xdata	SEGMENT
$unwind$?writeValue@FastWriter@Json@@AEAAXAEBVValue@2@@Z DD 0b3619H
	DD	01c3428H
	DD	0120118H
	DD	0e00af00cH
	DD	0c006d008H
	DD	060037004H
	DD	05002H
	DD	imagerel __GSHandlerCheck_EH
	DD	imagerel $cppxdata$?writeValue@FastWriter@Json@@AEAAXAEBVValue@2@@Z
	DD	08aH
xdata	ENDS
;	COMDAT xdata
xdata	SEGMENT
$unwind$??0StyledWriter@Json@@QEAA@XZ DD 020601H
	DD	030023206H
xdata	ENDS
;	COMDAT xdata
xdata	SEGMENT
$unwind$?write@StyledWriter@Json@@UEAA?AV?$basic_string@DU?$char_traits@D@std@@V?$allocator@D@2@@std@@AEBVValue@2@@Z DD 081401H
	DD	086414H
	DD	075414H
	DD	063414H
	DD	070103214H
xdata	ENDS
;	COMDAT xdata
xdata	SEGMENT
$ip2state$?writeValue@StyledWriter@Json@@AEAAXAEBVValue@2@@Z DD imagerel ?writeValue@StyledWriter@Json@@AEAAXAEBVValue@2@@Z+98
	DD	0ffffffffH
	DD	imagerel ?writeValue@StyledWriter@Json@@AEAAXAEBVValue@2@@Z+118
	DD	00H
	DD	imagerel ?writeValue@StyledWriter@Json@@AEAAXAEBVValue@2@@Z+135
	DD	0ffffffffH
	DD	imagerel ?writeValue@StyledWriter@Json@@AEAAXAEBVValue@2@@Z+169
	DD	01H
	DD	imagerel ?writeValue@StyledWriter@Json@@AEAAXAEBVValue@2@@Z+199
	DD	0ffffffffH
	DD	imagerel ?writeValue@StyledWriter@Json@@AEAAXAEBVValue@2@@Z+233
	DD	02H
	DD	imagerel ?writeValue@StyledWriter@Json@@AEAAXAEBVValue@2@@Z+263
	DD	0ffffffffH
	DD	imagerel ?writeValue@StyledWriter@Json@@AEAAXAEBVValue@2@@Z+298
	DD	03H
	DD	imagerel ?writeValue@StyledWriter@Json@@AEAAXAEBVValue@2@@Z+328
	DD	0ffffffffH
	DD	imagerel ?writeValue@StyledWriter@Json@@AEAAXAEBVValue@2@@Z+355
	DD	04H
	DD	imagerel ?writeValue@StyledWriter@Json@@AEAAXAEBVValue@2@@Z+385
	DD	0ffffffffH
	DD	imagerel ?writeValue@StyledWriter@Json@@AEAAXAEBVValue@2@@Z+437
	DD	05H
	DD	imagerel ?writeValue@StyledWriter@Json@@AEAAXAEBVValue@2@@Z+468
	DD	0ffffffffH
	DD	imagerel ?writeValue@StyledWriter@Json@@AEAAXAEBVValue@2@@Z+511
	DD	06H
	DD	imagerel ?writeValue@StyledWriter@Json@@AEAAXAEBVValue@2@@Z+557
	DD	07H
	DD	imagerel ?writeValue@StyledWriter@Json@@AEAAXAEBVValue@2@@Z+588
	DD	06H
	DD	imagerel ?writeValue@StyledWriter@Json@@AEAAXAEBVValue@2@@Z+606
	DD	08H
	DD	imagerel ?writeValue@StyledWriter@Json@@AEAAXAEBVValue@2@@Z+619
	DD	06H
	DD	imagerel ?writeValue@StyledWriter@Json@@AEAAXAEBVValue@2@@Z+734
	DD	09H
	DD	imagerel ?writeValue@StyledWriter@Json@@AEAAXAEBVValue@2@@Z+746
	DD	06H
	DD	imagerel ?writeValue@StyledWriter@Json@@AEAAXAEBVValue@2@@Z+933
	DD	09H
	DD	imagerel ?writeValue@StyledWriter@Json@@AEAAXAEBVValue@2@@Z+945
	DD	06H
	DD	imagerel ?writeValue@StyledWriter@Json@@AEAAXAEBVValue@2@@Z+1079
	DD	0aH
	DD	imagerel ?writeValue@StyledWriter@Json@@AEAAXAEBVValue@2@@Z+1092
	DD	06H
	DD	imagerel ?writeValue@StyledWriter@Json@@AEAAXAEBVValue@2@@Z+1118
	DD	0ffffffffH
xdata	ENDS
;	COMDAT xdata
xdata	SEGMENT
$stateUnwindMap$?writeValue@StyledWriter@Json@@AEAAXAEBVValue@2@@Z DD 0ffffffffH
	DD	imagerel ?dtor$0@?0??writeValue@StyledWriter@Json@@AEAAXAEBVValue@2@@Z@4HA
	DD	0ffffffffH
	DD	imagerel ?dtor$1@?0??writeValue@StyledWriter@Json@@AEAAXAEBVValue@2@@Z@4HA
	DD	0ffffffffH
	DD	imagerel ?dtor$2@?0??writeValue@StyledWriter@Json@@AEAAXAEBVValue@2@@Z@4HA
	DD	0ffffffffH
	DD	imagerel ?dtor$3@?0??writeValue@StyledWriter@Json@@AEAAXAEBVValue@2@@Z@4HA
	DD	0ffffffffH
	DD	imagerel ?dtor$4@?0??writeValue@StyledWriter@Json@@AEAAXAEBVValue@2@@Z@4HA
	DD	0ffffffffH
	DD	imagerel ?dtor$5@?0??writeValue@StyledWriter@Json@@AEAAXAEBVValue@2@@Z@4HA
	DD	0ffffffffH
	DD	imagerel ?dtor$6@?0??writeValue@StyledWriter@Json@@AEAAXAEBVValue@2@@Z@4HA
	DD	06H
	DD	imagerel ?dtor$7@?0??writeValue@StyledWriter@Json@@AEAAXAEBVValue@2@@Z@4HA
	DD	06H
	DD	imagerel ?dtor$8@?0??writeValue@StyledWriter@Json@@AEAAXAEBVValue@2@@Z@4HA
	DD	06H
	DD	imagerel ?dtor$9@?0??writeValue@StyledWriter@Json@@AEAAXAEBVValue@2@@Z@4HA
	DD	06H
	DD	imagerel ?dtor$10@?0??writeValue@StyledWriter@Json@@AEAAXAEBVValue@2@@Z@4HA
xdata	ENDS
;	COMDAT CONST
CONST	SEGMENT
$cppxdata$?writeValue@StyledWriter@Json@@AEAAXAEBVValue@2@@Z DD 019930522H
	DD	0bH
	DD	imagerel $stateUnwindMap$?writeValue@StyledWriter@Json@@AEAAXAEBVValue@2@@Z
	DD	00H
	DD	00H
	DD	019H
	DD	imagerel $ip2state$?writeValue@StyledWriter@Json@@AEAAXAEBVValue@2@@Z
	DD	030H
	DD	00H
	DD	01H
CONST	ENDS
;	COMDAT xdata
xdata	SEGMENT
$unwind$?writeValue@StyledWriter@Json@@AEAAXAEBVValue@2@@Z DD 083019H
	DD	0183422H
	DD	0f008f212H
	DD	07004e006H
	DD	050026003H
	DD	imagerel __GSHandlerCheck_EH
	DD	imagerel $cppxdata$?writeValue@StyledWriter@Json@@AEAAXAEBVValue@2@@Z
	DD	07aH
xdata	ENDS
;	COMDAT xdata
xdata	SEGMENT
$ip2state$?writeArrayValue@StyledWriter@Json@@AEAAXAEBVValue@2@@Z DD imagerel ?writeArrayValue@StyledWriter@Json@@AEAAXAEBVValue@2@@Z+81
	DD	0ffffffffH
	DD	imagerel ?writeArrayValue@StyledWriter@Json@@AEAAXAEBVValue@2@@Z+102
	DD	00H
	DD	imagerel ?writeArrayValue@StyledWriter@Json@@AEAAXAEBVValue@2@@Z+119
	DD	0ffffffffH
	DD	imagerel ?writeArrayValue@StyledWriter@Json@@AEAAXAEBVValue@2@@Z+171
	DD	01H
	DD	imagerel ?writeArrayValue@StyledWriter@Json@@AEAAXAEBVValue@2@@Z+258
	DD	0ffffffffH
	DD	imagerel ?writeArrayValue@StyledWriter@Json@@AEAAXAEBVValue@2@@Z+638
	DD	03H
	DD	imagerel ?writeArrayValue@StyledWriter@Json@@AEAAXAEBVValue@2@@Z+725
	DD	0ffffffffH
xdata	ENDS
;	COMDAT xdata
xdata	SEGMENT
$stateUnwindMap$?writeArrayValue@StyledWriter@Json@@AEAAXAEBVValue@2@@Z DD 0ffffffffH
	DD	imagerel ?dtor$0@?0??writeArrayValue@StyledWriter@Json@@AEAAXAEBVValue@2@@Z@4HA
	DD	0ffffffffH
	DD	imagerel ?dtor$1@?0??writeArrayValue@StyledWriter@Json@@AEAAXAEBVValue@2@@Z@4HA
	DD	0ffffffffH
	DD	imagerel __imp___std_terminate
	DD	0ffffffffH
	DD	imagerel ?dtor$2@?0??writeArrayValue@StyledWriter@Json@@AEAAXAEBVValue@2@@Z@4HA
xdata	ENDS
;	COMDAT CONST
CONST	SEGMENT
$cppxdata$?writeArrayValue@StyledWriter@Json@@AEAAXAEBVValue@2@@Z DD 019930522H
	DD	04H
	DD	imagerel $stateUnwindMap$?writeArrayValue@StyledWriter@Json@@AEAAXAEBVValue@2@@Z
	DD	00H
	DD	00H
	DD	07H
	DD	imagerel $ip2state$?writeArrayValue@StyledWriter@Json@@AEAAXAEBVValue@2@@Z
	DD	030H
	DD	00H
	DD	01H
CONST	ENDS
;	COMDAT xdata
xdata	SEGMENT
$unwind$?writeArrayValue@StyledWriter@Json@@AEAAXAEBVValue@2@@Z DD 0a3019H
	DD	0183421H
	DD	0f00cd210H
	DD	0d008e00aH
	DD	07004c006H
	DD	050026003H
	DD	imagerel __GSHandlerCheck_EH
	DD	imagerel $cppxdata$?writeArrayValue@StyledWriter@Json@@AEAAXAEBVValue@2@@Z
	DD	062H
xdata	ENDS
;	COMDAT xdata
xdata	SEGMENT
$ip2state$?isMultineArray@StyledWriter@Json@@AEAA_NAEBVValue@2@@Z DD imagerel ?isMultineArray@StyledWriter@Json@@AEAA_NAEBVValue@2@@Z+279
	DD	0ffffffffH
xdata	ENDS
;	COMDAT xdata
xdata	SEGMENT
$stateUnwindMap$?isMultineArray@StyledWriter@Json@@AEAA_NAEBVValue@2@@Z DD 0ffffffffH
	DD	imagerel __imp___std_terminate
	DD	0ffffffffH
	DD	00H
	DD	0ffffffffH
	DD	00H
xdata	ENDS
;	COMDAT CONST
CONST	SEGMENT
$cppxdata$?isMultineArray@StyledWriter@Json@@AEAA_NAEBVValue@2@@Z DD 019930522H
	DD	03H
	DD	imagerel $stateUnwindMap$?isMultineArray@StyledWriter@Json@@AEAA_NAEBVValue@2@@Z
	DD	00H
	DD	00H
	DD	01H
	DD	imagerel $ip2state$?isMultineArray@StyledWriter@Json@@AEAA_NAEBVValue@2@@Z
	DD	020H
	DD	00H
	DD	01H
CONST	ENDS
;	COMDAT xdata
xdata	SEGMENT
$unwind$?isMultineArray@StyledWriter@Json@@AEAA_NAEBVValue@2@@Z DD 0a2111H
	DD	0113421H
	DD	0f00c7210H
	DD	0d008e00aH
	DD	07004c006H
	DD	050026003H
	DD	imagerel __CxxFrameHandler3
	DD	imagerel $cppxdata$?isMultineArray@StyledWriter@Json@@AEAA_NAEBVValue@2@@Z
xdata	ENDS
;	COMDAT xdata
xdata	SEGMENT
$unwind$?writeIndent@StyledWriter@Json@@AEAAXXZ DD 040a01H
	DD	06340aH
	DD	07006320aH
xdata	ENDS
;	COMDAT xdata
xdata	SEGMENT
$unwind$?writeWithIndent@StyledWriter@Json@@AEAAXAEBV?$basic_string@DU?$char_traits@D@std@@V?$allocator@D@2@@std@@@Z DD 060f01H
	DD	07640fH
	DD	06340fH
	DD	0700b320fH
xdata	ENDS
;	COMDAT xdata
xdata	SEGMENT
$ip2state$?indent@StyledWriter@Json@@AEAAXXZ DD imagerel ?indent@StyledWriter@Json@@AEAAXXZ+45
	DD	0ffffffffH
	DD	imagerel ?indent@StyledWriter@Json@@AEAAXXZ+58
	DD	00H
	DD	imagerel ?indent@StyledWriter@Json@@AEAAXXZ+82
	DD	0ffffffffH
xdata	ENDS
;	COMDAT xdata
xdata	SEGMENT
$stateUnwindMap$?indent@StyledWriter@Json@@AEAAXXZ DD 0ffffffffH
	DD	imagerel ?dtor$0@?0??indent@StyledWriter@Json@@AEAAXXZ@4HA
xdata	ENDS
;	COMDAT CONST
CONST	SEGMENT
$cppxdata$?indent@StyledWriter@Json@@AEAAXXZ DD 019930522H
	DD	01H
	DD	imagerel $stateUnwindMap$?indent@StyledWriter@Json@@AEAAXXZ
	DD	00H
	DD	00H
	DD	03H
	DD	imagerel $ip2state$?indent@StyledWriter@Json@@AEAAXXZ
	DD	020H
	DD	00H
	DD	01H
CONST	ENDS
;	COMDAT xdata
xdata	SEGMENT
$unwind$?indent@StyledWriter@Json@@AEAAXXZ DD 021e19H
	DD	030029206H
	DD	imagerel __GSHandlerCheck_EH
	DD	imagerel $cppxdata$?indent@StyledWriter@Json@@AEAAXXZ
	DD	04aH
xdata	ENDS
;	COMDAT xdata
xdata	SEGMENT
$unwind$?unindent@StyledWriter@Json@@AEAAXXZ DD 040a01H
	DD	06340aH
	DD	07006320aH
xdata	ENDS
;	COMDAT xdata
xdata	SEGMENT
$ip2state$?writeCommentBeforeValue@StyledWriter@Json@@AEAAXAEBVValue@2@@Z DD imagerel ?writeCommentBeforeValue@StyledWriter@Json@@AEAAXAEBVValue@2@@Z+55
	DD	0ffffffffH
	DD	imagerel ?writeCommentBeforeValue@StyledWriter@Json@@AEAAXAEBVValue@2@@Z+71
	DD	00H
	DD	imagerel ?writeCommentBeforeValue@StyledWriter@Json@@AEAAXAEBVValue@2@@Z+84
	DD	01H
	DD	imagerel ?writeCommentBeforeValue@StyledWriter@Json@@AEAAXAEBVValue@2@@Z+122
	DD	0ffffffffH
xdata	ENDS
;	COMDAT xdata
xdata	SEGMENT
$stateUnwindMap$?writeCommentBeforeValue@StyledWriter@Json@@AEAAXAEBVValue@2@@Z DD 0ffffffffH
	DD	imagerel ?dtor$0@?0??writeCommentBeforeValue@StyledWriter@Json@@AEAAXAEBVValue@2@@Z@4HA
	DD	00H
	DD	imagerel ?dtor$1@?0??writeCommentBeforeValue@StyledWriter@Json@@AEAAXAEBVValue@2@@Z@4HA
xdata	ENDS
;	COMDAT CONST
CONST	SEGMENT
$cppxdata$?writeCommentBeforeValue@StyledWriter@Json@@AEAAXAEBVValue@2@@Z DD 019930522H
	DD	02H
	DD	imagerel $stateUnwindMap$?writeCommentBeforeValue@StyledWriter@Json@@AEAAXAEBVValue@2@@Z
	DD	00H
	DD	00H
	DD	04H
	DD	imagerel $ip2state$?writeCommentBeforeValue@StyledWriter@Json@@AEAAXAEBVValue@2@@Z
	DD	020H
	DD	00H
	DD	01H
CONST	ENDS
;	COMDAT xdata
xdata	SEGMENT
$unwind$?writeCommentBeforeValue@StyledWriter@Json@@AEAAXAEBVValue@2@@Z DD 021e19H
	DD	03002d206H
	DD	imagerel __GSHandlerCheck_EH
	DD	imagerel $cppxdata$?writeCommentBeforeValue@StyledWriter@Json@@AEAAXAEBVValue@2@@Z
	DD	06aH
xdata	ENDS
;	COMDAT xdata
xdata	SEGMENT
$ip2state$?writeCommentAfterValueOnSameLine@StyledWriter@Json@@AEAAXAEBVValue@2@@Z DD imagerel ?writeCommentAfterValueOnSameLine@StyledWriter@Json@@AEAAXAEBVValue@2@@Z+77
	DD	0ffffffffH
	DD	imagerel ?writeCommentAfterValueOnSameLine@StyledWriter@Json@@AEAAXAEBVValue@2@@Z+93
	DD	00H
	DD	imagerel ?writeCommentAfterValueOnSameLine@StyledWriter@Json@@AEAAXAEBVValue@2@@Z+111
	DD	01H
	DD	imagerel ?writeCommentAfterValueOnSameLine@StyledWriter@Json@@AEAAXAEBVValue@2@@Z+150
	DD	02H
	DD	imagerel ?writeCommentAfterValueOnSameLine@StyledWriter@Json@@AEAAXAEBVValue@2@@Z+220
	DD	0ffffffffH
	DD	imagerel ?writeCommentAfterValueOnSameLine@StyledWriter@Json@@AEAAXAEBVValue@2@@Z+261
	DD	03H
	DD	imagerel ?writeCommentAfterValueOnSameLine@StyledWriter@Json@@AEAAXAEBVValue@2@@Z+277
	DD	04H
	DD	imagerel ?writeCommentAfterValueOnSameLine@StyledWriter@Json@@AEAAXAEBVValue@2@@Z+289
	DD	03H
	DD	imagerel ?writeCommentAfterValueOnSameLine@StyledWriter@Json@@AEAAXAEBVValue@2@@Z+320
	DD	0ffffffffH
xdata	ENDS
;	COMDAT xdata
xdata	SEGMENT
$stateUnwindMap$?writeCommentAfterValueOnSameLine@StyledWriter@Json@@AEAAXAEBVValue@2@@Z DD 0ffffffffH
	DD	imagerel ?dtor$0@?0??writeCommentAfterValueOnSameLine@StyledWriter@Json@@AEAAXAEBVValue@2@@Z@4HA
	DD	00H
	DD	imagerel ?dtor$1@?0??writeCommentAfterValueOnSameLine@StyledWriter@Json@@AEAAXAEBVValue@2@@Z@4HA
	DD	01H
	DD	imagerel ?dtor$2@?0??writeCommentAfterValueOnSameLine@StyledWriter@Json@@AEAAXAEBVValue@2@@Z@4HA
	DD	0ffffffffH
	DD	imagerel ?dtor$3@?0??writeCommentAfterValueOnSameLine@StyledWriter@Json@@AEAAXAEBVValue@2@@Z@4HA
	DD	03H
	DD	imagerel ?dtor$4@?0??writeCommentAfterValueOnSameLine@StyledWriter@Json@@AEAAXAEBVValue@2@@Z@4HA
xdata	ENDS
;	COMDAT CONST
CONST	SEGMENT
$cppxdata$?writeCommentAfterValueOnSameLine@StyledWriter@Json@@AEAAXAEBVValue@2@@Z DD 019930522H
	DD	05H
	DD	imagerel $stateUnwindMap$?writeCommentAfterValueOnSameLine@StyledWriter@Json@@AEAAXAEBVValue@2@@Z
	DD	00H
	DD	00H
	DD	09H
	DD	imagerel $ip2state$?writeCommentAfterValueOnSameLine@StyledWriter@Json@@AEAAXAEBVValue@2@@Z
	DD	020H
	DD	00H
	DD	01H
CONST	ENDS
;	COMDAT xdata
xdata	SEGMENT
$unwind$?writeCommentAfterValueOnSameLine@StyledWriter@Json@@AEAAXAEBVValue@2@@Z DD 052c19H
	DD	016341aH
	DD	0120109H
	DD	07002H
	DD	imagerel __GSHandlerCheck_EH
	DD	imagerel $cppxdata$?writeCommentAfterValueOnSameLine@StyledWriter@Json@@AEAAXAEBVValue@2@@Z
	DD	08aH
xdata	ENDS
;	COMDAT xdata
xdata	SEGMENT
$unwind$?dtor$0@?0??normalizeEOL@StyledWriter@Json@@CA?AV?$basic_string@DU?$char_traits@D@std@@V?$allocator@D@2@@std@@AEBV34@@Z@4HA DD 020601H
	DD	050023206H
xdata	ENDS
;	COMDAT xdata
xdata	SEGMENT
$ip2state$?normalizeEOL@StyledWriter@Json@@CA?AV?$basic_string@DU?$char_traits@D@std@@V?$allocator@D@2@@std@@AEBV34@@Z DD imagerel ?normalizeEOL@StyledWriter@Json@@CA?AV?$basic_string@DU?$char_traits@D@std@@V?$allocator@D@2@@std@@AEBV34@@Z+73
	DD	00H
xdata	ENDS
;	COMDAT xdata
xdata	SEGMENT
$stateUnwindMap$?normalizeEOL@StyledWriter@Json@@CA?AV?$basic_string@DU?$char_traits@D@std@@V?$allocator@D@2@@std@@AEBV34@@Z DD 0ffffffffH
	DD	imagerel ?dtor$0@?0??normalizeEOL@StyledWriter@Json@@CA?AV?$basic_string@DU?$char_traits@D@std@@V?$allocator@D@2@@std@@AEBV34@@Z@4HA
xdata	ENDS
;	COMDAT CONST
CONST	SEGMENT
$cppxdata$?normalizeEOL@StyledWriter@Json@@CA?AV?$basic_string@DU?$char_traits@D@std@@V?$allocator@D@2@@std@@AEBV34@@Z DD 019930522H
	DD	01H
	DD	imagerel $stateUnwindMap$?normalizeEOL@StyledWriter@Json@@CA?AV?$basic_string@DU?$char_traits@D@std@@V?$allocator@D@2@@std@@AEBV34@@Z
	DD	00H
	DD	00H
	DD	01H
	DD	imagerel $ip2state$?normalizeEOL@StyledWriter@Json@@CA?AV?$basic_string@DU?$char_traits@D@std@@V?$allocator@D@2@@std@@AEBV34@@Z
	DD	028H
	DD	00H
	DD	01H
CONST	ENDS
;	COMDAT xdata
xdata	SEGMENT
$unwind$?normalizeEOL@StyledWriter@Json@@CA?AV?$basic_string@DU?$char_traits@D@std@@V?$allocator@D@2@@std@@AEBV34@@Z DD 082011H
	DD	0c5420H
	DD	0b341bH
	DD	0e009520dH
	DD	060067007H
	DD	imagerel __CxxFrameHandler3
	DD	imagerel $cppxdata$?normalizeEOL@StyledWriter@Json@@CA?AV?$basic_string@DU?$char_traits@D@std@@V?$allocator@D@2@@std@@AEBV34@@Z
xdata	ENDS
;	COMDAT xdata
xdata	SEGMENT
$unwind$??A?$vector@V?$basic_string@DU?$char_traits@D@std@@V?$allocator@D@2@@std@@V?$allocator@V?$basic_string@DU?$char_traits@D@std@@V?$allocator@D@2@@std@@@2@@std@@QEAAAEAV?$basic_string@DU?$char_traits@D@std@@V?$allocator@D@2@@1@_K@Z DD 020601H
	DD	030023206H
xdata	ENDS
;	COMDAT xdata
xdata	SEGMENT
$unwind$?empty@?$vector@V?$basic_string@DU?$char_traits@D@std@@V?$allocator@D@2@@std@@V?$allocator@V?$basic_string@DU?$char_traits@D@std@@V?$allocator@D@2@@std@@@2@@std@@QEBA_NXZ DD 040a01H
	DD	06340aH
	DD	07006320aH
xdata	ENDS
;	COMDAT xdata
xdata	SEGMENT
$unwind$?end@?$vector@V?$basic_string@DU?$char_traits@D@std@@V?$allocator@D@2@@std@@V?$allocator@V?$basic_string@DU?$char_traits@D@std@@V?$allocator@D@2@@std@@@2@@std@@QEAA?AV?$_Vector_iterator@V?$_Vector_val@U?$_Simple_types@V?$basic_string@DU?$char_traits@D@std@@V?$allocator@D@2@@std@@@std@@@std@@@2@XZ DD 060f01H
	DD	07640fH
	DD	06340fH
	DD	0700b320fH
xdata	ENDS
;	COMDAT xdata
xdata	SEGMENT
$unwind$?begin@?$vector@V?$basic_string@DU?$char_traits@D@std@@V?$allocator@D@2@@std@@V?$allocator@V?$basic_string@DU?$char_traits@D@std@@V?$allocator@D@2@@std@@@2@@std@@QEAA?AV?$_Vector_iterator@V?$_Vector_val@U?$_Simple_types@V?$basic_string@DU?$char_traits@D@std@@V?$allocator@D@2@@std@@@std@@@std@@@2@XZ DD 060f01H
	DD	07640fH
	DD	06340fH
	DD	0700b320fH
xdata	ENDS
;	COMDAT xdata
xdata	SEGMENT
$ip2state$?clear@?$vector@V?$basic_string@DU?$char_traits@D@std@@V?$allocator@D@2@@std@@V?$allocator@V?$basic_string@DU?$char_traits@D@std@@V?$allocator@D@2@@std@@@2@@std@@QEAAXXZ DD imagerel ?clear@?$vector@V?$basic_string@DU?$char_traits@D@std@@V?$allocator@D@2@@std@@V?$allocator@V?$basic_string@DU?$char_traits@D@std@@V?$allocator@D@2@@std@@@2@@std@@QEAAXXZ+23
	DD	0ffffffffH
xdata	ENDS
;	COMDAT CONST
CONST	SEGMENT
$cppxdata$?clear@?$vector@V?$basic_string@DU?$char_traits@D@std@@V?$allocator@D@2@@std@@V?$allocator@V?$basic_string@DU?$char_traits@D@std@@V?$allocator@D@2@@std@@@2@@std@@QEAAXXZ DD 019930522H
	DD	00H
	DD	00H
	DD	00H
	DD	00H
	DD	01H
	DD	imagerel $ip2state$?clear@?$vector@V?$basic_string@DU?$char_traits@D@std@@V?$allocator@D@2@@std@@V?$allocator@V?$basic_string@DU?$char_traits@D@std@@V?$allocator@D@2@@std@@@2@@std@@QEAAXXZ
	DD	020H
	DD	00H
	DD	05H
CONST	ENDS
;	COMDAT xdata
xdata	SEGMENT
$unwind$?clear@?$vector@V?$basic_string@DU?$char_traits@D@std@@V?$allocator@D@2@@std@@V?$allocator@V?$basic_string@DU?$char_traits@D@std@@V?$allocator@D@2@@std@@@2@@std@@QEAAXXZ DD 041419H
	DD	083414H
	DD	070025206H
	DD	imagerel __CxxFrameHandler3
	DD	imagerel $cppxdata$?clear@?$vector@V?$basic_string@DU?$char_traits@D@std@@V?$allocator@D@2@@std@@V?$allocator@V?$basic_string@DU?$char_traits@D@std@@V?$allocator@D@2@@std@@@2@@std@@QEAAXXZ
xdata	ENDS
;	COMDAT xdata
xdata	SEGMENT
$unwind$?reserve@?$vector@V?$basic_string@DU?$char_traits@D@std@@V?$allocator@D@2@@std@@V?$allocator@V?$basic_string@DU?$char_traits@D@std@@V?$allocator@D@2@@std@@@2@@std@@QEAAX_K@Z DD 040a01H
	DD	06340aH
	DD	07006320aH
xdata	ENDS
;	COMDAT xdata
xdata	SEGMENT
$unwind$?dtor$1@?0??str@?$basic_ostringstream@DU?$char_traits@D@std@@V?$allocator@D@2@@std@@QEBA?AV?$basic_string@DU?$char_traits@D@std@@V?$allocator@D@2@@2@XZ@4HA DD 020601H
	DD	050023206H
xdata	ENDS
;	COMDAT xdata
xdata	SEGMENT
$ip2state$?str@?$basic_ostringstream@DU?$char_traits@D@std@@V?$allocator@D@2@@std@@QEBA?AV?$basic_string@DU?$char_traits@D@std@@V?$allocator@D@2@@2@XZ DD imagerel ?str@?$basic_ostringstream@DU?$char_traits@D@std@@V?$allocator@D@2@@std@@QEBA?AV?$basic_string@DU?$char_traits@D@std@@V?$allocator@D@2@@2@XZ+155
	DD	00H
xdata	ENDS
;	COMDAT xdata
xdata	SEGMENT
$stateUnwindMap$?str@?$basic_ostringstream@DU?$char_traits@D@std@@V?$allocator@D@2@@std@@QEBA?AV?$basic_string@DU?$char_traits@D@std@@V?$allocator@D@2@@2@XZ DD 0ffffffffH
	DD	imagerel ?dtor$1@?0??str@?$basic_ostringstream@DU?$char_traits@D@std@@V?$allocator@D@2@@std@@QEBA?AV?$basic_string@DU?$char_traits@D@std@@V?$allocator@D@2@@2@XZ@4HA
xdata	ENDS
;	COMDAT CONST
CONST	SEGMENT
$cppxdata$?str@?$basic_ostringstream@DU?$char_traits@D@std@@V?$allocator@D@2@@std@@QEBA?AV?$basic_string@DU?$char_traits@D@std@@V?$allocator@D@2@@2@XZ DD 019930522H
	DD	01H
	DD	imagerel $stateUnwindMap$?str@?$basic_ostringstream@DU?$char_traits@D@std@@V?$allocator@D@2@@std@@QEBA?AV?$basic_string@DU?$char_traits@D@std@@V?$allocator@D@2@@2@XZ
	DD	00H
	DD	00H
	DD	01H
	DD	imagerel $ip2state$?str@?$basic_ostringstream@DU?$char_traits@D@std@@V?$allocator@D@2@@std@@QEBA?AV?$basic_string@DU?$char_traits@D@std@@V?$allocator@D@2@@2@XZ
	DD	030H
	DD	00H
	DD	01H
CONST	ENDS
;	COMDAT xdata
xdata	SEGMENT
$unwind$?str@?$basic_ostringstream@DU?$char_traits@D@std@@V?$allocator@D@2@@std@@QEBA?AV?$basic_string@DU?$char_traits@D@std@@V?$allocator@D@2@@2@XZ DD 041411H
	DD	0c3414H
	DD	070027206H
	DD	imagerel __CxxFrameHandler3
	DD	imagerel $cppxdata$?str@?$basic_ostringstream@DU?$char_traits@D@std@@V?$allocator@D@2@@std@@QEBA?AV?$basic_string@DU?$char_traits@D@std@@V?$allocator@D@2@@2@XZ
xdata	ENDS
;	COMDAT xdata
xdata	SEGMENT
$unwind$??1?$basic_ostringstream@DU?$char_traits@D@std@@V?$allocator@D@2@@std@@UEAA@XZ DD 020601H
	DD	030023206H
xdata	ENDS
;	COMDAT xdata
xdata	SEGMENT
$unwind$?dtor$0@?0???0?$basic_ostringstream@DU?$char_traits@D@std@@V?$allocator@D@2@@std@@QEAA@H@Z@4HA DD 020601H
	DD	050023206H
xdata	ENDS
;	COMDAT xdata
xdata	SEGMENT
$ip2state$??0?$basic_ostringstream@DU?$char_traits@D@std@@V?$allocator@D@2@@std@@QEAA@H@Z DD imagerel ??0?$basic_ostringstream@DU?$char_traits@D@std@@V?$allocator@D@2@@std@@QEAA@H@Z+57
	DD	0ffffffffH
	DD	imagerel ??0?$basic_ostringstream@DU?$char_traits@D@std@@V?$allocator@D@2@@std@@QEAA@H@Z+88
	DD	00H
	DD	imagerel ??0?$basic_ostringstream@DU?$char_traits@D@std@@V?$allocator@D@2@@std@@QEAA@H@Z+138
	DD	01H
xdata	ENDS
;	COMDAT xdata
xdata	SEGMENT
$stateUnwindMap$??0?$basic_ostringstream@DU?$char_traits@D@std@@V?$allocator@D@2@@std@@QEAA@H@Z DD 0ffffffffH
	DD	imagerel ?dtor$0@?0???0?$basic_ostringstream@DU?$char_traits@D@std@@V?$allocator@D@2@@std@@QEAA@H@Z@4HA
	DD	00H
	DD	imagerel ?dtor$1@?0???0?$basic_ostringstream@DU?$char_traits@D@std@@V?$allocator@D@2@@std@@QEAA@H@Z@4HA
xdata	ENDS
;	COMDAT CONST
CONST	SEGMENT
$cppxdata$??0?$basic_ostringstream@DU?$char_traits@D@std@@V?$allocator@D@2@@std@@QEAA@H@Z DD 019930522H
	DD	02H
	DD	imagerel $stateUnwindMap$??0?$basic_ostringstream@DU?$char_traits@D@std@@V?$allocator@D@2@@std@@QEAA@H@Z
	DD	00H
	DD	00H
	DD	03H
	DD	imagerel $ip2state$??0?$basic_ostringstream@DU?$char_traits@D@std@@V?$allocator@D@2@@std@@QEAA@H@Z
	DD	020H
	DD	00H
	DD	01H
CONST	ENDS
;	COMDAT xdata
xdata	SEGMENT
$unwind$??0?$basic_ostringstream@DU?$char_traits@D@std@@V?$allocator@D@2@@std@@QEAA@H@Z DD 041d11H
	DD	09341dH
	DD	0700b520fH
	DD	imagerel __CxxFrameHandler3
	DD	imagerel $cppxdata$??0?$basic_ostringstream@DU?$char_traits@D@std@@V?$allocator@D@2@@std@@QEAA@H@Z
xdata	ENDS
;	COMDAT xdata
xdata	SEGMENT
$unwind$?seekpos@?$basic_stringbuf@DU?$char_traits@D@std@@V?$allocator@D@2@@std@@MEAA?AV?$fpos@U_Mbstatet@@@2@V32@H@Z DD 081401H
	DD	04e414H
	DD	03740fH
	DD	02640aH
	DD	013405H
xdata	ENDS
;	COMDAT xdata
xdata	SEGMENT
$unwind$?seekoff@?$basic_stringbuf@DU?$char_traits@D@std@@V?$allocator@D@2@@std@@MEAA?AV?$fpos@U_Mbstatet@@@2@_JHH@Z DD 0a1801H
	DD	067418H
	DD	056418H
	DD	045418H
	DD	033418H
	DD	0e016f018H
xdata	ENDS
;	COMDAT xdata
xdata	SEGMENT
$unwind$?pbackfail@?$basic_stringbuf@DU?$char_traits@D@std@@V?$allocator@D@2@@std@@MEAAHH@Z DD 040a01H
	DD	07340aH
	DD	07006320aH
xdata	ENDS
;	COMDAT xdata
xdata	SEGMENT
$chain$3$?overflow@?$basic_stringbuf@DU?$char_traits@D@std@@V?$allocator@D@2@@std@@MEAAHH@Z DD 021H
	DD	imagerel $LN60
	DD	imagerel $LN60+179
	DD	imagerel $unwind$?overflow@?$basic_stringbuf@DU?$char_traits@D@std@@V?$allocator@D@2@@std@@MEAAHH@Z
xdata	ENDS
;	COMDAT xdata
xdata	SEGMENT
$chain$2$?overflow@?$basic_stringbuf@DU?$char_traits@D@std@@V?$allocator@D@2@@std@@MEAAHH@Z DD 021H
	DD	imagerel $LN60+179
	DD	imagerel $LN60+191
	DD	imagerel $chain$0$?overflow@?$basic_stringbuf@DU?$char_traits@D@std@@V?$allocator@D@2@@std@@MEAAHH@Z
xdata	ENDS
;	COMDAT xdata
xdata	SEGMENT
$chain$1$?overflow@?$basic_stringbuf@DU?$char_traits@D@std@@V?$allocator@D@2@@std@@MEAAHH@Z DD 020521H
	DD	0be405H
	DD	imagerel $LN60+179
	DD	imagerel $LN60+191
	DD	imagerel $chain$0$?overflow@?$basic_stringbuf@DU?$char_traits@D@std@@V?$allocator@D@2@@std@@MEAAHH@Z
xdata	ENDS
;	COMDAT xdata
xdata	SEGMENT
$chain$0$?overflow@?$basic_stringbuf@DU?$char_traits@D@std@@V?$allocator@D@2@@std@@MEAAHH@Z DD 020521H
	DD	0ac405H
	DD	imagerel $LN60
	DD	imagerel $LN60+179
	DD	imagerel $unwind$?overflow@?$basic_stringbuf@DU?$char_traits@D@std@@V?$allocator@D@2@@std@@MEAAHH@Z
xdata	ENDS
;	COMDAT xdata
xdata	SEGMENT
$unwind$?overflow@?$basic_stringbuf@DU?$char_traits@D@std@@V?$allocator@D@2@@std@@MEAAHH@Z DD 081001H
	DD	0c3410H
	DD	0f00c3210H
	DD	07008d00aH
	DD	050066007H
xdata	ENDS
;	COMDAT xdata
xdata	SEGMENT
$ip2state$??1?$basic_stringbuf@DU?$char_traits@D@std@@V?$allocator@D@2@@std@@UEAA@XZ DD imagerel ??1?$basic_stringbuf@DU?$char_traits@D@std@@V?$allocator@D@2@@std@@UEAA@XZ+86
	DD	0ffffffffH
xdata	ENDS
;	COMDAT CONST
CONST	SEGMENT
$cppxdata$??1?$basic_stringbuf@DU?$char_traits@D@std@@V?$allocator@D@2@@std@@UEAA@XZ DD 019930522H
	DD	00H
	DD	00H
	DD	00H
	DD	00H
	DD	01H
	DD	imagerel $ip2state$??1?$basic_stringbuf@DU?$char_traits@D@std@@V?$allocator@D@2@@std@@UEAA@XZ
	DD	020H
	DD	00H
	DD	05H
CONST	ENDS
;	COMDAT xdata
xdata	SEGMENT
$unwind$??1?$basic_stringbuf@DU?$char_traits@D@std@@V?$allocator@D@2@@std@@UEAA@XZ DD 020f19H
	DD	030025206H
	DD	imagerel __CxxFrameHandler3
	DD	imagerel $cppxdata$??1?$basic_stringbuf@DU?$char_traits@D@std@@V?$allocator@D@2@@std@@UEAA@XZ
xdata	ENDS
;	COMDAT xdata
xdata	SEGMENT
$unwind$??_G?$basic_ostringstream@DU?$char_traits@D@std@@V?$allocator@D@2@@std@@UEAAPEAXI@Z DD 060f01H
	DD	07640fH
	DD	06340fH
	DD	0700b320fH
xdata	ENDS
;	COMDAT xdata
xdata	SEGMENT
$unwind$??_G?$basic_stringbuf@DU?$char_traits@D@std@@V?$allocator@D@2@@std@@UEAAPEAXI@Z DD 040a01H
	DD	06340aH
	DD	07006320aH
xdata	ENDS
;	COMDAT xdata
xdata	SEGMENT
$unwind$??0?$_Vector_iterator@V?$_Vector_val@U?$_Simple_types@V?$basic_string@DU?$char_traits@D@std@@V?$allocator@D@2@@std@@@std@@@std@@@std@@QEAA@PEAV?$basic_string@DU?$char_traits@D@std@@V?$allocator@D@2@@1@PEBU_Container_base0@1@@Z DD 020601H
	DD	030023206H
xdata	ENDS
;	COMDAT xdata
xdata	SEGMENT
$unwind$?_Reallocate_exactly@?$vector@V?$basic_string@DU?$char_traits@D@std@@V?$allocator@D@2@@std@@V?$allocator@V?$basic_string@DU?$char_traits@D@std@@V?$allocator@D@2@@std@@@2@@std@@AEAAX_K@Z DD 0a1a01H
	DD	09741aH
	DD	08641aH
	DD	07541aH
	DD	06341aH
	DD	0e016321aH
xdata	ENDS
;	COMDAT xdata
xdata	SEGMENT
$ip2state$??1sentry@?$basic_ostream@DU?$char_traits@D@std@@@std@@QEAA@XZ DD imagerel ??1sentry@?$basic_ostream@DU?$char_traits@D@std@@@std@@QEAA@XZ+31
	DD	0ffffffffH
	DD	imagerel ??1sentry@?$basic_ostream@DU?$char_traits@D@std@@@std@@QEAA@XZ+61
	DD	00H
xdata	ENDS
;	COMDAT xdata
xdata	SEGMENT
$stateUnwindMap$??1sentry@?$basic_ostream@DU?$char_traits@D@std@@@std@@QEAA@XZ DD 0ffffffffH
	DD	imagerel __imp___std_terminate
xdata	ENDS
;	COMDAT CONST
CONST	SEGMENT
$cppxdata$??1sentry@?$basic_ostream@DU?$char_traits@D@std@@@std@@QEAA@XZ DD 019930522H
	DD	01H
	DD	imagerel $stateUnwindMap$??1sentry@?$basic_ostream@DU?$char_traits@D@std@@@std@@QEAA@XZ
	DD	00H
	DD	00H
	DD	02H
	DD	imagerel $ip2state$??1sentry@?$basic_ostream@DU?$char_traits@D@std@@@std@@QEAA@XZ
	DD	020H
	DD	00H
	DD	05H
CONST	ENDS
;	COMDAT xdata
xdata	SEGMENT
$unwind$??1sentry@?$basic_ostream@DU?$char_traits@D@std@@@std@@QEAA@XZ DD 020f19H
	DD	030025206H
	DD	imagerel __CxxFrameHandler3
	DD	imagerel $cppxdata$??1sentry@?$basic_ostream@DU?$char_traits@D@std@@@std@@QEAA@XZ
xdata	ENDS
;	COMDAT xdata
xdata	SEGMENT
$ip2state$??0sentry@?$basic_ostream@DU?$char_traits@D@std@@@std@@QEAA@AEAV12@@Z DD imagerel ??0sentry@?$basic_ostream@DU?$char_traits@D@std@@@std@@QEAA@AEAV12@@Z+53
	DD	0ffffffffH
	DD	imagerel ??0sentry@?$basic_ostream@DU?$char_traits@D@std@@@std@@QEAA@AEAV12@@Z+88
	DD	00H
xdata	ENDS
;	COMDAT xdata
xdata	SEGMENT
$stateUnwindMap$??0sentry@?$basic_ostream@DU?$char_traits@D@std@@@std@@QEAA@AEAV12@@Z DD 0ffffffffH
	DD	imagerel ?dtor$0@?0???0sentry@?$basic_ostream@DU?$char_traits@D@std@@@std@@QEAA@AEAV12@@Z@4HA
xdata	ENDS
;	COMDAT CONST
CONST	SEGMENT
$cppxdata$??0sentry@?$basic_ostream@DU?$char_traits@D@std@@@std@@QEAA@AEAV12@@Z DD 019930522H
	DD	01H
	DD	imagerel $stateUnwindMap$??0sentry@?$basic_ostream@DU?$char_traits@D@std@@@std@@QEAA@AEAV12@@Z
	DD	00H
	DD	00H
	DD	02H
	DD	imagerel $ip2state$??0sentry@?$basic_ostream@DU?$char_traits@D@std@@@std@@QEAA@AEAV12@@Z
	DD	020H
	DD	00H
	DD	01H
CONST	ENDS
;	COMDAT xdata
xdata	SEGMENT
$unwind$??0sentry@?$basic_ostream@DU?$char_traits@D@std@@@std@@QEAA@AEAV12@@Z DD 041811H
	DD	093418H
	DD	07006520aH
	DD	imagerel __CxxFrameHandler3
	DD	imagerel $cppxdata$??0sentry@?$basic_ostream@DU?$char_traits@D@std@@@std@@QEAA@AEAV12@@Z
xdata	ENDS
;	COMDAT xdata
xdata	SEGMENT
$unwind$?_Tidy@?$basic_stringbuf@DU?$char_traits@D@std@@V?$allocator@D@2@@std@@IEAAXXZ DD 020601H
	DD	030023206H
xdata	ENDS
;	COMDAT xdata
xdata	SEGMENT
$unwind$?dtor$0@?0??str@?$basic_stringbuf@DU?$char_traits@D@std@@V?$allocator@D@2@@std@@QEBA?AV?$basic_string@DU?$char_traits@D@std@@V?$allocator@D@2@@2@XZ@4HA DD 020601H
	DD	050023206H
xdata	ENDS
;	COMDAT xdata
xdata	SEGMENT
$ip2state$?str@?$basic_stringbuf@DU?$char_traits@D@std@@V?$allocator@D@2@@std@@QEBA?AV?$basic_string@DU?$char_traits@D@std@@V?$allocator@D@2@@2@XZ DD imagerel ?str@?$basic_stringbuf@DU?$char_traits@D@std@@V?$allocator@D@2@@std@@QEBA?AV?$basic_string@DU?$char_traits@D@std@@V?$allocator@D@2@@2@XZ+139
	DD	00H
xdata	ENDS
;	COMDAT xdata
xdata	SEGMENT
$stateUnwindMap$?str@?$basic_stringbuf@DU?$char_traits@D@std@@V?$allocator@D@2@@std@@QEBA?AV?$basic_string@DU?$char_traits@D@std@@V?$allocator@D@2@@2@XZ DD 0ffffffffH
	DD	imagerel ?dtor$0@?0??str@?$basic_stringbuf@DU?$char_traits@D@std@@V?$allocator@D@2@@std@@QEBA?AV?$basic_string@DU?$char_traits@D@std@@V?$allocator@D@2@@2@XZ@4HA
xdata	ENDS
;	COMDAT CONST
CONST	SEGMENT
$cppxdata$?str@?$basic_stringbuf@DU?$char_traits@D@std@@V?$allocator@D@2@@std@@QEBA?AV?$basic_string@DU?$char_traits@D@std@@V?$allocator@D@2@@2@XZ DD 019930522H
	DD	01H
	DD	imagerel $stateUnwindMap$?str@?$basic_stringbuf@DU?$char_traits@D@std@@V?$allocator@D@2@@std@@QEBA?AV?$basic_string@DU?$char_traits@D@std@@V?$allocator@D@2@@2@XZ
	DD	00H
	DD	00H
	DD	01H
	DD	imagerel $ip2state$?str@?$basic_stringbuf@DU?$char_traits@D@std@@V?$allocator@D@2@@std@@QEBA?AV?$basic_string@DU?$char_traits@D@std@@V?$allocator@D@2@@2@XZ
	DD	028H
	DD	00H
	DD	01H
CONST	ENDS
;	COMDAT xdata
xdata	SEGMENT
$unwind$?str@?$basic_stringbuf@DU?$char_traits@D@std@@V?$allocator@D@2@@std@@QEBA?AV?$basic_string@DU?$char_traits@D@std@@V?$allocator@D@2@@2@XZ DD 041811H
	DD	083418H
	DD	07006520aH
	DD	imagerel __CxxFrameHandler3
	DD	imagerel $cppxdata$?str@?$basic_stringbuf@DU?$char_traits@D@std@@V?$allocator@D@2@@std@@QEBA?AV?$basic_string@DU?$char_traits@D@std@@V?$allocator@D@2@@2@XZ
xdata	ENDS
;	COMDAT xdata
xdata	SEGMENT
$unwind$??0?$basic_stringbuf@DU?$char_traits@D@std@@V?$allocator@D@2@@std@@QEAA@H@Z DD 020601H
	DD	030023206H
xdata	ENDS
;	COMDAT xdata
xdata	SEGMENT
$unwind$??0?$_Vector_const_iterator@V?$_Vector_val@U?$_Simple_types@V?$basic_string@DU?$char_traits@D@std@@V?$allocator@D@2@@std@@@std@@@std@@@std@@QEAA@PEAV?$basic_string@DU?$char_traits@D@std@@V?$allocator@D@2@@1@PEBU_Container_base0@1@@Z DD 020601H
	DD	030023206H
xdata	ENDS
;	COMDAT xdata
xdata	SEGMENT
$ip2state$??1_Sentry_base@?$basic_ostream@DU?$char_traits@D@std@@@std@@QEAA@XZ DD imagerel ??1_Sentry_base@?$basic_ostream@DU?$char_traits@D@std@@@std@@QEAA@XZ+36
	DD	0ffffffffH
xdata	ENDS
;	COMDAT CONST
CONST	SEGMENT
$cppxdata$??1_Sentry_base@?$basic_ostream@DU?$char_traits@D@std@@@std@@QEAA@XZ DD 019930522H
	DD	00H
	DD	00H
	DD	00H
	DD	00H
	DD	01H
	DD	imagerel $ip2state$??1_Sentry_base@?$basic_ostream@DU?$char_traits@D@std@@@std@@QEAA@XZ
	DD	020H
	DD	00H
	DD	05H
CONST	ENDS
;	COMDAT xdata
xdata	SEGMENT
$unwind$??1_Sentry_base@?$basic_ostream@DU?$char_traits@D@std@@@std@@QEAA@XZ DD 010d19H
	DD	06204H
	DD	imagerel __CxxFrameHandler3
	DD	imagerel $cppxdata$??1_Sentry_base@?$basic_ostream@DU?$char_traits@D@std@@@std@@QEAA@XZ
xdata	ENDS
;	COMDAT xdata
xdata	SEGMENT
$unwind$??0_Sentry_base@?$basic_ostream@DU?$char_traits@D@std@@@std@@QEAA@AEAV12@@Z DD 020601H
	DD	030023206H
xdata	ENDS
;	COMDAT xdata
xdata	SEGMENT
$unwind$?catch$4@?0???$?6U?$char_traits@D@std@@@std@@YAAEAV?$basic_ostream@DU?$char_traits@D@std@@@0@AEAV10@PEBD@Z@4HA DD 020a19H
	DD	05006320aH
	DD	imagerel __CxxFrameHandler3
	DD	imagerel $cppxdata$??$?6U?$char_traits@D@std@@@std@@YAAEAV?$basic_ostream@DU?$char_traits@D@std@@@0@AEAV10@PEBD@Z
xdata	ENDS
;	COMDAT xdata
xdata	SEGMENT
$ip2state$??$?6U?$char_traits@D@std@@@std@@YAAEAV?$basic_ostream@DU?$char_traits@D@std@@@0@AEAV10@PEBD@Z DD imagerel ??$?6U?$char_traits@D@std@@@std@@YAAEAV?$basic_ostream@DU?$char_traits@D@std@@@0@AEAV10@PEBD@Z+113
	DD	0ffffffffH
	DD	imagerel ??$?6U?$char_traits@D@std@@@std@@YAAEAV?$basic_ostream@DU?$char_traits@D@std@@@0@AEAV10@PEBD@Z+158
	DD	00H
	DD	imagerel ??$?6U?$char_traits@D@std@@@std@@YAAEAV?$basic_ostream@DU?$char_traits@D@std@@@0@AEAV10@PEBD@Z+235
	DD	02H
	DD	imagerel ??$?6U?$char_traits@D@std@@@std@@YAAEAV?$basic_ostream@DU?$char_traits@D@std@@@0@AEAV10@PEBD@Z+346
	DD	01H
	DD	imagerel ??$?6U?$char_traits@D@std@@@std@@YAAEAV?$basic_ostream@DU?$char_traits@D@std@@@0@AEAV10@PEBD@Z+387
	DD	04H
	DD	imagerel ??$?6U?$char_traits@D@std@@@std@@YAAEAV?$basic_ostream@DU?$char_traits@D@std@@@0@AEAV10@PEBD@Z+406
	DD	05H
	DD	imagerel ??$?6U?$char_traits@D@std@@@std@@YAAEAV?$basic_ostream@DU?$char_traits@D@std@@@0@AEAV10@PEBD@Z+430
	DD	0ffffffffH
	DD	imagerel ?catch$4@?0???$?6U?$char_traits@D@std@@@std@@YAAEAV?$basic_ostream@DU?$char_traits@D@std@@@0@AEAV10@PEBD@Z@4HA+35
	DD	03H
xdata	ENDS
;	COMDAT xdata
xdata	SEGMENT
$handlerMap$0$??$?6U?$char_traits@D@std@@@std@@YAAEAV?$basic_ostream@DU?$char_traits@D@std@@@0@AEAV10@PEBD@Z DD 040H
	DD	00H
	DD	00H
	DD	imagerel ?catch$4@?0???$?6U?$char_traits@D@std@@@std@@YAAEAV?$basic_ostream@DU?$char_traits@D@std@@@0@AEAV10@PEBD@Z@4HA
	DD	038H
xdata	ENDS
;	COMDAT xdata
xdata	SEGMENT
$tryMap$??$?6U?$char_traits@D@std@@@std@@YAAEAV?$basic_ostream@DU?$char_traits@D@std@@@0@AEAV10@PEBD@Z DD 02H
	DD	02H
	DD	03H
	DD	01H
	DD	imagerel $handlerMap$0$??$?6U?$char_traits@D@std@@@std@@YAAEAV?$basic_ostream@DU?$char_traits@D@std@@@0@AEAV10@PEBD@Z
xdata	ENDS
;	COMDAT xdata
xdata	SEGMENT
$stateUnwindMap$??$?6U?$char_traits@D@std@@@std@@YAAEAV?$basic_ostream@DU?$char_traits@D@std@@@0@AEAV10@PEBD@Z DD 0ffffffffH
	DD	imagerel ?dtor$1@?0???$?6U?$char_traits@D@std@@@std@@YAAEAV?$basic_ostream@DU?$char_traits@D@std@@@0@AEAV10@PEBD@Z@4HA
	DD	0ffffffffH
	DD	imagerel ?dtor$0@?0???$?6U?$char_traits@D@std@@@std@@YAAEAV?$basic_ostream@DU?$char_traits@D@std@@@0@AEAV10@PEBD@Z@4HA
	DD	01H
	DD	00H
	DD	01H
	DD	00H
	DD	0ffffffffH
	DD	imagerel __imp___std_terminate
	DD	04H
	DD	imagerel __imp___std_terminate
xdata	ENDS
;	COMDAT CONST
CONST	SEGMENT
$cppxdata$??$?6U?$char_traits@D@std@@@std@@YAAEAV?$basic_ostream@DU?$char_traits@D@std@@@0@AEAV10@PEBD@Z DD 019930522H
	DD	06H
	DD	imagerel $stateUnwindMap$??$?6U?$char_traits@D@std@@@std@@YAAEAV?$basic_ostream@DU?$char_traits@D@std@@@0@AEAV10@PEBD@Z
	DD	01H
	DD	imagerel $tryMap$??$?6U?$char_traits@D@std@@@std@@YAAEAV?$basic_ostream@DU?$char_traits@D@std@@@0@AEAV10@PEBD@Z
	DD	08H
	DD	imagerel $ip2state$??$?6U?$char_traits@D@std@@@std@@YAAEAV?$basic_ostream@DU?$char_traits@D@std@@@0@AEAV10@PEBD@Z
	DD	020H
	DD	00H
	DD	01H
CONST	ENDS
;	COMDAT xdata
xdata	SEGMENT
$unwind$??$?6U?$char_traits@D@std@@@std@@YAAEAV?$basic_ostream@DU?$char_traits@D@std@@@0@AEAV10@PEBD@Z DD 081f19H
	DD	0f341fH
	DD	0f00d7211H
	DD	0c009e00bH
	DD	060067007H
	DD	imagerel __CxxFrameHandler3
	DD	imagerel $cppxdata$??$?6U?$char_traits@D@std@@@std@@YAAEAV?$basic_ostream@DU?$char_traits@D@std@@@0@AEAV10@PEBD@Z
xdata	ENDS
;	COMDAT xdata
xdata	SEGMENT
$unwind$??$?6DU?$char_traits@D@std@@_J@std@@YAAEAV?$basic_ostream@DU?$char_traits@D@std@@@0@AEAV10@AEBU?$_Smanip@_J@0@@Z DD 020601H
	DD	030023206H
xdata	ENDS
;	COMDAT xdata
xdata	SEGMENT
$unwind$??$?HDU?$char_traits@D@std@@V?$allocator@D@1@@std@@YA?AV?$basic_string@DU?$char_traits@D@std@@V?$allocator@D@2@@0@QEBD$$QEAV10@@Z DD 020601H
	DD	030023206H
xdata	ENDS
;	COMDAT xdata
xdata	SEGMENT
$unwind$??$?6DU?$char_traits@D@std@@V?$allocator@D@1@@std@@YAAEAV?$basic_ostream@DU?$char_traits@D@std@@@0@AEAV10@AEBV?$basic_string@DU?$char_traits@D@std@@V?$allocator@D@2@@0@@Z DD 060f01H
	DD	07640fH
	DD	06340fH
	DD	0700b320fH
xdata	ENDS
;	COMDAT xdata
xdata	SEGMENT
$unwind$?catch$4@?0???$_Insert_string@DU?$char_traits@D@std@@_K@std@@YAAEAV?$basic_ostream@DU?$char_traits@D@std@@@0@AEAV10@QEBD_K@Z@4HA DD 020a19H
	DD	05006320aH
	DD	imagerel __CxxFrameHandler3
	DD	imagerel $cppxdata$??$_Insert_string@DU?$char_traits@D@std@@_K@std@@YAAEAV?$basic_ostream@DU?$char_traits@D@std@@@0@AEAV10@QEBD_K@Z
xdata	ENDS
;	COMDAT xdata
xdata	SEGMENT
$ip2state$??$_Insert_string@DU?$char_traits@D@std@@_K@std@@YAAEAV?$basic_ostream@DU?$char_traits@D@std@@@0@AEAV10@QEBD_K@Z DD imagerel ??$_Insert_string@DU?$char_traits@D@std@@_K@std@@YAAEAV?$basic_ostream@DU?$char_traits@D@std@@@0@AEAV10@QEBD_K@Z+105
	DD	0ffffffffH
	DD	imagerel ??$_Insert_string@DU?$char_traits@D@std@@_K@std@@YAAEAV?$basic_ostream@DU?$char_traits@D@std@@@0@AEAV10@QEBD_K@Z+150
	DD	00H
	DD	imagerel ??$_Insert_string@DU?$char_traits@D@std@@_K@std@@YAAEAV?$basic_ostream@DU?$char_traits@D@std@@@0@AEAV10@QEBD_K@Z+230
	DD	02H
	DD	imagerel ??$_Insert_string@DU?$char_traits@D@std@@_K@std@@YAAEAV?$basic_ostream@DU?$char_traits@D@std@@@0@AEAV10@QEBD_K@Z+315
	DD	01H
	DD	imagerel ??$_Insert_string@DU?$char_traits@D@std@@_K@std@@YAAEAV?$basic_ostream@DU?$char_traits@D@std@@@0@AEAV10@QEBD_K@Z+340
	DD	02H
	DD	imagerel ??$_Insert_string@DU?$char_traits@D@std@@_K@std@@YAAEAV?$basic_ostream@DU?$char_traits@D@std@@@0@AEAV10@QEBD_K@Z+395
	DD	01H
	DD	imagerel ??$_Insert_string@DU?$char_traits@D@std@@_K@std@@YAAEAV?$basic_ostream@DU?$char_traits@D@std@@@0@AEAV10@QEBD_K@Z+414
	DD	04H
	DD	imagerel ??$_Insert_string@DU?$char_traits@D@std@@_K@std@@YAAEAV?$basic_ostream@DU?$char_traits@D@std@@@0@AEAV10@QEBD_K@Z+441
	DD	05H
	DD	imagerel ?catch$4@?0???$_Insert_string@DU?$char_traits@D@std@@_K@std@@YAAEAV?$basic_ostream@DU?$char_traits@D@std@@@0@AEAV10@QEBD_K@Z@4HA+35
	DD	03H
xdata	ENDS
;	COMDAT xdata
xdata	SEGMENT
$handlerMap$0$??$_Insert_string@DU?$char_traits@D@std@@_K@std@@YAAEAV?$basic_ostream@DU?$char_traits@D@std@@@0@AEAV10@QEBD_K@Z DD 040H
	DD	00H
	DD	00H
	DD	imagerel ?catch$4@?0???$_Insert_string@DU?$char_traits@D@std@@_K@std@@YAAEAV?$basic_ostream@DU?$char_traits@D@std@@@0@AEAV10@QEBD_K@Z@4HA
	DD	038H
xdata	ENDS
;	COMDAT xdata
xdata	SEGMENT
$tryMap$??$_Insert_string@DU?$char_traits@D@std@@_K@std@@YAAEAV?$basic_ostream@DU?$char_traits@D@std@@@0@AEAV10@QEBD_K@Z DD 02H
	DD	02H
	DD	03H
	DD	01H
	DD	imagerel $handlerMap$0$??$_Insert_string@DU?$char_traits@D@std@@_K@std@@YAAEAV?$basic_ostream@DU?$char_traits@D@std@@@0@AEAV10@QEBD_K@Z
xdata	ENDS
;	COMDAT xdata
xdata	SEGMENT
$stateUnwindMap$??$_Insert_string@DU?$char_traits@D@std@@_K@std@@YAAEAV?$basic_ostream@DU?$char_traits@D@std@@@0@AEAV10@QEBD_K@Z DD 0ffffffffH
	DD	imagerel ?dtor$1@?0???$_Insert_string@DU?$char_traits@D@std@@_K@std@@YAAEAV?$basic_ostream@DU?$char_traits@D@std@@@0@AEAV10@QEBD_K@Z@4HA
	DD	0ffffffffH
	DD	imagerel ?dtor$0@?0???$_Insert_string@DU?$char_traits@D@std@@_K@std@@YAAEAV?$basic_ostream@DU?$char_traits@D@std@@@0@AEAV10@QEBD_K@Z@4HA
	DD	01H
	DD	00H
	DD	01H
	DD	00H
	DD	0ffffffffH
	DD	imagerel __imp___std_terminate
	DD	04H
	DD	imagerel __imp___std_terminate
xdata	ENDS
;	COMDAT CONST
CONST	SEGMENT
$cppxdata$??$_Insert_string@DU?$char_traits@D@std@@_K@std@@YAAEAV?$basic_ostream@DU?$char_traits@D@std@@@0@AEAV10@QEBD_K@Z DD 019930522H
	DD	06H
	DD	imagerel $stateUnwindMap$??$_Insert_string@DU?$char_traits@D@std@@_K@std@@YAAEAV?$basic_ostream@DU?$char_traits@D@std@@@0@AEAV10@QEBD_K@Z
	DD	01H
	DD	imagerel $tryMap$??$_Insert_string@DU?$char_traits@D@std@@_K@std@@YAAEAV?$basic_ostream@DU?$char_traits@D@std@@@0@AEAV10@QEBD_K@Z
	DD	09H
	DD	imagerel $ip2state$??$_Insert_string@DU?$char_traits@D@std@@_K@std@@YAAEAV?$basic_ostream@DU?$char_traits@D@std@@@0@AEAV10@QEBD_K@Z
	DD	020H
	DD	00H
	DD	01H
CONST	ENDS
;	COMDAT xdata
xdata	SEGMENT
$unwind$??$_Insert_string@DU?$char_traits@D@std@@_K@std@@YAAEAV?$basic_ostream@DU?$char_traits@D@std@@@0@AEAV10@QEBD_K@Z DD 081f19H
	DD	0f341fH
	DD	0f00d7211H
	DD	0c009e00bH
	DD	060067007H
	DD	imagerel __CxxFrameHandler3
	DD	imagerel $cppxdata$??$_Insert_string@DU?$char_traits@D@std@@_K@std@@YAAEAV?$basic_ostream@DU?$char_traits@D@std@@@0@AEAV10@QEBD_K@Z
xdata	ENDS
; Function compile flags: /Ogtpy
; File c:\program files (x86)\windows kits\10\include\10.0.10240.0\ucrt\corecrt_stdio_config.h
;	COMDAT __local_stdio_printf_options
_TEXT	SEGMENT
__local_stdio_printf_options PROC			; COMDAT

; 74   :     static unsigned __int64 _OptionsStorage;
; 75   :     return &_OptionsStorage;

	lea	rax, OFFSET FLAT:?_OptionsStorage@?1??__local_stdio_printf_options@@9@4_KA ; `__local_stdio_printf_options'::`2'::_OptionsStorage

; 76   : }

	ret	0
__local_stdio_printf_options ENDP
_TEXT	ENDS
; Function compile flags: /Ogtpy
; File c:\program files (x86)\windows kits\10\include\10.0.10240.0\ucrt\stdio.h
;	COMDAT _vsprintf_s_l
_TEXT	SEGMENT
_Buffer$ = 64
_BufferCount$ = 72
_Format$ = 80
_Locale$dead$ = 88
_ArgList$ = 96
_vsprintf_s_l PROC					; COMDAT

; 1493 : {

$LN4:
	mov	QWORD PTR [rsp+8], rbx
	mov	QWORD PTR [rsp+16], rsi
	push	rdi
	sub	rsp, 48					; 00000030H
	mov	rbx, r8
	mov	rdi, rdx
	mov	rsi, rcx

; 1494 :     int const _Result = __stdio_common_vsprintf_s(

	call	__local_stdio_printf_options
	mov	r9, QWORD PTR _ArgList$[rsp]
	mov	r8, rdi
	mov	QWORD PTR [rsp+40], r9
	mov	rdx, rsi
	mov	r9, rbx
	mov	QWORD PTR [rsp+32], 0
	mov	rcx, QWORD PTR [rax]
	call	QWORD PTR __imp___stdio_common_vsprintf_s

; 1495 :         _CRT_INTERNAL_LOCAL_PRINTF_OPTIONS,
; 1496 :         _Buffer, _BufferCount, _Format, _Locale, _ArgList);
; 1497 : 
; 1498 :     return _Result < 0 ? -1 : _Result;
; 1499 : }

	mov	rbx, QWORD PTR [rsp+64]
	mov	ecx, -1
	mov	rsi, QWORD PTR [rsp+72]
	test	eax, eax
	cmovs	eax, ecx
	add	rsp, 48					; 00000030H
	pop	rdi
	ret	0
_vsprintf_s_l ENDP
_TEXT	ENDS
; Function compile flags: /Ogtpy
; File c:\program files (x86)\windows kits\10\include\10.0.10240.0\ucrt\stdio.h
;	COMDAT sprintf_s
_TEXT	SEGMENT
_Buffer$ = 96
_BufferCount$ = 104
_Format$ = 112
sprintf_s PROC						; COMDAT

; 1834 :     {

$LN6:
	mov	QWORD PTR [rsp+24], r8
	mov	QWORD PTR [rsp+32], r9
	push	rbx
	push	rbp
	push	rsi
	push	rdi
	sub	rsp, 56					; 00000038H
	mov	rsi, r8

; 1835 :         int _Result;
; 1836 :         va_list _ArgList;
; 1837 :         __crt_va_start(_ArgList, _Format);

	lea	rbp, QWORD PTR _Format$[rsp+8]
	mov	rbx, rdx
	mov	rdi, rcx

; 1494 :     int const _Result = __stdio_common_vsprintf_s(

	call	__local_stdio_printf_options
	mov	QWORD PTR [rsp+40], rbp
	mov	r9, rsi
	mov	r8, rbx
	mov	QWORD PTR [rsp+32], 0
	mov	rdx, rdi
	mov	rcx, QWORD PTR [rax]
	call	QWORD PTR __imp___stdio_common_vsprintf_s

; 1495 :         _CRT_INTERNAL_LOCAL_PRINTF_OPTIONS,
; 1496 :         _Buffer, _BufferCount, _Format, _Locale, _ArgList);
; 1497 : 
; 1498 :     return _Result < 0 ? -1 : _Result;

	test	eax, eax
	mov	ecx, -1
	cmovs	eax, ecx

; 1838 :         _Result = _vsprintf_s_l(_Buffer, _BufferCount, _Format, NULL, _ArgList);
; 1839 :         __crt_va_end(_ArgList);
; 1840 :         return _Result;
; 1841 :     }

	add	rsp, 56					; 00000038H
	pop	rdi
	pop	rsi
	pop	rbp
	pop	rbx
	ret	0
sprintf_s ENDP
_TEXT	ENDS
; Function compile flags: /Ogtpy
; File c:\program files (x86)\microsoft visual studio\2017\enterprise\vc\tools\msvc\14.16.27023\include\iosfwd
;	COMDAT ?to_char_type@?$char_traits@D@std@@SADAEBH@Z
_TEXT	SEGMENT
_Meta$ = 8
?to_char_type@?$char_traits@D@std@@SADAEBH@Z PROC	; std::char_traits<char>::to_char_type, COMDAT

; 521  : 		return (static_cast<char>(_Meta));

	movzx	eax, BYTE PTR [rcx]

; 522  : 		}

	ret	0
?to_char_type@?$char_traits@D@std@@SADAEBH@Z ENDP	; std::char_traits<char>::to_char_type
_TEXT	ENDS
; Function compile flags: /Ogtpy
; File c:\program files (x86)\microsoft visual studio\2017\enterprise\vc\tools\msvc\14.16.27023\include\iosfwd
;	COMDAT ?to_int_type@?$char_traits@D@std@@SAHAEBD@Z
_TEXT	SEGMENT
_Ch$ = 8
?to_int_type@?$char_traits@D@std@@SAHAEBD@Z PROC	; std::char_traits<char>::to_int_type, COMDAT

; 526  : 		return (static_cast<unsigned char>(_Ch));

	movzx	eax, BYTE PTR [rcx]

; 527  : 		}

	ret	0
?to_int_type@?$char_traits@D@std@@SAHAEBD@Z ENDP	; std::char_traits<char>::to_int_type
_TEXT	ENDS
; Function compile flags: /Ogtpy
; File c:\program files (x86)\microsoft visual studio\2017\enterprise\vc\tools\msvc\14.16.27023\include\iosfwd
;	COMDAT ?eq_int_type@?$char_traits@D@std@@SA_NAEBH0@Z
_TEXT	SEGMENT
_Left$ = 8
_Right$ = 16
?eq_int_type@?$char_traits@D@std@@SA_NAEBH0@Z PROC	; std::char_traits<char>::eq_int_type, COMDAT

; 531  : 		return (_Left == _Right);

	mov	eax, DWORD PTR [rdx]
	cmp	DWORD PTR [rcx], eax
	sete	al

; 532  : 		}

	ret	0
?eq_int_type@?$char_traits@D@std@@SA_NAEBH0@Z ENDP	; std::char_traits<char>::eq_int_type
_TEXT	ENDS
; Function compile flags: /Ogtpy
; File c:\program files (x86)\microsoft visual studio\2017\enterprise\vc\tools\msvc\14.16.27023\include\iosfwd
;	COMDAT ?not_eof@?$char_traits@D@std@@SAHAEBH@Z
_TEXT	SEGMENT
_Meta$ = 8
?not_eof@?$char_traits@D@std@@SAHAEBH@Z PROC		; std::char_traits<char>::not_eof, COMDAT

; 535  : 		{	// return anything but EOF

	mov	eax, DWORD PTR [rcx]

; 536  : 		return (_Meta != eof() ? _Meta : !eof());

	xor	ecx, ecx
	cmp	eax, -1
	cmove	eax, ecx

; 537  : 		}

	ret	0
?not_eof@?$char_traits@D@std@@SAHAEBH@Z ENDP		; std::char_traits<char>::not_eof
_TEXT	ENDS
; Function compile flags: /Ogtpy
; File c:\program files (x86)\microsoft visual studio\2017\enterprise\vc\tools\msvc\14.16.27023\include\iosfwd
;	COMDAT ?eof@?$char_traits@D@std@@SAHXZ
_TEXT	SEGMENT
?eof@?$char_traits@D@std@@SAHXZ PROC			; std::char_traits<char>::eof, COMDAT

; 541  : 		return (EOF);

	mov	eax, -1

; 542  : 		}

	ret	0
?eof@?$char_traits@D@std@@SAHXZ ENDP			; std::char_traits<char>::eof
_TEXT	ENDS
; Function compile flags: /Ogtpy
; File c:\program files (x86)\microsoft visual studio\2017\enterprise\vc\tools\msvc\14.16.27023\include\ios
; File c:\program files (x86)\microsoft visual studio\2017\enterprise\vc\tools\msvc\14.16.27023\include\xiosbase
; File c:\program files (x86)\microsoft visual studio\2017\enterprise\vc\tools\msvc\14.16.27023\include\ios
; File c:\program files (x86)\microsoft visual studio\2017\enterprise\vc\tools\msvc\14.16.27023\include\xiosbase
; File c:\program files (x86)\microsoft visual studio\2017\enterprise\vc\tools\msvc\14.16.27023\include\ios
;	COMDAT ?hex@std@@YAAEAVios_base@1@AEAV21@@Z
_TEXT	SEGMENT
_Iosbase$ = 8
?hex@std@@YAAEAVios_base@1@AEAV21@@Z PROC		; std::hex, COMDAT
; File c:\program files (x86)\microsoft visual studio\2017\enterprise\vc\tools\msvc\14.16.27023\include\xiosbase

; 410  : 		_Fmtfl = (_Oldfmtflags & ~_Mask) | (_Newfmtflags & _Mask & _Fmtmask);

	and	DWORD PTR [rcx+24], -1537		; fffffffffffff9ffH
; File c:\program files (x86)\microsoft visual studio\2017\enterprise\vc\tools\msvc\14.16.27023\include\ios

; 233  : 	return (_Iosbase);

	mov	rax, rcx
; File c:\program files (x86)\microsoft visual studio\2017\enterprise\vc\tools\msvc\14.16.27023\include\xiosbase

; 410  : 		_Fmtfl = (_Oldfmtflags & ~_Mask) | (_Newfmtflags & _Mask & _Fmtmask);

	or	DWORD PTR [rcx+24], 2048		; 00000800H
; File c:\program files (x86)\microsoft visual studio\2017\enterprise\vc\tools\msvc\14.16.27023\include\ios

; 234  : 	}

	ret	0
?hex@std@@YAAEAVios_base@1@AEAV21@@Z ENDP		; std::hex
_TEXT	ENDS
; Function compile flags: /Ogtpy
; File c:\program files (x86)\microsoft visual studio\2017\enterprise\vc\tools\msvc\14.16.27023\include\ios
; File c:\program files (x86)\microsoft visual studio\2017\enterprise\vc\tools\msvc\14.16.27023\include\xiosbase
; File c:\program files (x86)\microsoft visual studio\2017\enterprise\vc\tools\msvc\14.16.27023\include\ios
;	COMDAT ?uppercase@std@@YAAEAVios_base@1@AEAV21@@Z
_TEXT	SEGMENT
_Iosbase$ = 8
?uppercase@std@@YAAEAVios_base@1@AEAV21@@Z PROC		; std::uppercase, COMDAT
; File c:\program files (x86)\microsoft visual studio\2017\enterprise\vc\tools\msvc\14.16.27023\include\xiosbase

; 403  : 		_Fmtfl |= _Newfmtflags & _Fmtmask;

	or	DWORD PTR [rcx+24], 4
; File c:\program files (x86)\microsoft visual studio\2017\enterprise\vc\tools\msvc\14.16.27023\include\ios

; 347  : 	return (_Iosbase);

	mov	rax, rcx

; 348  : 	}

	ret	0
?uppercase@std@@YAAEAVios_base@1@AEAV21@@Z ENDP		; std::uppercase
_TEXT	ENDS
; Function compile flags: /Ogtpy
; File d:\code\libshared\jsoncpp-src-0.5.0\include\json\writer.h
; File d:\code\libshared\jsoncpp-src-0.5.0\src\lib_json\json_writer.cpp
; File d:\code\libshared\jsoncpp-src-0.5.0\include\json\writer.h
;	COMDAT ??1FastWriter@Json@@UEAA@XZ
_TEXT	SEGMENT
this$ = 48
??1FastWriter@Json@@UEAA@XZ PROC			; Json::FastWriter::~FastWriter, COMDAT

$LN7:
	push	rbx
	sub	rsp, 32					; 00000020H
	lea	rax, OFFSET FLAT:??_7FastWriter@Json@@6B@
	mov	rbx, rcx
	mov	QWORD PTR [rcx], rax
	add	rcx, 8
	call	??1?$basic_string@DU?$char_traits@D@std@@V?$allocator@D@2@@std@@QEAA@XZ ; std::basic_string<char,std::char_traits<char>,std::allocator<char> >::~basic_string<char,std::char_traits<char>,std::allocator<char> >
; File d:\code\libshared\jsoncpp-src-0.5.0\src\lib_json\json_writer.cpp

	lea	rax, OFFSET FLAT:??_7Writer@Json@@6B@
	mov	QWORD PTR [rbx], rax
; File d:\code\libshared\jsoncpp-src-0.5.0\include\json\writer.h

	add	rsp, 32					; 00000020H
	pop	rbx
	ret	0
??1FastWriter@Json@@UEAA@XZ ENDP			; Json::FastWriter::~FastWriter
_TEXT	ENDS
; Function compile flags: /Ogtpy
; File d:\code\libshared\jsoncpp-src-0.5.0\include\json\writer.h
; File d:\code\libshared\jsoncpp-src-0.5.0\src\lib_json\json_writer.cpp
;	COMDAT ??_GFastWriter@Json@@UEAAPEAXI@Z
_TEXT	SEGMENT
this$ = 48
__flags$ = 56
??_GFastWriter@Json@@UEAAPEAXI@Z PROC			; Json::FastWriter::`scalar deleting destructor', COMDAT
$LN12:
	mov	QWORD PTR [rsp+8], rbx
	push	rdi
	sub	rsp, 32					; 00000020H
; File d:\code\libshared\jsoncpp-src-0.5.0\include\json\writer.h

	lea	rax, OFFSET FLAT:??_7FastWriter@Json@@6B@
	mov	rdi, rcx
	mov	QWORD PTR [rcx], rax
	mov	ebx, edx
	add	rcx, 8
	call	??1?$basic_string@DU?$char_traits@D@std@@V?$allocator@D@2@@std@@QEAA@XZ ; std::basic_string<char,std::char_traits<char>,std::allocator<char> >::~basic_string<char,std::char_traits<char>,std::allocator<char> >
; File d:\code\libshared\jsoncpp-src-0.5.0\src\lib_json\json_writer.cpp

	lea	rax, OFFSET FLAT:??_7Writer@Json@@6B@
	mov	QWORD PTR [rdi], rax
	test	bl, 1
	je	SHORT $LN9@scalar
	mov	edx, 48					; 00000030H
	mov	rcx, rdi
	call	??3@YAXPEAX_K@Z				; operator delete
$LN9@scalar:
	mov	rbx, QWORD PTR [rsp+48]
	mov	rax, rdi
	add	rsp, 32					; 00000020H
	pop	rdi
	ret	0
??_GFastWriter@Json@@UEAAPEAXI@Z ENDP			; Json::FastWriter::`scalar deleting destructor'
_TEXT	ENDS
; Function compile flags: /Ogtpy
; File d:\code\libshared\jsoncpp-src-0.5.0\include\json\writer.h
; File d:\code\libshared\jsoncpp-src-0.5.0\src\lib_json\json_writer.cpp
; File d:\code\libshared\jsoncpp-src-0.5.0\include\json\writer.h
;	COMDAT ??1StyledWriter@Json@@UEAA@XZ
_TEXT	SEGMENT
this$ = 48
??1StyledWriter@Json@@UEAA@XZ PROC			; Json::StyledWriter::~StyledWriter, COMDAT

$LN7:
	push	rbx
	sub	rsp, 32					; 00000020H
	lea	rax, OFFSET FLAT:??_7StyledWriter@Json@@6B@
	mov	rbx, rcx
	mov	QWORD PTR [rcx], rax
	add	rcx, 64					; 00000040H
	call	??1?$basic_string@DU?$char_traits@D@std@@V?$allocator@D@2@@std@@QEAA@XZ ; std::basic_string<char,std::char_traits<char>,std::allocator<char> >::~basic_string<char,std::char_traits<char>,std::allocator<char> >
	lea	rcx, QWORD PTR [rbx+32]
	call	??1?$basic_string@DU?$char_traits@D@std@@V?$allocator@D@2@@std@@QEAA@XZ ; std::basic_string<char,std::char_traits<char>,std::allocator<char> >::~basic_string<char,std::char_traits<char>,std::allocator<char> >
	lea	rcx, QWORD PTR [rbx+8]
	call	??1?$vector@V?$basic_string@DU?$char_traits@D@std@@V?$allocator@D@2@@std@@V?$allocator@V?$basic_string@DU?$char_traits@D@std@@V?$allocator@D@2@@std@@@2@@std@@QEAA@XZ ; std::vector<std::basic_string<char,std::char_traits<char>,std::allocator<char> >,std::allocator<std::basic_string<char,std::char_traits<char>,std::allocator<char> > > >::~vector<std::basic_string<char,std::char_traits<char>,std::allocator<char> >,std::allocator<std::basic_string<char,std::char_traits<char>,std::allocator<char> > > >
; File d:\code\libshared\jsoncpp-src-0.5.0\src\lib_json\json_writer.cpp

	lea	rax, OFFSET FLAT:??_7Writer@Json@@6B@
	mov	QWORD PTR [rbx], rax
; File d:\code\libshared\jsoncpp-src-0.5.0\include\json\writer.h

	add	rsp, 32					; 00000020H
	pop	rbx
	ret	0
??1StyledWriter@Json@@UEAA@XZ ENDP			; Json::StyledWriter::~StyledWriter
_TEXT	ENDS
; Function compile flags: /Ogtpy
; File d:\code\libshared\jsoncpp-src-0.5.0\include\json\writer.h
; File d:\code\libshared\jsoncpp-src-0.5.0\src\lib_json\json_writer.cpp
;	COMDAT ??_GStyledWriter@Json@@UEAAPEAXI@Z
_TEXT	SEGMENT
this$ = 48
__flags$ = 56
??_GStyledWriter@Json@@UEAAPEAXI@Z PROC			; Json::StyledWriter::`scalar deleting destructor', COMDAT
$LN12:
	mov	QWORD PTR [rsp+8], rbx
	push	rdi
	sub	rsp, 32					; 00000020H
; File d:\code\libshared\jsoncpp-src-0.5.0\include\json\writer.h

	lea	rax, OFFSET FLAT:??_7StyledWriter@Json@@6B@
	mov	rdi, rcx
	mov	QWORD PTR [rcx], rax
	mov	ebx, edx
	add	rcx, 64					; 00000040H
	call	??1?$basic_string@DU?$char_traits@D@std@@V?$allocator@D@2@@std@@QEAA@XZ ; std::basic_string<char,std::char_traits<char>,std::allocator<char> >::~basic_string<char,std::char_traits<char>,std::allocator<char> >
	lea	rcx, QWORD PTR [rdi+32]
	call	??1?$basic_string@DU?$char_traits@D@std@@V?$allocator@D@2@@std@@QEAA@XZ ; std::basic_string<char,std::char_traits<char>,std::allocator<char> >::~basic_string<char,std::char_traits<char>,std::allocator<char> >
	lea	rcx, QWORD PTR [rdi+8]
	call	??1?$vector@V?$basic_string@DU?$char_traits@D@std@@V?$allocator@D@2@@std@@V?$allocator@V?$basic_string@DU?$char_traits@D@std@@V?$allocator@D@2@@std@@@2@@std@@QEAA@XZ ; std::vector<std::basic_string<char,std::char_traits<char>,std::allocator<char> >,std::allocator<std::basic_string<char,std::char_traits<char>,std::allocator<char> > > >::~vector<std::basic_string<char,std::char_traits<char>,std::allocator<char> >,std::allocator<std::basic_string<char,std::char_traits<char>,std::allocator<char> > > >
; File d:\code\libshared\jsoncpp-src-0.5.0\src\lib_json\json_writer.cpp

	lea	rax, OFFSET FLAT:??_7Writer@Json@@6B@
	mov	QWORD PTR [rdi], rax
	test	bl, 1
	je	SHORT $LN9@scalar
	mov	edx, 112				; 00000070H
	mov	rcx, rdi
	call	??3@YAXPEAX_K@Z				; operator delete
$LN9@scalar:
	mov	rbx, QWORD PTR [rsp+48]
	mov	rax, rdi
	add	rsp, 32					; 00000020H
	pop	rdi
	ret	0
??_GStyledWriter@Json@@UEAAPEAXI@Z ENDP			; Json::StyledWriter::`scalar deleting destructor'
_TEXT	ENDS
; Function compile flags: /Ogtpy
; File d:\code\libshared\jsoncpp-src-0.5.0\src\lib_json\json_writer.cpp
;	COMDAT ?isControlCharacter@Json@@YA_ND@Z
_TEXT	SEGMENT
ch$ = 8
?isControlCharacter@Json@@YA_ND@Z PROC			; Json::isControlCharacter, COMDAT

	dec	cl
	cmp	cl, 30
	setbe	al

	ret	0
?isControlCharacter@Json@@YA_ND@Z ENDP			; Json::isControlCharacter
_TEXT	ENDS
; Function compile flags: /Ogtpy
; File d:\code\libshared\jsoncpp-src-0.5.0\src\lib_json\json_writer.cpp
;	COMDAT ?containsControlCharacter@Json@@YA_NPEBD@Z
_TEXT	SEGMENT
str$ = 8
?containsControlCharacter@Json@@YA_NPEBD@Z PROC		; Json::containsControlCharacter, COMDAT

	movzx	eax, BYTE PTR [rcx]
	test	al, al
	je	SHORT $LN3@containsCo
	npad	9
$LL2@containsCo:

	dec	al

	lea	rcx, QWORD PTR [rcx+1]
	cmp	al, 30
	jbe	SHORT $LN11@containsCo

	movzx	eax, BYTE PTR [rcx]
	test	al, al
	jne	SHORT $LL2@containsCo
$LN3@containsCo:

	xor	al, al

	ret	0
$LN11@containsCo:

	mov	al, 1

	ret	0
?containsControlCharacter@Json@@YA_NPEBD@Z ENDP		; Json::containsControlCharacter
_TEXT	ENDS
; Function compile flags: /Ogtpy
; File d:\code\libshared\jsoncpp-src-0.5.0\src\lib_json\json_writer.cpp
;	COMDAT ?uintToString@Json@@YAXIAEAPEAD@Z
_TEXT	SEGMENT
value$ = 8
current$ = 16
?uintToString@Json@@YAXIAEAPEAD@Z PROC			; Json::uintToString, COMDAT

	mov	r9, QWORD PTR [rdx]
	mov	r10, rdx
	dec	r9
	mov	BYTE PTR [r9], 0
	npad	3
$LL4@uintToStri:

	dec	r9
	mov	eax, -858993459				; cccccccdH
	mul	ecx
	shr	edx, 3
	movzx	eax, dl
	shl	al, 2
	lea	r8d, DWORD PTR [rax+rdx]
	add	r8b, r8b
	sub	cl, r8b
	add	cl, 48					; 00000030H
	mov	BYTE PTR [r9], cl

	mov	ecx, edx

	test	edx, edx
	jne	SHORT $LL4@uintToStri

	mov	QWORD PTR [r10], r9
	ret	0
?uintToString@Json@@YAXIAEAPEAD@Z ENDP			; Json::uintToString
_TEXT	ENDS
; Function compile flags: /Ogtpy
; File d:\code\libshared\jsoncpp-src-0.5.0\src\lib_json\json_writer.cpp
;	COMDAT ?valueToString@Json@@YA?AV?$basic_string@DU?$char_traits@D@std@@V?$allocator@D@2@@std@@H@Z
_TEXT	SEGMENT
__$ReturnUdt$GSCopy$ = 32
buffer$ = 40
__$ArrayPad$ = 72
__$ReturnUdt$ = 96
value$ = 104
?valueToString@Json@@YA?AV?$basic_string@DU?$char_traits@D@std@@V?$allocator@D@2@@std@@H@Z PROC ; Json::valueToString, COMDAT

$LN17:
	push	rbx
	sub	rsp, 80					; 00000050H
	mov	rax, QWORD PTR __security_cookie
	xor	rax, rsp
	mov	QWORD PTR __$ArrayPad$[rsp], rax
	mov	rbx, rcx
	mov	QWORD PTR __$ReturnUdt$GSCopy$[rsp], rcx

	mov	ecx, edx

	mov	BYTE PTR buffer$[rsp+31], 0

	neg	ecx

	lea	r9, QWORD PTR buffer$[rsp+31]

	mov	r10d, edx
	shr	r10d, 31

	test	r10b, r10b
	cmove	ecx, edx
	npad	8
$LL10@valueToStr:

	dec	r9
	mov	eax, -858993459				; cccccccdH
	mul	ecx
	shr	edx, 3
	movzx	eax, dl
	shl	al, 2
	lea	r8d, DWORD PTR [rax+rdx]
	add	r8b, r8b
	sub	cl, r8b
	add	cl, 48					; 00000030H
	mov	BYTE PTR [r9], cl

	mov	ecx, edx

	test	edx, edx
	jne	SHORT $LL10@valueToStr

	test	r10b, r10b
	je	SHORT $LN3@valueToStr

	dec	r9
	mov	BYTE PTR [r9], 45			; 0000002dH
$LN3@valueToStr:

	mov	rdx, r9
	mov	rcx, rbx
	call	??0?$basic_string@DU?$char_traits@D@std@@V?$allocator@D@2@@std@@QEAA@QEBD@Z ; std::basic_string<char,std::char_traits<char>,std::allocator<char> >::basic_string<char,std::char_traits<char>,std::allocator<char> >
	mov	rax, rbx

	mov	rcx, QWORD PTR __$ArrayPad$[rsp]
	xor	rcx, rsp
	call	__security_check_cookie
	add	rsp, 80					; 00000050H
	pop	rbx
	ret	0
?valueToString@Json@@YA?AV?$basic_string@DU?$char_traits@D@std@@V?$allocator@D@2@@std@@H@Z ENDP ; Json::valueToString
_TEXT	ENDS
; Function compile flags: /Ogtpy
; File d:\code\libshared\jsoncpp-src-0.5.0\src\lib_json\json_writer.cpp
;	COMDAT ?valueToString@Json@@YA?AV?$basic_string@DU?$char_traits@D@std@@V?$allocator@D@2@@std@@I@Z
_TEXT	SEGMENT
__$ReturnUdt$GSCopy$ = 32
buffer$ = 40
__$ArrayPad$ = 72
__$ReturnUdt$ = 96
value$ = 104
?valueToString@Json@@YA?AV?$basic_string@DU?$char_traits@D@std@@V?$allocator@D@2@@std@@I@Z PROC ; Json::valueToString, COMDAT

$LN15:
	push	rbx
	sub	rsp, 80					; 00000050H
	mov	rax, QWORD PTR __security_cookie
	xor	rax, rsp
	mov	QWORD PTR __$ArrayPad$[rsp], rax
	mov	r8d, edx
	mov	QWORD PTR __$ReturnUdt$GSCopy$[rsp], rcx
	mov	rbx, rcx

	mov	BYTE PTR buffer$[rsp+31], 0
	lea	r9, QWORD PTR buffer$[rsp+31]
	npad	6
$LL8@valueToStr:

	dec	r9
	mov	eax, -858993459				; cccccccdH
	mul	r8d
	shr	edx, 3
	movzx	eax, dl
	shl	al, 2
	lea	ecx, DWORD PTR [rax+rdx]
	add	cl, cl
	sub	r8b, cl
	add	r8b, 48					; 00000030H
	mov	BYTE PTR [r9], r8b

	mov	r8d, edx

	test	edx, edx
	jne	SHORT $LL8@valueToStr

	mov	rdx, r9
	mov	rcx, rbx
	call	??0?$basic_string@DU?$char_traits@D@std@@V?$allocator@D@2@@std@@QEAA@QEBD@Z ; std::basic_string<char,std::char_traits<char>,std::allocator<char> >::basic_string<char,std::char_traits<char>,std::allocator<char> >
	mov	rax, rbx

	mov	rcx, QWORD PTR __$ArrayPad$[rsp]
	xor	rcx, rsp
	call	__security_check_cookie
	add	rsp, 80					; 00000050H
	pop	rbx
	ret	0
?valueToString@Json@@YA?AV?$basic_string@DU?$char_traits@D@std@@V?$allocator@D@2@@std@@I@Z ENDP ; Json::valueToString
_TEXT	ENDS
; Function compile flags: /Ogtpy
; File d:\code\libshared\jsoncpp-src-0.5.0\src\lib_json\json_writer.cpp
;	COMDAT ?valueToString@Json@@YA?AV?$basic_string@DU?$char_traits@D@std@@V?$allocator@D@2@@std@@N@Z
_TEXT	SEGMENT
__$ReturnUdt$GSCopy$ = 32
buffer$ = 40
__$ArrayPad$ = 72
__$ReturnUdt$ = 96
value$ = 104
?valueToString@Json@@YA?AV?$basic_string@DU?$char_traits@D@std@@V?$allocator@D@2@@std@@N@Z PROC ; Json::valueToString, COMDAT

$LN28:
	push	rbx
	sub	rsp, 80					; 00000050H
	mov	rax, QWORD PTR __security_cookie
	xor	rax, rsp
	mov	QWORD PTR __$ArrayPad$[rsp], rax

	movaps	xmm3, xmm1
	mov	QWORD PTR __$ReturnUdt$GSCopy$[rsp], rcx
	mov	rbx, rcx
	lea	r8, OFFSET FLAT:??_C@_06ECBCCLMB@?$CF?$CD?416g@
	movq	r9, xmm3
	lea	rcx, QWORD PTR buffer$[rsp]
	mov	edx, 32					; 00000020H
	call	sprintf_s

	lea	rax, QWORD PTR buffer$[rsp]
	mov	rcx, -1
$LL24@valueToStr:
	inc	rcx
	cmp	BYTE PTR [rax+rcx], 0
	jne	SHORT $LL24@valueToStr
	lea	rax, QWORD PTR buffer$[rsp]
	dec	rax
	add	rcx, rax

	cmp	BYTE PTR [rcx], 48			; 00000030H
	jne	SHORT $LN5@valueToStr

	lea	rax, QWORD PTR buffer$[rsp]
	cmp	rcx, rax
	jbe	SHORT $LN25@valueToStr
	npad	6
$LL2@valueToStr:
	cmp	BYTE PTR [rcx], 48			; 00000030H
	jne	SHORT $LN25@valueToStr

	dec	rcx
	lea	rax, QWORD PTR buffer$[rsp]
	cmp	rcx, rax
	ja	SHORT $LL2@valueToStr
$LN25@valueToStr:

	lea	rax, QWORD PTR buffer$[rsp]
	mov	rdx, rcx
	cmp	rcx, rax
	jb	SHORT $LN5@valueToStr
	npad	1
$LL4@valueToStr:

	movzx	eax, BYTE PTR [rcx]
	cmp	al, 46					; 0000002eH
	je	SHORT $LN10@valueToStr
	sub	al, 48					; 00000030H
	cmp	al, 9
	ja	SHORT $LN5@valueToStr

	dec	rcx
	lea	rax, QWORD PTR buffer$[rsp]
	cmp	rcx, rax
	jae	SHORT $LL4@valueToStr

	jmp	SHORT $LN5@valueToStr
$LN10@valueToStr:

	mov	BYTE PTR [rdx+2], 0
$LN5@valueToStr:

	lea	rdx, QWORD PTR buffer$[rsp]
	mov	rcx, rbx
	call	??0?$basic_string@DU?$char_traits@D@std@@V?$allocator@D@2@@std@@QEAA@QEBD@Z ; std::basic_string<char,std::char_traits<char>,std::allocator<char> >::basic_string<char,std::char_traits<char>,std::allocator<char> >
	mov	rax, rbx
	mov	rcx, QWORD PTR __$ArrayPad$[rsp]
	xor	rcx, rsp
	call	__security_check_cookie
	add	rsp, 80					; 00000050H
	pop	rbx
	ret	0
?valueToString@Json@@YA?AV?$basic_string@DU?$char_traits@D@std@@V?$allocator@D@2@@std@@N@Z ENDP ; Json::valueToString
_TEXT	ENDS
; Function compile flags: /Ogtpy
; File d:\code\libshared\jsoncpp-src-0.5.0\src\lib_json\json_writer.cpp
;	COMDAT ?valueToString@Json@@YA?AV?$basic_string@DU?$char_traits@D@std@@V?$allocator@D@2@@std@@_N@Z
_TEXT	SEGMENT
__$ReturnUdt$ = 48
value$ = 56
?valueToString@Json@@YA?AV?$basic_string@DU?$char_traits@D@std@@V?$allocator@D@2@@std@@_N@Z PROC ; Json::valueToString, COMDAT

$LN7:
	push	rbx
	sub	rsp, 32					; 00000020H
	movzx	eax, dl
	mov	rbx, rcx

	test	al, al
	lea	rcx, OFFSET FLAT:??_C@_04LOAJBDKD@true@
	lea	rdx, OFFSET FLAT:??_C@_05LAPONLG@false@
	cmovne	rdx, rcx
	mov	rcx, rbx
	call	??0?$basic_string@DU?$char_traits@D@std@@V?$allocator@D@2@@std@@QEAA@QEBD@Z ; std::basic_string<char,std::char_traits<char>,std::allocator<char> >::basic_string<char,std::char_traits<char>,std::allocator<char> >
	mov	rax, rbx

	add	rsp, 32					; 00000020H
	pop	rbx
	ret	0
?valueToString@Json@@YA?AV?$basic_string@DU?$char_traits@D@std@@V?$allocator@D@2@@std@@_N@Z ENDP ; Json::valueToString
_TEXT	ENDS
; Function compile flags: /Ogtpy
; File d:\code\libshared\jsoncpp-src-0.5.0\src\lib_json\json_writer.cpp
; File c:\program files (x86)\microsoft visual studio\2017\enterprise\vc\tools\msvc\14.16.27023\include\sstream
; File d:\code\libshared\jsoncpp-src-0.5.0\src\lib_json\json_writer.cpp
; File c:\program files (x86)\microsoft visual studio\2017\enterprise\vc\tools\msvc\14.16.27023\include\iomanip
; File c:\program files (x86)\microsoft visual studio\2017\enterprise\vc\tools\msvc\14.16.27023\include\ios
; File d:\code\libshared\jsoncpp-src-0.5.0\src\lib_json\json_writer.cpp
; File c:\program files (x86)\microsoft visual studio\2017\enterprise\vc\tools\msvc\14.16.27023\include\iomanip
; File d:\code\libshared\jsoncpp-src-0.5.0\src\lib_json\json_writer.cpp
; File c:\program files (x86)\microsoft visual studio\2017\enterprise\vc\tools\msvc\14.16.27023\include\sstream
; File c:\program files (x86)\microsoft visual studio\2017\enterprise\vc\tools\msvc\14.16.27023\include\streambuf
; File c:\program files (x86)\microsoft visual studio\2017\enterprise\vc\tools\msvc\14.16.27023\include\sstream
; File c:\program files (x86)\microsoft visual studio\2017\enterprise\vc\tools\msvc\14.16.27023\include\streambuf
; File c:\program files (x86)\microsoft visual studio\2017\enterprise\vc\tools\msvc\14.16.27023\include\sstream
; File c:\program files (x86)\microsoft visual studio\2017\enterprise\vc\tools\msvc\14.16.27023\include\streambuf
; File c:\program files (x86)\microsoft visual studio\2017\enterprise\vc\tools\msvc\14.16.27023\include\sstream
; File c:\program files (x86)\microsoft visual studio\2017\enterprise\vc\tools\msvc\14.16.27023\include\streambuf
; File c:\program files (x86)\microsoft visual studio\2017\enterprise\vc\tools\msvc\14.16.27023\include\sstream
; File d:\code\libshared\jsoncpp-src-0.5.0\src\lib_json\json_writer.cpp
; File c:\program files (x86)\microsoft visual studio\2017\enterprise\vc\tools\msvc\14.16.27023\include\sstream
; File d:\code\libshared\jsoncpp-src-0.5.0\src\lib_json\json_writer.cpp
;	COMDAT ?valueToQuotedString@Json@@YA?AV?$basic_string@DU?$char_traits@D@std@@V?$allocator@D@2@@std@@PEBD@Z
_TEXT	SEGMENT
$T1 = 32
__$ReturnUdt$GSCopy$1$ = 40
__$ReturnUdt$GSCopy$ = 48
oss$15 = 64
$T16 = 304
result$ = 312
$T8 = 344
$T5 = 344
$T7 = 376
$T4 = 376
__$ArrayPad$ = 408
__$ReturnUdt$ = 480
value$ = 488
?valueToQuotedString@Json@@YA?AV?$basic_string@DU?$char_traits@D@std@@V?$allocator@D@2@@std@@PEBD@Z PROC ; Json::valueToQuotedString, COMDAT

$LN111:
	push	rbp
	push	rsi
	push	rdi
	push	r12
	push	r13
	push	r14
	push	r15
	lea	rbp, QWORD PTR [rsp-160]
	sub	rsp, 416				; 000001a0H
	mov	QWORD PTR $T16[rbp-256], -2
	mov	QWORD PTR [rsp+496], rbx
	mov	rax, QWORD PTR __security_cookie
	xor	rax, rsp
	mov	QWORD PTR __$ArrayPad$[rbp-256], rax
	mov	rdi, rdx
	mov	r14, rcx
	mov	QWORD PTR __$ReturnUdt$GSCopy$1$[rsp], rcx
	mov	QWORD PTR __$ReturnUdt$GSCopy$[rsp], rcx
	xor	esi, esi
	mov	DWORD PTR $T1[rsp], esi

	lea	rdx, OFFSET FLAT:??_C@_07FKPPGBGM@?$CC?2?$AI?$AM?6?$AN?7@
	mov	rcx, rdi
	call	QWORD PTR __imp_strpbrk
	test	rax, rax
	jne	SHORT $LN7@valueToQuo
	mov	rcx, rdi

	movzx	eax, BYTE PTR [rdi]
	test	al, al
	je	SHORT $LN28@valueToQuo
$LL27@valueToQuo:

	dec	al

	lea	rcx, QWORD PTR [rcx+1]
	cmp	al, 30
	jbe	SHORT $LN7@valueToQuo

	movzx	eax, BYTE PTR [rcx]
	test	al, al
	jne	SHORT $LL27@valueToQuo
$LN28@valueToQuo:

	lea	rdx, OFFSET FLAT:??_C@_01BJJEKLCA@?$CC@
	lea	rcx, QWORD PTR $T4[rbp-256]
	call	??0?$basic_string@DU?$char_traits@D@std@@V?$allocator@D@2@@std@@QEAA@QEBD@Z ; std::basic_string<char,std::char_traits<char>,std::allocator<char> >::basic_string<char,std::char_traits<char>,std::allocator<char> >
	npad	1
	mov	r8, rdi
	mov	rdx, rax
	lea	rcx, QWORD PTR $T5[rbp-256]
	call	??$?HDU?$char_traits@D@std@@V?$allocator@D@1@@std@@YA?AV?$basic_string@DU?$char_traits@D@std@@V?$allocator@D@2@@0@$$QEAV10@QEBD@Z ; std::operator+<char,std::char_traits<char>,std::allocator<char> >
	npad	1
	lea	r8, OFFSET FLAT:??_C@_01BJJEKLCA@?$CC@
	mov	rdx, rax
	mov	rcx, r14
	call	??$?HDU?$char_traits@D@std@@V?$allocator@D@1@@std@@YA?AV?$basic_string@DU?$char_traits@D@std@@V?$allocator@D@2@@0@$$QEAV10@QEBD@Z ; std::operator+<char,std::char_traits<char>,std::allocator<char> >
	npad	1
	lea	rcx, QWORD PTR $T5[rbp-256]
	call	??1?$basic_string@DU?$char_traits@D@std@@V?$allocator@D@2@@std@@QEAA@XZ ; std::basic_string<char,std::char_traits<char>,std::allocator<char> >::~basic_string<char,std::char_traits<char>,std::allocator<char> >
	npad	1
	lea	rcx, QWORD PTR $T4[rbp-256]
	jmp	$LN107@valueToQuo
$LN7@valueToQuo:

	mov	rax, -1
$LL106@valueToQuo:
	lea	rax, QWORD PTR [rax+1]
	cmp	BYTE PTR [rdi+rax], sil
	jne	SHORT $LL106@valueToQuo
	lea	ebx, DWORD PTR [rax*2+3]

	lea	rcx, QWORD PTR result$[rbp-256]
	call	??0?$basic_string@DU?$char_traits@D@std@@V?$allocator@D@2@@std@@QEAA@XZ ; std::basic_string<char,std::char_traits<char>,std::allocator<char> >::basic_string<char,std::char_traits<char>,std::allocator<char> >
	npad	1

	mov	edx, ebx
	lea	rcx, QWORD PTR result$[rbp-256]
	call	?reserve@?$basic_string@DU?$char_traits@D@std@@V?$allocator@D@2@@std@@QEAAX_K@Z ; std::basic_string<char,std::char_traits<char>,std::allocator<char> >::reserve

	lea	rdx, OFFSET FLAT:??_C@_01BJJEKLCA@?$CC@
	lea	rcx, QWORD PTR result$[rbp-256]
	call	??Y?$basic_string@DU?$char_traits@D@std@@V?$allocator@D@2@@std@@QEAAAEAV01@QEBD@Z ; std::basic_string<char,std::char_traits<char>,std::allocator<char> >::operator+=

	movzx	edx, BYTE PTR [rdi]
	test	dl, dl
	je	$LN3@valueToQuo
	lea	r12, OFFSET FLAT:__ImageBase
	lea	r13, OFFSET FLAT:??_7?$basic_ostringstream@DU?$char_traits@D@std@@V?$allocator@D@2@@std@@6B@
	lea	r14, OFFSET FLAT:??_7?$basic_stringbuf@DU?$char_traits@D@std@@V?$allocator@D@2@@std@@6B@
	npad	10
$LL4@valueToQuo:

	movsx	eax, dl
	add	eax, -8
	cmp	eax, 84					; 00000054H
	ja	$LN15@valueToQuo
	cdqe
	movzx	eax, BYTE PTR $LN104@valueToQuo[r12+rax]
	mov	ecx, DWORD PTR $LN105@valueToQuo[r12+rax*4]
	add	rcx, r12
	jmp	rcx
$LN8@valueToQuo:

	lea	rdx, OFFSET FLAT:??_C@_02MCKKLHBJ@?2?$CC@
	lea	rcx, QWORD PTR result$[rbp-256]
	call	??Y?$basic_string@DU?$char_traits@D@std@@V?$allocator@D@2@@std@@QEAAAEAV01@QEBD@Z ; std::basic_string<char,std::char_traits<char>,std::allocator<char> >::operator+=

	jmp	$LN2@valueToQuo
$LN9@valueToQuo:

	lea	rdx, OFFSET FLAT:??_C@_02HDBGODGB@?2?2@
	lea	rcx, QWORD PTR result$[rbp-256]
	call	??Y?$basic_string@DU?$char_traits@D@std@@V?$allocator@D@2@@std@@QEAAAEAV01@QEBD@Z ; std::basic_string<char,std::char_traits<char>,std::allocator<char> >::operator+=

	jmp	$LN2@valueToQuo
$LN10@valueToQuo:

	lea	rdx, OFFSET FLAT:??_C@_02DCNDPIBM@?2b@
	lea	rcx, QWORD PTR result$[rbp-256]
	call	??Y?$basic_string@DU?$char_traits@D@std@@V?$allocator@D@2@@std@@QEAAAEAV01@QEBD@Z ; std::basic_string<char,std::char_traits<char>,std::allocator<char> >::operator+=

	jmp	$LN2@valueToQuo
$LN11@valueToQuo:

	lea	rdx, OFFSET FLAT:??_C@_02FGLPDNBI@?2f@
	lea	rcx, QWORD PTR result$[rbp-256]
	call	??Y?$basic_string@DU?$char_traits@D@std@@V?$allocator@D@2@@std@@QEAAAEAV01@QEBD@Z ; std::basic_string<char,std::char_traits<char>,std::allocator<char> >::operator+=

	jmp	$LN2@valueToQuo
$LN12@valueToQuo:

	lea	rdx, OFFSET FLAT:??_C@_02JOGGLHBA@?2n@
	lea	rcx, QWORD PTR result$[rbp-256]
	call	??Y?$basic_string@DU?$char_traits@D@std@@V?$allocator@D@2@@std@@QEAAAEAV01@QEBD@Z ; std::basic_string<char,std::char_traits<char>,std::allocator<char> >::operator+=

	jmp	$LN2@valueToQuo
$LN13@valueToQuo:

	lea	rdx, OFFSET FLAT:??_C@_02HIBBOKEN@?2r@
	lea	rcx, QWORD PTR result$[rbp-256]
	call	??Y?$basic_string@DU?$char_traits@D@std@@V?$allocator@D@2@@std@@QEAAAEAV01@QEBD@Z ; std::basic_string<char,std::char_traits<char>,std::allocator<char> >::operator+=

	jmp	$LN2@valueToQuo
$LN14@valueToQuo:

	lea	rdx, OFFSET FLAT:??_C@_02COELENML@?2t@
	lea	rcx, QWORD PTR result$[rbp-256]
	call	??Y?$basic_string@DU?$char_traits@D@std@@V?$allocator@D@2@@std@@QEAAAEAV01@QEBD@Z ; std::basic_string<char,std::char_traits<char>,std::allocator<char> >::operator+=

	jmp	$LN2@valueToQuo
$LN15@valueToQuo:

	lea	eax, DWORD PTR [rdx-1]

	cmp	al, 30
	ja	$LN16@valueToQuo
; File c:\program files (x86)\microsoft visual studio\2017\enterprise\vc\tools\msvc\14.16.27023\include\sstream

; 570  : 		{	// construct empty writable character buffer

	lea	rax, QWORD PTR ??_8?$basic_ostringstream@DU?$char_traits@D@std@@V?$allocator@D@2@@std@@7B@[r12]
	mov	QWORD PTR oss$15[rsp], rax
	lea	rcx, QWORD PTR oss$15[rbp-120]
	call	QWORD PTR __imp_??0?$basic_ios@DU?$char_traits@D@std@@@std@@IEAA@XZ
	npad	1
	or	esi, 2
	mov	DWORD PTR $T1[rsp], esi
	mov	r15d, esi

; 109  : 		}
; 110  : 
; 111  : 	void str(const _Mystr& _Newstr)
; 112  : 		{	// replace character array from string
; 113  : 		_Tidy();
; 114  : 		_Init(_Newstr.c_str(), _Newstr.size(), _Mystate);
; 115  : 		}
; 116  : 
; 117  : protected:
; 118  : 	virtual int_type overflow(int_type _Meta = _Traits::eof())
; 119  : 		{	// put an element to stream
; 120  : 		if (_Mystate & _Constant)
; 121  : 			{
; 122  : 			return (_Traits::eof());	// array nonmutable, fail
; 123  : 			}
; 124  : 
; 125  : 		if (_Traits::eq_int_type(_Traits::eof(), _Meta))
; 126  : 			{
; 127  : 			return (_Traits::not_eof(_Meta));	// EOF, return success code
; 128  : 			}
; 129  : 
; 130  : 		const auto _Pptr = _Mysb::pptr();
; 131  : 		const auto _Epptr = _Mysb::epptr();
; 132  : 		if (_Pptr != nullptr && _Pptr < _Epptr)
; 133  : 			{	// room in buffer, store it
; 134  : 			*_Mysb::_Pninc() = _Traits::to_char_type(_Meta);
; 135  : 			_Seekhigh = _Pptr + 1;
; 136  : 			return (_Meta);
; 137  : 			}
; 138  : 
; 139  : 		// grow buffer and store element
; 140  : 		size_t _Oldsize = 0;
; 141  : 		const auto _Oldptr = _Mysb::eback();
; 142  : 		if (_Pptr != nullptr)
; 143  : 			{
; 144  : 			_Oldsize = static_cast<size_t>(_Epptr - _Oldptr);
; 145  : 			}
; 146  : 
; 147  : 		size_t _Newsize;
; 148  : 		if (_Oldsize < _MINSIZE)
; 149  : 			{
; 150  : 			_Newsize = _MINSIZE;
; 151  : 			}
; 152  : 		else if (_Oldsize < INT_MAX / 2)
; 153  : 			{	// grow by 50 percent
; 154  : 			_Newsize = _Oldsize << 1;
; 155  : 			}
; 156  : 		else if (_Oldsize < INT_MAX)
; 157  : 			{
; 158  : 			_Newsize = INT_MAX;
; 159  : 			}
; 160  : 		else
; 161  : 			{	// buffer can't grow, fail
; 162  : 			return (_Traits::eof());
; 163  : 			}
; 164  : 
; 165  : 		const auto _Newptr = _Unfancy(_Al.allocate(_Newsize));
; 166  : 		_Traits::copy(_Newptr, _Oldptr, _Oldsize);
; 167  : 
; 168  : 		const auto _New_pnext = _Newptr + _Oldsize;
; 169  : 		_Seekhigh = _New_pnext + 1; // to include _Meta
; 170  : 
; 171  : 		_Mysb::setp(_Newptr, _New_pnext, _Newptr + _Newsize);
; 172  : 		if (_Mystate & _Noread)
; 173  : 			{	// maintain eback() == allocated pointer invariant
; 174  : 			_Mysb::setg(_Newptr, nullptr, _Newptr);
; 175  : 			}
; 176  : 		else
; 177  : 			{	// if readable, set the get area to initialized region
; 178  : 			_Mysb::setg(_Newptr,
; 179  : 				_Newptr + (_Mysb::gptr() - _Oldptr),
; 180  : 				_Seekhigh);
; 181  : 			}
; 182  : 
; 183  : 		if (_Mystate & _Allocated)
; 184  : 			{
; 185  : 			_Al.deallocate(_Ptr_traits::pointer_to(*_Oldptr), _Oldsize);
; 186  : 			}
; 187  : 
; 188  : 		_Mystate |= _Allocated;
; 189  : 		*_Mysb::_Pninc() = _Traits::to_char_type(_Meta);
; 190  : 		return (_Meta);
; 191  : 		}
; 192  : 
; 193  : 	virtual int_type pbackfail(int_type _Meta = _Traits::eof())
; 194  : 		{	// put an element back to stream
; 195  : 		const auto _Gptr = _Mysb::gptr();
; 196  : 		if (_Gptr == nullptr
; 197  : 			|| _Gptr <= _Mysb::eback()
; 198  : 			|| (!_Traits::eq_int_type(_Traits::eof(), _Meta)
; 199  : 				&& !_Traits::eq(_Traits::to_char_type(_Meta), _Gptr[-1])
; 200  : 				&& (_Mystate & _Constant)))
; 201  : 			{	// can't put back, fail
; 202  : 			return (_Traits::eof());
; 203  : 			}
; 204  : 
; 205  : 		// back up one position and store put-back character
; 206  : 		_Mysb::gbump(-1);
; 207  : 		if (!_Traits::eq_int_type(_Traits::eof(), _Meta))
; 208  : 			{
; 209  : 			*_Mysb::gptr() = _Traits::to_char_type(_Meta);
; 210  : 			}
; 211  : 
; 212  : 		return (_Traits::not_eof(_Meta));
; 213  : 		}
; 214  : 
; 215  : 	virtual int_type underflow()
; 216  : 		{	// get an element from stream, but don't point past it
; 217  : 		const auto _Gptr = _Mysb::gptr();
; 218  : 		if (_Gptr == nullptr)
; 219  : 			{	// no character buffer, fail
; 220  : 			return (_Traits::eof());
; 221  : 			}
; 222  : 
; 223  : 		if (_Gptr < _Mysb::egptr())
; 224  : 			{	// return buffered
; 225  : 			return (_Traits::to_int_type(*_Gptr));
; 226  : 			}
; 227  : 
; 228  : 		// try to add initialized characters from the put area into the get area
; 229  : 		const auto _Pptr = _Mysb::pptr();
; 230  : 		if (!_Pptr || (_Mystate & _Noread))
; 231  : 			{	// no put area or read disallowed
; 232  : 			return (_Traits::eof());
; 233  : 			}
; 234  : 
; 235  : 		const auto _Local_highwater = _Max_value(_Seekhigh, _Pptr);
; 236  : 		if (_Local_highwater <= _Gptr)
; 237  : 			{	// nothing in the put area to take
; 238  : 			return (_Traits::eof());
; 239  : 			}
; 240  : 
; 241  : 		_Seekhigh = _Local_highwater;
; 242  : 		_Mysb::setg(_Mysb::eback(), _Mysb::gptr(), _Local_highwater);
; 243  : 		return (_Traits::to_int_type(*_Mysb::gptr()));
; 244  : 		}
; 245  : 
; 246  : 	virtual pos_type seekoff(off_type _Off,
; 247  : 		ios_base::seekdir _Way,
; 248  : 		ios_base::openmode _Mode = ios_base::in | ios_base::out)
; 249  : 		{	// change position by _Off, according to _Way, _Mode
; 250  : 		const auto _Gptr_old = _Mysb::gptr();
; 251  : 		const auto _Pptr_old = _Mysb::pptr();
; 252  : 		if (_Pptr_old != nullptr && _Seekhigh < _Pptr_old)
; 253  : 			{	// update high-water pointer
; 254  : 			_Seekhigh = _Pptr_old;
; 255  : 			}
; 256  : 
; 257  : 		const auto _Seeklow = _Mysb::eback();
; 258  : 		const auto _Seekdist = _Seekhigh - _Seeklow;
; 259  : 		off_type _Newoff;
; 260  : 		switch (_Way)
; 261  : 			{
; 262  : 			case ios_base::beg:
; 263  : 				_Newoff = 0;
; 264  : 				break;
; 265  : 			case ios_base::end:
; 266  : 				_Newoff = _Seekdist;
; 267  : 				break;
; 268  : 			case ios_base::cur:
; 269  : 				{
; 270  : 				constexpr auto _Both = ios_base::in | ios_base::out;
; 271  : 				if ((_Mode & _Both) != _Both)
; 272  : 					{	// prohibited by N4727 [stringbuf.virtuals] Table 107 "seekoff positioning"
; 273  : 					if (_Mode & ios_base::in)
; 274  : 						{
; 275  : 						if (_Gptr_old != nullptr || _Seeklow == nullptr)
; 276  : 							{
; 277  : 							_Newoff = _Gptr_old - _Seeklow;
; 278  : 							break;
; 279  : 							}
; 280  : 						}
; 281  : 					else if ((_Mode & ios_base::out) && (_Pptr_old != nullptr || _Seeklow == nullptr))
; 282  : 						{
; 283  : 						_Newoff = _Pptr_old - _Seeklow;
; 284  : 						break;
; 285  : 						}
; 286  : 					}
; 287  : 				}
; 288  : 
; 289  : 				// fallthrough
; 290  : 			default:
; 291  : 				return (pos_type(off_type(-1)));
; 292  : 			}
; 293  : 
; 294  : 		if (static_cast<unsigned long long>(_Off) + _Newoff > static_cast<unsigned long long>(_Seekdist))
; 295  : 			{
; 296  : 			return (pos_type(off_type(-1)));
; 297  : 			}
; 298  : 
; 299  : 		_Off += _Newoff;
; 300  : 		if (_Off != 0
; 301  : 			&& (((_Mode & ios_base::in) && _Gptr_old == nullptr)
; 302  : 				|| ((_Mode & ios_base::out) && _Pptr_old == nullptr)))
; 303  : 			{
; 304  : 			return (pos_type(off_type(-1)));
; 305  : 			}
; 306  : 
; 307  : 		const auto _Newptr = _Seeklow + _Off;	// may perform nullptr + 0
; 308  : 		if ((_Mode & ios_base::in) && _Gptr_old != nullptr)
; 309  : 			{
; 310  : 			_Mysb::setg(_Seeklow, _Newptr, _Seekhigh);
; 311  : 			}
; 312  : 
; 313  : 		if ((_Mode & ios_base::out) && _Pptr_old != nullptr)
; 314  : 			{
; 315  : 			_Mysb::setp(_Seeklow, _Newptr, _Mysb::epptr());
; 316  : 			}
; 317  : 
; 318  : 		return (pos_type(_Off));
; 319  : 		}
; 320  : 
; 321  : 	virtual pos_type seekpos(pos_type _Pos,
; 322  : 		ios_base::openmode _Mode = ios_base::in | ios_base::out)
; 323  : 		{	// change position to _Pos, according to _Mode
; 324  : 		const auto _Off = static_cast<streamoff>(_Pos);
; 325  : 		const auto _Gptr_old = _Mysb::gptr();
; 326  : 		const auto _Pptr_old = _Mysb::pptr();
; 327  : 		if (_Pptr_old != nullptr && _Seekhigh < _Pptr_old)
; 328  : 			{	// update high-water pointer
; 329  : 			_Seekhigh = _Pptr_old;
; 330  : 			}
; 331  : 
; 332  : 		const auto _Seeklow = _Mysb::eback();
; 333  : 		const auto _Seekdist = _Seekhigh - _Seeklow;
; 334  : 		if (static_cast<unsigned long long>(_Off) > static_cast<unsigned long long>(_Seekdist))
; 335  : 			{
; 336  : 			return (pos_type(off_type(-1)));
; 337  : 			}
; 338  : 
; 339  : 		if (_Off != 0
; 340  : 			&& (((_Mode & ios_base::in) && _Gptr_old == nullptr)
; 341  : 				|| ((_Mode & ios_base::out) && _Pptr_old == nullptr)))
; 342  : 			{
; 343  : 			return (pos_type(off_type(-1)));
; 344  : 			}
; 345  : 
; 346  : 		const auto _Newptr = _Seeklow + _Off;	// may perform nullptr + 0
; 347  : 		if ((_Mode & ios_base::in) && _Gptr_old != nullptr)
; 348  : 			{
; 349  : 			_Mysb::setg(_Seeklow, _Newptr, _Seekhigh);
; 350  : 			}
; 351  : 
; 352  : 		if ((_Mode & ios_base::out) && _Pptr_old != nullptr)
; 353  : 			{
; 354  : 			_Mysb::setp(_Seeklow, _Newptr, _Mysb::epptr());
; 355  : 			}
; 356  : 
; 357  : 		return (pos_type(_Off));
; 358  : 		}
; 359  : 
; 360  : 	void _Init(const _Elem * _Ptr, _Mysize_type _Count, int _State)
; 361  : 		{	// initialize buffer to [_Ptr, _Ptr + _Count), set state
; 362  : 		if (_Count > INT_MAX)
; 363  : 			{	// TRANSITION, VSO#485517
; 364  : 			_Xbad_alloc();
; 365  : 			}
; 366  : 
; 367  : 		if (_Count != 0 && (_State & (_Noread | _Constant)) != (_Noread | _Constant))
; 368  : 			{	// finite buffer that can be read or written, set it up
; 369  : 			const auto _Pnew = _Unfancy(_Al.allocate(_Count));
; 370  : 			_Traits::copy(_Pnew, _Ptr, _Count);
; 371  : 			_Seekhigh = _Pnew + _Count;
; 372  : 
; 373  : 			if (!(_State & _Noread))
; 374  : 				{
; 375  : 				_Mysb::setg(_Pnew, _Pnew, _Seekhigh);	// setup read buffer
; 376  : 				}
; 377  : 
; 378  : 			if (!(_State & _Constant))
; 379  : 				{	// setup write buffer, and maybe read buffer
; 380  : 				_Mysb::setp(_Pnew,
; 381  : 					(_State & (_Atend | _Append)) ? _Seekhigh : _Pnew,
; 382  : 					_Seekhigh);
; 383  : 
; 384  : 				if (_State & _Noread)
; 385  : 					{	// maintain "_Allocated == eback() points to buffer base" invariant
; 386  : 					_Mysb::setg(_Pnew, nullptr, _Pnew);
; 387  : 					}
; 388  : 				}
; 389  : 
; 390  : 			_State |= _Allocated;
; 391  : 			}
; 392  : 		else
; 393  : 			{
; 394  : 			_Seekhigh = nullptr;
; 395  : 			}
; 396  : 
; 397  : 		_Mystate = _State;
; 398  : 		}
; 399  : 
; 400  : 	void _Tidy()
; 401  : 		{	// discard any allocated buffer and clear pointers
; 402  : 		if (_Mystate & _Allocated)
; 403  : 			{
; 404  : 			_Al.deallocate(_Ptr_traits::pointer_to(*_Mysb::eback()),
; 405  : 				static_cast<typename allocator_traits<allocator_type>::size_type>(
; 406  : 					(_Mysb::pptr() != nullptr ? _Mysb::epptr() : _Mysb::egptr()) - _Mysb::eback()));
; 407  : 			}
; 408  : 
; 409  : 		_Mysb::setg(nullptr, nullptr, nullptr);
; 410  : 		_Mysb::setp(nullptr, nullptr);
; 411  : 		_Seekhigh = nullptr;
; 412  : 		_Mystate &= ~_Allocated;
; 413  : 		}
; 414  : 
; 415  : private:
; 416  : 	using _Ptr_traits = pointer_traits<typename allocator_traits<allocator_type>::pointer>;
; 417  : 
; 418  : 	enum
; 419  : 		{	// constant for minimum buffer size
; 420  : 		_MINSIZE = 32
; 421  : 		};
; 422  : 
; 423  : 	static int _Getstate(ios_base::openmode _Mode)
; 424  : 		{	// convert open mode to stream state bits
; 425  : 		int _State = 0;
; 426  : 		if (!(_Mode & ios_base::in))
; 427  : 			{
; 428  : 			_State |= _Noread;
; 429  : 			}
; 430  : 
; 431  : 		if (!(_Mode & ios_base::out))
; 432  : 			{
; 433  : 			_State |= _Constant;
; 434  : 			}
; 435  : 
; 436  : 		if (_Mode & ios_base::app)
; 437  : 			{
; 438  : 			_State |= _Append;
; 439  : 			}
; 440  : 
; 441  : 		if (_Mode & ios_base::ate)
; 442  : 			{
; 443  : 			_State |= _Atend;
; 444  : 			}
; 445  : 
; 446  : 		return (_State);
; 447  : 		}
; 448  : 
; 449  : 	_Elem * _Seekhigh;	// the high-water pointer in character array
; 450  : 	int _Mystate;	// the stream state
; 451  : 	allocator_type _Al;	// the allocator object
; 452  : 	};
; 453  : 
; 454  : template<class _Elem,
; 455  : 	class _Traits,
; 456  : 	class _Alloc> inline
; 457  : 	void swap(basic_stringbuf<_Elem, _Traits, _Alloc>& _Left,
; 458  : 		basic_stringbuf<_Elem, _Traits, _Alloc>& _Right)
; 459  : 	{	// swap _Left and _Right basic_stringbufs
; 460  : 	_Left.swap(_Right);
; 461  : 	}
; 462  : 
; 463  : 		// CLASS TEMPLATE basic_istringstream
; 464  : template<class _Elem,
; 465  : 	class _Traits,
; 466  : 	class _Alloc>
; 467  : 	class basic_istringstream
; 468  : 		: public basic_istream<_Elem, _Traits>
; 469  : 	{	// input stream associated with a character array
; 470  : public:
; 471  : 	typedef basic_istream<_Elem, _Traits> _Mybase;
; 472  : 	typedef _Alloc allocator_type;
; 473  : 	typedef basic_stringbuf<_Elem, _Traits, _Alloc> _Mysb;
; 474  : 	typedef basic_string<_Elem, _Traits, _Alloc> _Mystr;
; 475  : 
; 476  : 	explicit basic_istringstream(ios_base::openmode _Mode = ios_base::in)
; 477  : 		: _Mybase(&_Stringbuffer),
; 478  : 			_Stringbuffer(_Mode | ios_base::in)
; 479  : 		{	// construct empty readable character buffer
; 480  : 		}
; 481  : 
; 482  : 	explicit basic_istringstream(const _Mystr& _Str,
; 483  : 		ios_base::openmode _Mode = ios_base::in)
; 484  : 		: _Mybase(&_Stringbuffer),
; 485  : 			_Stringbuffer(_Str, _Mode | ios_base::in)
; 486  : 		{	// construct readable character buffer from NTCS
; 487  : 		}
; 488  : 
; 489  : 	basic_istringstream(basic_istringstream&& _Right)
; 490  : 		: _Mybase(&_Stringbuffer)
; 491  : 		{	// construct by moving _Right
; 492  : 		_Assign_rv(_STD move(_Right));
; 493  : 		}
; 494  : 
; 495  : 	basic_istringstream& operator=(basic_istringstream&& _Right)
; 496  : 		{	// move from _Right
; 497  : 		_Assign_rv(_STD move(_Right));
; 498  : 		return (*this);
; 499  : 		}
; 500  : 
; 501  : 	void _Assign_rv(basic_istringstream&& _Right)
; 502  : 		{	// assign by moving _Right
; 503  : 		if (this != _STD addressof(_Right))
; 504  : 			{	// different, worth moving
; 505  : 			_Stringbuffer.str(_Mystr());
; 506  : 			this->swap(_Right);
; 507  : 			}
; 508  : 		}
; 509  : 
; 510  : 	void swap(basic_istringstream& _Right)
; 511  : 		{	// swap with _Right
; 512  : 		if (this != _STD addressof(_Right))
; 513  : 			{	// different, swap base and buffer
; 514  : 			_Mybase::swap(_Right);
; 515  : 			_Stringbuffer.swap(_Right._Stringbuffer);
; 516  : 			}
; 517  : 		}
; 518  : 
; 519  : 	basic_istringstream(const basic_istringstream&) = delete;
; 520  : 	basic_istringstream& operator=(const basic_istringstream&) = delete;
; 521  : 
; 522  : 	virtual ~basic_istringstream() noexcept
; 523  : 		{	// destroy the object
; 524  : 		}
; 525  : 
; 526  : 	_NODISCARD _Mysb *rdbuf() const
; 527  : 		{	// return pointer to file buffer
; 528  : 		return ((_Mysb *)&_Stringbuffer);
; 529  : 		}
; 530  : 
; 531  : 	_NODISCARD _Mystr str() const
; 532  : 		{	// return string copy of character array
; 533  : 		return (_Stringbuffer.str());
; 534  : 		}
; 535  : 
; 536  : 	void str(const _Mystr& _Newstr)
; 537  : 		{	// replace character array from string
; 538  : 		_Stringbuffer.str(_Newstr);
; 539  : 		}
; 540  : 
; 541  : private:
; 542  : 	_Mysb _Stringbuffer;	// the string buffer
; 543  : 	};
; 544  : 
; 545  : template<class _Elem,
; 546  : 	class _Traits,
; 547  : 	class _Alloc> inline
; 548  : 	void swap(basic_istringstream<_Elem, _Traits, _Alloc>& _Left,
; 549  : 		basic_istringstream<_Elem, _Traits, _Alloc>& _Right)
; 550  : 	{	// swap _Left and _Right basic_istringstreams
; 551  : 	_Left.swap(_Right);
; 552  : 	}
; 553  : 
; 554  : 		// CLASS TEMPLATE basic_ostringstream
; 555  : template<class _Elem,
; 556  : 	class _Traits,
; 557  : 	class _Alloc>
; 558  : 	class basic_ostringstream
; 559  : 		: public basic_ostream<_Elem, _Traits>
; 560  : 	{	// output stream associated with a character array
; 561  : public:
; 562  : 	typedef basic_ostream<_Elem, _Traits> _Mybase;
; 563  : 	typedef _Alloc allocator_type;
; 564  : 	typedef basic_stringbuf<_Elem, _Traits, _Alloc> _Mysb;
; 565  : 	typedef basic_string<_Elem, _Traits, _Alloc> _Mystr;
; 566  : 
; 567  : 	explicit basic_ostringstream(ios_base::openmode _Mode = ios_base::out)
; 568  : 		: _Mybase(&_Stringbuffer),

	xor	r9d, r9d
	xor	r8d, r8d
	lea	rdx, QWORD PTR oss$15[rsp+8]
	lea	rcx, QWORD PTR oss$15[rsp]
	call	QWORD PTR __imp_??0?$basic_ostream@DU?$char_traits@D@std@@@std@@QEAA@PEAV?$basic_streambuf@DU?$char_traits@D@std@@@1@_N@Z
	npad	1

; 570  : 		{	// construct empty writable character buffer

	mov	rax, QWORD PTR oss$15[rsp]
	movsxd	rcx, DWORD PTR [rax+4]
	mov	QWORD PTR oss$15[rsp+rcx], r13
	mov	rax, QWORD PTR oss$15[rsp]
	movsxd	rcx, DWORD PTR [rax+4]
	lea	edx, DWORD PTR [rcx-136]
	mov	DWORD PTR oss$15[rsp+rcx-4], edx

; 33   : 		{	// construct empty character buffer from mode

	lea	rcx, QWORD PTR oss$15[rsp+8]
	call	QWORD PTR __imp_??0?$basic_streambuf@DU?$char_traits@D@std@@@std@@IEAA@XZ
	mov	QWORD PTR oss$15[rsp+8], r14

; 30   : 		: _Seekhigh(nullptr),

	mov	QWORD PTR oss$15[rbp-144], 0

; 31   : 		_Mystate(_Getstate(_Mode)),

	mov	DWORD PTR oss$15[rbp-136], 4

; 32   : 		_Al()

	lea	rcx, QWORD PTR oss$15[rbp-132]
	call	??0?$allocator@D@std@@QEAA@XZ		; std::allocator<char>::allocator<char>
	npad	1
; File d:\code\libshared\jsoncpp-src-0.5.0\src\lib_json\json_writer.cpp

	lea	rdx, OFFSET FLAT:??_C@_02DHFAHMIK@?2u@
	lea	rcx, QWORD PTR oss$15[rsp]
	call	??$?6U?$char_traits@D@std@@@std@@YAAEAV?$basic_ostream@DU?$char_traits@D@std@@@0@AEAV10@PEBD@Z ; std::operator<<<std::char_traits<char> >
	mov	rcx, rax
	lea	rdx, OFFSET FLAT:?hex@std@@YAAEAVios_base@1@AEAV21@@Z ; std::hex
	call	QWORD PTR __imp_??6?$basic_ostream@DU?$char_traits@D@std@@@std@@QEAAAEAV01@P6AAEAVios_base@1@AEAV21@@Z@Z
	mov	rcx, rax
	lea	rdx, OFFSET FLAT:?uppercase@std@@YAAEAVios_base@1@AEAV21@@Z ; std::uppercase
	call	QWORD PTR __imp_??6?$basic_ostream@DU?$char_traits@D@std@@@std@@QEAAAEAV01@P6AAEAVios_base@1@AEAV21@@Z@Z
	mov	rbx, rax
; File c:\program files (x86)\microsoft visual studio\2017\enterprise\vc\tools\msvc\14.16.27023\include\iomanip

; 64   : 	_Ostr.fill(_Manip._Fill);

	mov	rcx, QWORD PTR [rax]
	movsxd	rdx, DWORD PTR [rcx+4]
; File c:\program files (x86)\microsoft visual studio\2017\enterprise\vc\tools\msvc\14.16.27023\include\ios

; 114  : 		_Fillch = _Newfill;

	mov	BYTE PTR [rdx+rax+88], 48		; 00000030H
; File d:\code\libshared\jsoncpp-src-0.5.0\src\lib_json\json_writer.cpp

	mov	edx, 4
	lea	rcx, QWORD PTR $T7[rbp-256]
	call	QWORD PTR __imp_?setw@std@@YA?AU?$_Smanip@_J@1@_J@Z
; File c:\program files (x86)\microsoft visual studio\2017\enterprise\vc\tools\msvc\14.16.27023\include\iomanip

; 531  : 	(*_Manip._Pfun)(_Ostr, _Manip._Manarg);

	mov	rcx, QWORD PTR [rbx]
	movsxd	rcx, DWORD PTR [rcx+4]
	add	rcx, rbx
	mov	rdx, QWORD PTR [rax+8]
	call	QWORD PTR [rax]
; File d:\code\libshared\jsoncpp-src-0.5.0\src\lib_json\json_writer.cpp

	movsx	edx, BYTE PTR [rdi]
	mov	rcx, rbx
	call	QWORD PTR __imp_??6?$basic_ostream@DU?$char_traits@D@std@@@std@@QEAAAEAV01@H@Z
	npad	1
; File c:\program files (x86)\microsoft visual studio\2017\enterprise\vc\tools\msvc\14.16.27023\include\sstream

; 96   : 		_Mystr _Result(_Al);

	lea	rdx, QWORD PTR oss$15[rbp-132]
	lea	rcx, QWORD PTR $T8[rbp-256]
	call	??0?$basic_string@DU?$char_traits@D@std@@V?$allocator@D@2@@std@@QEAA@AEBV?$allocator@D@1@@Z ; std::basic_string<char,std::char_traits<char>,std::allocator<char> >::basic_string<char,std::char_traits<char>,std::allocator<char> >

; 106  : 			}
; 107  : 
; 108  : 		return (_Result);

	or	esi, 8
	mov	DWORD PTR $T1[rsp], esi

; 97   : 		if (!(_Mystate & _Constant) && _Mysb::pptr() != nullptr)

	mov	ecx, DWORD PTR oss$15[rbp-136]
	test	cl, 2
	jne	SHORT $LN70@valueToQuo
; File c:\program files (x86)\microsoft visual studio\2017\enterprise\vc\tools\msvc\14.16.27023\include\streambuf

; 235  : 		return (*_IPnext);

	mov	rax, QWORD PTR oss$15[rbp-184]
	mov	r8, QWORD PTR [rax]
; File c:\program files (x86)\microsoft visual studio\2017\enterprise\vc\tools\msvc\14.16.27023\include\sstream

; 97   : 		if (!(_Mystate & _Constant) && _Mysb::pptr() != nullptr)

	test	r8, r8
	je	SHORT $LN70@valueToQuo
; File c:\program files (x86)\microsoft visual studio\2017\enterprise\vc\tools\msvc\14.16.27023\include\streambuf

; 230  : 		return (*_IPfirst);

	mov	rax, QWORD PTR oss$15[rsp+40]
	mov	rdx, QWORD PTR [rax]
; File c:\program files (x86)\microsoft visual studio\2017\enterprise\vc\tools\msvc\14.16.27023\include\sstream

; 100  : 			_Result.assign(_Base, static_cast<_Mysize_type>(_Max_value(_Mysb::pptr(), _Seekhigh) - _Base));

	cmp	r8, QWORD PTR oss$15[rbp-144]
	cmovb	r8, QWORD PTR oss$15[rbp-144]
	sub	r8, rdx
	jmp	SHORT $LN108@valueToQuo
$LN70@valueToQuo:

; 102  : 		else if (!(_Mystate & _Noread) && _Mysb::gptr() != nullptr)

	test	cl, 4
	jne	SHORT $LN72@valueToQuo
; File c:\program files (x86)\microsoft visual studio\2017\enterprise\vc\tools\msvc\14.16.27023\include\streambuf

; 225  : 		return (*_IGnext);

	mov	rax, QWORD PTR oss$15[rbp-192]
	mov	rcx, QWORD PTR [rax]
; File c:\program files (x86)\microsoft visual studio\2017\enterprise\vc\tools\msvc\14.16.27023\include\sstream

; 102  : 		else if (!(_Mystate & _Noread) && _Mysb::gptr() != nullptr)

	test	rcx, rcx
	je	SHORT $LN72@valueToQuo
; File c:\program files (x86)\microsoft visual studio\2017\enterprise\vc\tools\msvc\14.16.27023\include\streambuf

; 220  : 		return (*_IGfirst);

	mov	rax, QWORD PTR oss$15[rsp+32]
	mov	rdx, QWORD PTR [rax]

; 240  : 		return (*_IGnext + *_IGcount);

	mov	rax, QWORD PTR oss$15[rbp-168]
	movsxd	r8, DWORD PTR [rax]
	sub	r8, rdx
; File c:\program files (x86)\microsoft visual studio\2017\enterprise\vc\tools\msvc\14.16.27023\include\sstream

; 105  : 			_Result.assign(_Base, static_cast<_Mysize_type>(_Mysb::egptr() - _Base));

	add	r8, rcx
$LN108@valueToQuo:

; 624  : 		return (_Stringbuffer.str());

	lea	rcx, QWORD PTR $T8[rbp-256]
	call	?assign@?$basic_string@DU?$char_traits@D@std@@V?$allocator@D@2@@std@@QEAAAEAV12@QEBD_K@Z ; std::basic_string<char,std::char_traits<char>,std::allocator<char> >::assign
$LN72@valueToQuo:
	mov	esi, r15d
	and	esi, -9
	or	esi, 4
; File d:\code\libshared\jsoncpp-src-0.5.0\src\lib_json\json_writer.cpp

	lea	rdx, QWORD PTR $T8[rbp-256]
	lea	rcx, QWORD PTR result$[rbp-256]
	call	??Y?$basic_string@DU?$char_traits@D@std@@V?$allocator@D@2@@std@@QEAAAEAV01@AEBV01@@Z ; std::basic_string<char,std::char_traits<char>,std::allocator<char> >::operator+=
	npad	1
	lea	rcx, QWORD PTR $T8[rbp-256]
	call	??1?$basic_string@DU?$char_traits@D@std@@V?$allocator@D@2@@std@@QEAA@XZ ; std::basic_string<char,std::char_traits<char>,std::allocator<char> >::~basic_string<char,std::char_traits<char>,std::allocator<char> >
	npad	1
; File c:\program files (x86)\microsoft visual studio\2017\enterprise\vc\tools\msvc\14.16.27023\include\sstream

; 614  : 		{	// destroy the object

	mov	rax, QWORD PTR oss$15[rsp]
	movsxd	rcx, DWORD PTR [rax+4]
	mov	QWORD PTR oss$15[rsp+rcx], r13
	mov	rax, QWORD PTR oss$15[rsp]
	movsxd	rcx, DWORD PTR [rax+4]
	lea	edx, DWORD PTR [rcx-136]
	mov	DWORD PTR oss$15[rsp+rcx-4], edx

; 615  : 		}

	lea	rcx, QWORD PTR oss$15[rsp+8]
	call	??1?$basic_stringbuf@DU?$char_traits@D@std@@V?$allocator@D@2@@std@@UEAA@XZ ; std::basic_stringbuf<char,std::char_traits<char>,std::allocator<char> >::~basic_stringbuf<char,std::char_traits<char>,std::allocator<char> >
	lea	rcx, QWORD PTR oss$15[rsp+16]
	call	QWORD PTR __imp_??1?$basic_ostream@DU?$char_traits@D@std@@@std@@UEAA@XZ
	lea	rcx, QWORD PTR oss$15[rbp-120]
	call	QWORD PTR __imp_??1?$basic_ios@DU?$char_traits@D@std@@@std@@UEAA@XZ
; File d:\code\libshared\jsoncpp-src-0.5.0\src\lib_json\json_writer.cpp

	jmp	SHORT $LN2@valueToQuo
$LN16@valueToQuo:

	lea	rcx, QWORD PTR result$[rbp-256]
	call	??Y?$basic_string@DU?$char_traits@D@std@@V?$allocator@D@2@@std@@QEAAAEAV01@D@Z ; std::basic_string<char,std::char_traits<char>,std::allocator<char> >::operator+=
$LN2@valueToQuo:

	inc	rdi
	movzx	edx, BYTE PTR [rdi]
	test	dl, dl
	jne	$LL4@valueToQuo
	mov	r14, QWORD PTR __$ReturnUdt$GSCopy$1$[rsp]
$LN3@valueToQuo:

	lea	rdx, OFFSET FLAT:??_C@_01BJJEKLCA@?$CC@
	lea	rcx, QWORD PTR result$[rbp-256]
	call	??Y?$basic_string@DU?$char_traits@D@std@@V?$allocator@D@2@@std@@QEAAAEAV01@QEBD@Z ; std::basic_string<char,std::char_traits<char>,std::allocator<char> >::operator+=

	lea	rdx, QWORD PTR result$[rbp-256]
	mov	rcx, r14
	call	??0?$basic_string@DU?$char_traits@D@std@@V?$allocator@D@2@@std@@QEAA@$$QEAV01@@Z ; std::basic_string<char,std::char_traits<char>,std::allocator<char> >::basic_string<char,std::char_traits<char>,std::allocator<char> >
	npad	1
	lea	rcx, QWORD PTR result$[rbp-256]
$LN107@valueToQuo:

	call	??1?$basic_string@DU?$char_traits@D@std@@V?$allocator@D@2@@std@@QEAA@XZ ; std::basic_string<char,std::char_traits<char>,std::allocator<char> >::~basic_string<char,std::char_traits<char>,std::allocator<char> >
	mov	rax, r14
	mov	rcx, QWORD PTR __$ArrayPad$[rbp-256]
	xor	rcx, rsp
	call	__security_check_cookie
	mov	rbx, QWORD PTR [rsp+496]
	add	rsp, 416				; 000001a0H
	pop	r15
	pop	r14
	pop	r13
	pop	r12
	pop	rdi
	pop	rsi
	pop	rbp
	ret	0
	npad	1
$LN105@valueToQuo:
	DD	$LN10@valueToQuo
	DD	$LN14@valueToQuo
	DD	$LN12@valueToQuo
	DD	$LN11@valueToQuo
	DD	$LN13@valueToQuo
	DD	$LN8@valueToQuo
	DD	$LN9@valueToQuo
	DD	$LN15@valueToQuo
$LN104@valueToQuo:
	DB	0
	DB	1
	DB	2
	DB	7
	DB	3
	DB	4
	DB	7
	DB	7
	DB	7
	DB	7
	DB	7
	DB	7
	DB	7
	DB	7
	DB	7
	DB	7
	DB	7
	DB	7
	DB	7
	DB	7
	DB	7
	DB	7
	DB	7
	DB	7
	DB	7
	DB	7
	DB	5
	DB	7
	DB	7
	DB	7
	DB	7
	DB	7
	DB	7
	DB	7
	DB	7
	DB	7
	DB	7
	DB	7
	DB	7
	DB	7
	DB	7
	DB	7
	DB	7
	DB	7
	DB	7
	DB	7
	DB	7
	DB	7
	DB	7
	DB	7
	DB	7
	DB	7
	DB	7
	DB	7
	DB	7
	DB	7
	DB	7
	DB	7
	DB	7
	DB	7
	DB	7
	DB	7
	DB	7
	DB	7
	DB	7
	DB	7
	DB	7
	DB	7
	DB	7
	DB	7
	DB	7
	DB	7
	DB	7
	DB	7
	DB	7
	DB	7
	DB	7
	DB	7
	DB	7
	DB	7
	DB	7
	DB	7
	DB	7
	DB	7
	DB	6
?valueToQuotedString@Json@@YA?AV?$basic_string@DU?$char_traits@D@std@@V?$allocator@D@2@@std@@PEBD@Z ENDP ; Json::valueToQuotedString
_TEXT	ENDS
;	COMDAT text$x
text$x	SEGMENT
$T1 = 32
__$ReturnUdt$GSCopy$1$ = 40
__$ReturnUdt$GSCopy$ = 48
oss$15 = 64
$T16 = 304
result$ = 312
$T8 = 344
$T5 = 344
$T7 = 376
$T4 = 376
__$ArrayPad$ = 408
__$ReturnUdt$ = 480
value$ = 488
?dtor$0@?0??valueToQuotedString@Json@@YA?AV?$basic_string@DU?$char_traits@D@std@@V?$allocator@D@2@@std@@PEBD@Z@4HA PROC ; `Json::valueToQuotedString'::`1'::dtor$0
	lea	rcx, QWORD PTR $T4[rdx]
	jmp	??1?$basic_string@DU?$char_traits@D@std@@V?$allocator@D@2@@std@@QEAA@XZ ; std::basic_string<char,std::char_traits<char>,std::allocator<char> >::~basic_string<char,std::char_traits<char>,std::allocator<char> >
?dtor$0@?0??valueToQuotedString@Json@@YA?AV?$basic_string@DU?$char_traits@D@std@@V?$allocator@D@2@@std@@PEBD@Z@4HA ENDP ; `Json::valueToQuotedString'::`1'::dtor$0
$T1 = 32
__$ReturnUdt$GSCopy$1$ = 40
__$ReturnUdt$GSCopy$ = 48
oss$15 = 64
$T16 = 304
result$ = 312
$T8 = 344
$T5 = 344
$T7 = 376
$T4 = 376
__$ArrayPad$ = 408
__$ReturnUdt$ = 480
value$ = 488
?dtor$1@?0??valueToQuotedString@Json@@YA?AV?$basic_string@DU?$char_traits@D@std@@V?$allocator@D@2@@std@@PEBD@Z@4HA PROC ; `Json::valueToQuotedString'::`1'::dtor$1
	lea	rcx, QWORD PTR $T5[rdx]
	jmp	??1?$basic_string@DU?$char_traits@D@std@@V?$allocator@D@2@@std@@QEAA@XZ ; std::basic_string<char,std::char_traits<char>,std::allocator<char> >::~basic_string<char,std::char_traits<char>,std::allocator<char> >
?dtor$1@?0??valueToQuotedString@Json@@YA?AV?$basic_string@DU?$char_traits@D@std@@V?$allocator@D@2@@std@@PEBD@Z@4HA ENDP ; `Json::valueToQuotedString'::`1'::dtor$1
$T1 = 32
__$ReturnUdt$GSCopy$1$ = 40
__$ReturnUdt$GSCopy$ = 48
oss$15 = 64
$T16 = 304
result$ = 312
$T8 = 344
$T5 = 344
$T7 = 376
$T4 = 376
__$ArrayPad$ = 408
__$ReturnUdt$ = 480
value$ = 488
?dtor$3@?0??valueToQuotedString@Json@@YA?AV?$basic_string@DU?$char_traits@D@std@@V?$allocator@D@2@@std@@PEBD@Z@4HA PROC ; `Json::valueToQuotedString'::`1'::dtor$3
	lea	rcx, QWORD PTR result$[rdx]
	jmp	??1?$basic_string@DU?$char_traits@D@std@@V?$allocator@D@2@@std@@QEAA@XZ ; std::basic_string<char,std::char_traits<char>,std::allocator<char> >::~basic_string<char,std::char_traits<char>,std::allocator<char> >
?dtor$3@?0??valueToQuotedString@Json@@YA?AV?$basic_string@DU?$char_traits@D@std@@V?$allocator@D@2@@std@@PEBD@Z@4HA ENDP ; `Json::valueToQuotedString'::`1'::dtor$3
$T1 = 32
__$ReturnUdt$GSCopy$1$ = 40
__$ReturnUdt$GSCopy$ = 48
oss$15 = 64
$T16 = 304
result$ = 312
$T8 = 344
$T5 = 344
$T7 = 376
$T4 = 376
__$ArrayPad$ = 408
__$ReturnUdt$ = 480
value$ = 488
?dtor$6@?0??valueToQuotedString@Json@@YA?AV?$basic_string@DU?$char_traits@D@std@@V?$allocator@D@2@@std@@PEBD@Z@4HA PROC ; `Json::valueToQuotedString'::`1'::dtor$6
	push	rbp
	sub	rsp, 32					; 00000020H
	mov	rbp, rdx
	mov	eax, DWORD PTR $T1[rbp]
	and	eax, 2
	test	eax, eax
	je	SHORT $LN43@dtor$6
	and	DWORD PTR $T1[rbp], -3
	lea	rcx, QWORD PTR oss$15[rbp]
	add	rcx, 136				; 00000088H
	call	QWORD PTR __imp_??1?$basic_ios@DU?$char_traits@D@std@@@std@@UEAA@XZ
$LN43@dtor$6:
	add	rsp, 32					; 00000020H
	pop	rbp
	ret	0
?dtor$6@?0??valueToQuotedString@Json@@YA?AV?$basic_string@DU?$char_traits@D@std@@V?$allocator@D@2@@std@@PEBD@Z@4HA ENDP ; `Json::valueToQuotedString'::`1'::dtor$6
$T1 = 32
__$ReturnUdt$GSCopy$1$ = 40
__$ReturnUdt$GSCopy$ = 48
oss$15 = 64
$T16 = 304
result$ = 312
$T8 = 344
$T5 = 344
$T7 = 376
$T4 = 376
__$ArrayPad$ = 408
__$ReturnUdt$ = 480
value$ = 488
?dtor$7@?0??valueToQuotedString@Json@@YA?AV?$basic_string@DU?$char_traits@D@std@@V?$allocator@D@2@@std@@PEBD@Z@4HA PROC ; `Json::valueToQuotedString'::`1'::dtor$7
	lea	rcx, QWORD PTR oss$15[rdx]
	add	rcx, 16
	rex_jmp	QWORD PTR __imp_??1?$basic_ostream@DU?$char_traits@D@std@@@std@@UEAA@XZ
?dtor$7@?0??valueToQuotedString@Json@@YA?AV?$basic_string@DU?$char_traits@D@std@@V?$allocator@D@2@@std@@PEBD@Z@4HA ENDP ; `Json::valueToQuotedString'::`1'::dtor$7
$T1 = 32
__$ReturnUdt$GSCopy$1$ = 40
__$ReturnUdt$GSCopy$ = 48
oss$15 = 64
$T16 = 304
result$ = 312
$T8 = 344
$T5 = 344
$T7 = 376
$T4 = 376
__$ArrayPad$ = 408
__$ReturnUdt$ = 480
value$ = 488
?dtor$4@?0??valueToQuotedString@Json@@YA?AV?$basic_string@DU?$char_traits@D@std@@V?$allocator@D@2@@std@@PEBD@Z@4HA PROC ; `Json::valueToQuotedString'::`1'::dtor$4
	lea	rcx, QWORD PTR oss$15[rdx]
	jmp	??_D?$basic_ostringstream@DU?$char_traits@D@std@@V?$allocator@D@2@@std@@QEAAXXZ
?dtor$4@?0??valueToQuotedString@Json@@YA?AV?$basic_string@DU?$char_traits@D@std@@V?$allocator@D@2@@std@@PEBD@Z@4HA ENDP ; `Json::valueToQuotedString'::`1'::dtor$4
$T1 = 32
__$ReturnUdt$GSCopy$1$ = 40
__$ReturnUdt$GSCopy$ = 48
oss$15 = 64
$T16 = 304
result$ = 312
$T8 = 344
$T5 = 344
$T7 = 376
$T4 = 376
__$ArrayPad$ = 408
__$ReturnUdt$ = 480
value$ = 488
?dtor$11@?0??valueToQuotedString@Json@@YA?AV?$basic_string@DU?$char_traits@D@std@@V?$allocator@D@2@@std@@PEBD@Z@4HA PROC ; `Json::valueToQuotedString'::`1'::dtor$11
	push	rbp
	sub	rsp, 32					; 00000020H
	mov	rbp, rdx
	mov	eax, DWORD PTR $T1[rbp]
	and	eax, 8
	test	eax, eax
	je	SHORT $LN75@dtor$11
	and	DWORD PTR $T1[rbp], -9
	lea	rcx, QWORD PTR $T8[rbp]
	call	??1?$basic_string@DU?$char_traits@D@std@@V?$allocator@D@2@@std@@QEAA@XZ ; std::basic_string<char,std::char_traits<char>,std::allocator<char> >::~basic_string<char,std::char_traits<char>,std::allocator<char> >
$LN75@dtor$11:
	add	rsp, 32					; 00000020H
	pop	rbp
	ret	0
?dtor$11@?0??valueToQuotedString@Json@@YA?AV?$basic_string@DU?$char_traits@D@std@@V?$allocator@D@2@@std@@PEBD@Z@4HA ENDP ; `Json::valueToQuotedString'::`1'::dtor$11
$T1 = 32
__$ReturnUdt$GSCopy$1$ = 40
__$ReturnUdt$GSCopy$ = 48
oss$15 = 64
$T16 = 304
result$ = 312
$T8 = 344
$T5 = 344
$T7 = 376
$T4 = 376
__$ArrayPad$ = 408
__$ReturnUdt$ = 480
value$ = 488
?dtor$5@?0??valueToQuotedString@Json@@YA?AV?$basic_string@DU?$char_traits@D@std@@V?$allocator@D@2@@std@@PEBD@Z@4HA PROC ; `Json::valueToQuotedString'::`1'::dtor$5
	lea	rcx, QWORD PTR $T8[rdx]
	jmp	??1?$basic_string@DU?$char_traits@D@std@@V?$allocator@D@2@@std@@QEAA@XZ ; std::basic_string<char,std::char_traits<char>,std::allocator<char> >::~basic_string<char,std::char_traits<char>,std::allocator<char> >
?dtor$5@?0??valueToQuotedString@Json@@YA?AV?$basic_string@DU?$char_traits@D@std@@V?$allocator@D@2@@std@@PEBD@Z@4HA ENDP ; `Json::valueToQuotedString'::`1'::dtor$5
text$x	ENDS
; Function compile flags: /Ogtpy
;	COMDAT text$x
text$x	SEGMENT
$T1 = 32
__$ReturnUdt$GSCopy$1$ = 40
__$ReturnUdt$GSCopy$ = 48
oss$15 = 64
$T16 = 304
result$ = 312
$T8 = 344
$T5 = 344
$T7 = 376
$T4 = 376
__$ArrayPad$ = 408
__$ReturnUdt$ = 480
value$ = 488
?dtor$0@?0??valueToQuotedString@Json@@YA?AV?$basic_string@DU?$char_traits@D@std@@V?$allocator@D@2@@std@@PEBD@Z@4HA PROC ; `Json::valueToQuotedString'::`1'::dtor$0
	lea	rcx, QWORD PTR $T4[rdx]
	jmp	??1?$basic_string@DU?$char_traits@D@std@@V?$allocator@D@2@@std@@QEAA@XZ ; std::basic_string<char,std::char_traits<char>,std::allocator<char> >::~basic_string<char,std::char_traits<char>,std::allocator<char> >
?dtor$0@?0??valueToQuotedString@Json@@YA?AV?$basic_string@DU?$char_traits@D@std@@V?$allocator@D@2@@std@@PEBD@Z@4HA ENDP ; `Json::valueToQuotedString'::`1'::dtor$0
text$x	ENDS
; Function compile flags: /Ogtpy
;	COMDAT text$x
text$x	SEGMENT
$T1 = 32
__$ReturnUdt$GSCopy$1$ = 40
__$ReturnUdt$GSCopy$ = 48
oss$15 = 64
$T16 = 304
result$ = 312
$T8 = 344
$T5 = 344
$T7 = 376
$T4 = 376
__$ArrayPad$ = 408
__$ReturnUdt$ = 480
value$ = 488
?dtor$1@?0??valueToQuotedString@Json@@YA?AV?$basic_string@DU?$char_traits@D@std@@V?$allocator@D@2@@std@@PEBD@Z@4HA PROC ; `Json::valueToQuotedString'::`1'::dtor$1
	lea	rcx, QWORD PTR $T5[rdx]
	jmp	??1?$basic_string@DU?$char_traits@D@std@@V?$allocator@D@2@@std@@QEAA@XZ ; std::basic_string<char,std::char_traits<char>,std::allocator<char> >::~basic_string<char,std::char_traits<char>,std::allocator<char> >
?dtor$1@?0??valueToQuotedString@Json@@YA?AV?$basic_string@DU?$char_traits@D@std@@V?$allocator@D@2@@std@@PEBD@Z@4HA ENDP ; `Json::valueToQuotedString'::`1'::dtor$1
text$x	ENDS
; Function compile flags: /Ogtpy
;	COMDAT text$x
text$x	SEGMENT
$T1 = 32
__$ReturnUdt$GSCopy$1$ = 40
__$ReturnUdt$GSCopy$ = 48
oss$15 = 64
$T16 = 304
result$ = 312
$T8 = 344
$T5 = 344
$T7 = 376
$T4 = 376
__$ArrayPad$ = 408
__$ReturnUdt$ = 480
value$ = 488
?dtor$3@?0??valueToQuotedString@Json@@YA?AV?$basic_string@DU?$char_traits@D@std@@V?$allocator@D@2@@std@@PEBD@Z@4HA PROC ; `Json::valueToQuotedString'::`1'::dtor$3
	lea	rcx, QWORD PTR result$[rdx]
	jmp	??1?$basic_string@DU?$char_traits@D@std@@V?$allocator@D@2@@std@@QEAA@XZ ; std::basic_string<char,std::char_traits<char>,std::allocator<char> >::~basic_string<char,std::char_traits<char>,std::allocator<char> >
?dtor$3@?0??valueToQuotedString@Json@@YA?AV?$basic_string@DU?$char_traits@D@std@@V?$allocator@D@2@@std@@PEBD@Z@4HA ENDP ; `Json::valueToQuotedString'::`1'::dtor$3
text$x	ENDS
; Function compile flags: /Ogtpy
;	COMDAT text$x
text$x	SEGMENT
$T1 = 32
__$ReturnUdt$GSCopy$1$ = 40
__$ReturnUdt$GSCopy$ = 48
oss$15 = 64
$T16 = 304
result$ = 312
$T8 = 344
$T5 = 344
$T7 = 376
$T4 = 376
__$ArrayPad$ = 408
__$ReturnUdt$ = 480
value$ = 488
?dtor$6@?0??valueToQuotedString@Json@@YA?AV?$basic_string@DU?$char_traits@D@std@@V?$allocator@D@2@@std@@PEBD@Z@4HA PROC ; `Json::valueToQuotedString'::`1'::dtor$6
	push	rbp
	sub	rsp, 32					; 00000020H
	mov	rbp, rdx
	mov	eax, DWORD PTR $T1[rbp]
	and	eax, 2
	test	eax, eax
	je	SHORT $LN43@dtor$6
	and	DWORD PTR $T1[rbp], -3
	lea	rcx, QWORD PTR oss$15[rbp]
	add	rcx, 136				; 00000088H
	call	QWORD PTR __imp_??1?$basic_ios@DU?$char_traits@D@std@@@std@@UEAA@XZ
$LN43@dtor$6:
	add	rsp, 32					; 00000020H
	pop	rbp
	ret	0
?dtor$6@?0??valueToQuotedString@Json@@YA?AV?$basic_string@DU?$char_traits@D@std@@V?$allocator@D@2@@std@@PEBD@Z@4HA ENDP ; `Json::valueToQuotedString'::`1'::dtor$6
text$x	ENDS
; Function compile flags: /Ogtpy
;	COMDAT text$x
text$x	SEGMENT
$T1 = 32
__$ReturnUdt$GSCopy$1$ = 40
__$ReturnUdt$GSCopy$ = 48
oss$15 = 64
$T16 = 304
result$ = 312
$T8 = 344
$T5 = 344
$T7 = 376
$T4 = 376
__$ArrayPad$ = 408
__$ReturnUdt$ = 480
value$ = 488
?dtor$7@?0??valueToQuotedString@Json@@YA?AV?$basic_string@DU?$char_traits@D@std@@V?$allocator@D@2@@std@@PEBD@Z@4HA PROC ; `Json::valueToQuotedString'::`1'::dtor$7
	lea	rcx, QWORD PTR oss$15[rdx]
	add	rcx, 16
	rex_jmp	QWORD PTR __imp_??1?$basic_ostream@DU?$char_traits@D@std@@@std@@UEAA@XZ
?dtor$7@?0??valueToQuotedString@Json@@YA?AV?$basic_string@DU?$char_traits@D@std@@V?$allocator@D@2@@std@@PEBD@Z@4HA ENDP ; `Json::valueToQuotedString'::`1'::dtor$7
text$x	ENDS
; Function compile flags: /Ogtpy
;	COMDAT text$x
text$x	SEGMENT
$T1 = 32
__$ReturnUdt$GSCopy$1$ = 40
__$ReturnUdt$GSCopy$ = 48
oss$15 = 64
$T16 = 304
result$ = 312
$T8 = 344
$T5 = 344
$T7 = 376
$T4 = 376
__$ArrayPad$ = 408
__$ReturnUdt$ = 480
value$ = 488
?dtor$4@?0??valueToQuotedString@Json@@YA?AV?$basic_string@DU?$char_traits@D@std@@V?$allocator@D@2@@std@@PEBD@Z@4HA PROC ; `Json::valueToQuotedString'::`1'::dtor$4
	lea	rcx, QWORD PTR oss$15[rdx]
	jmp	??_D?$basic_ostringstream@DU?$char_traits@D@std@@V?$allocator@D@2@@std@@QEAAXXZ
?dtor$4@?0??valueToQuotedString@Json@@YA?AV?$basic_string@DU?$char_traits@D@std@@V?$allocator@D@2@@std@@PEBD@Z@4HA ENDP ; `Json::valueToQuotedString'::`1'::dtor$4
text$x	ENDS
; Function compile flags: /Ogtpy
;	COMDAT text$x
text$x	SEGMENT
$T1 = 32
__$ReturnUdt$GSCopy$1$ = 40
__$ReturnUdt$GSCopy$ = 48
oss$15 = 64
$T16 = 304
result$ = 312
$T8 = 344
$T5 = 344
$T7 = 376
$T4 = 376
__$ArrayPad$ = 408
__$ReturnUdt$ = 480
value$ = 488
?dtor$11@?0??valueToQuotedString@Json@@YA?AV?$basic_string@DU?$char_traits@D@std@@V?$allocator@D@2@@std@@PEBD@Z@4HA PROC ; `Json::valueToQuotedString'::`1'::dtor$11
	push	rbp
	sub	rsp, 32					; 00000020H
	mov	rbp, rdx
	mov	eax, DWORD PTR $T1[rbp]
	and	eax, 8
	test	eax, eax
	je	SHORT $LN75@dtor$11
	and	DWORD PTR $T1[rbp], -9
	lea	rcx, QWORD PTR $T8[rbp]
	call	??1?$basic_string@DU?$char_traits@D@std@@V?$allocator@D@2@@std@@QEAA@XZ ; std::basic_string<char,std::char_traits<char>,std::allocator<char> >::~basic_string<char,std::char_traits<char>,std::allocator<char> >
$LN75@dtor$11:
	add	rsp, 32					; 00000020H
	pop	rbp
	ret	0
?dtor$11@?0??valueToQuotedString@Json@@YA?AV?$basic_string@DU?$char_traits@D@std@@V?$allocator@D@2@@std@@PEBD@Z@4HA ENDP ; `Json::valueToQuotedString'::`1'::dtor$11
text$x	ENDS
; Function compile flags: /Ogtpy
;	COMDAT text$x
text$x	SEGMENT
$T1 = 32
__$ReturnUdt$GSCopy$1$ = 40
__$ReturnUdt$GSCopy$ = 48
oss$15 = 64
$T16 = 304
result$ = 312
$T8 = 344
$T5 = 344
$T7 = 376
$T4 = 376
__$ArrayPad$ = 408
__$ReturnUdt$ = 480
value$ = 488
?dtor$5@?0??valueToQuotedString@Json@@YA?AV?$basic_string@DU?$char_traits@D@std@@V?$allocator@D@2@@std@@PEBD@Z@4HA PROC ; `Json::valueToQuotedString'::`1'::dtor$5
	lea	rcx, QWORD PTR $T8[rdx]
	jmp	??1?$basic_string@DU?$char_traits@D@std@@V?$allocator@D@2@@std@@QEAA@XZ ; std::basic_string<char,std::char_traits<char>,std::allocator<char> >::~basic_string<char,std::char_traits<char>,std::allocator<char> >
?dtor$5@?0??valueToQuotedString@Json@@YA?AV?$basic_string@DU?$char_traits@D@std@@V?$allocator@D@2@@std@@PEBD@Z@4HA ENDP ; `Json::valueToQuotedString'::`1'::dtor$5
text$x	ENDS
; Function compile flags: /Ogtpy
; File c:\program files (x86)\microsoft visual studio\2017\enterprise\vc\tools\msvc\14.16.27023\include\sstream
;	COMDAT ??_D?$basic_ostringstream@DU?$char_traits@D@std@@V?$allocator@D@2@@std@@QEAAXXZ
_TEXT	SEGMENT
this$ = 48
??_D?$basic_ostringstream@DU?$char_traits@D@std@@V?$allocator@D@2@@std@@QEAAXXZ PROC ; std::basic_ostringstream<char,std::char_traits<char>,std::allocator<char> >::`vbase destructor', COMDAT
$LN8:
	push	rbx
	sub	rsp, 32					; 00000020H

; 614  : 		{	// destroy the object

	mov	rax, QWORD PTR [rcx]
	lea	rbx, QWORD PTR [rcx+136]

; 615  : 		}

	lea	rcx, QWORD PTR [rbx-128]
	movsxd	rdx, DWORD PTR [rax+4]
	lea	rax, OFFSET FLAT:??_7?$basic_ostringstream@DU?$char_traits@D@std@@V?$allocator@D@2@@std@@6B@
	mov	QWORD PTR [rdx+rbx-136], rax
	mov	rax, QWORD PTR [rbx-136]
	movsxd	rdx, DWORD PTR [rax+4]
	lea	r8d, DWORD PTR [rdx-136]
	mov	DWORD PTR [rdx+rbx-140], r8d
	call	??1?$basic_stringbuf@DU?$char_traits@D@std@@V?$allocator@D@2@@std@@UEAA@XZ ; std::basic_stringbuf<char,std::char_traits<char>,std::allocator<char> >::~basic_stringbuf<char,std::char_traits<char>,std::allocator<char> >
	lea	rcx, QWORD PTR [rbx-120]
	call	QWORD PTR __imp_??1?$basic_ostream@DU?$char_traits@D@std@@@std@@UEAA@XZ
	mov	rcx, rbx
	add	rsp, 32					; 00000020H
	pop	rbx
	rex_jmp	QWORD PTR __imp_??1?$basic_ios@DU?$char_traits@D@std@@@std@@UEAA@XZ
??_D?$basic_ostringstream@DU?$char_traits@D@std@@V?$allocator@D@2@@std@@QEAAXXZ ENDP ; std::basic_ostringstream<char,std::char_traits<char>,std::allocator<char> >::`vbase destructor'
_TEXT	ENDS
; Function compile flags: /Ogtpy
; File d:\code\libshared\jsoncpp-src-0.5.0\src\lib_json\json_writer.cpp
;	COMDAT ??1Writer@Json@@UEAA@XZ
_TEXT	SEGMENT
this$ = 8
??1Writer@Json@@UEAA@XZ PROC				; Json::Writer::~Writer, COMDAT

	lea	rax, OFFSET FLAT:??_7Writer@Json@@6B@
	mov	QWORD PTR [rcx], rax

	ret	0
??1Writer@Json@@UEAA@XZ ENDP				; Json::Writer::~Writer
_TEXT	ENDS
; Function compile flags: /Ogtpy
; File d:\code\libshared\jsoncpp-src-0.5.0\src\lib_json\json_writer.cpp
;	COMDAT ??_GWriter@Json@@UEAAPEAXI@Z
_TEXT	SEGMENT
this$ = 48
__flags$ = 56
??_GWriter@Json@@UEAAPEAXI@Z PROC			; Json::Writer::`scalar deleting destructor', COMDAT
$LN9:
	push	rbx
	sub	rsp, 32					; 00000020H

	lea	rax, OFFSET FLAT:??_7Writer@Json@@6B@
	mov	rbx, rcx
	mov	QWORD PTR [rcx], rax
	test	dl, 1
	je	SHORT $LN6@scalar
	mov	edx, 8
	call	??3@YAXPEAX_K@Z				; operator delete
$LN6@scalar:
	mov	rax, rbx
	add	rsp, 32					; 00000020H
	pop	rbx
	ret	0
??_GWriter@Json@@UEAAPEAXI@Z ENDP			; Json::Writer::`scalar deleting destructor'
_TEXT	ENDS
; Function compile flags: /Ogtpy
; File d:\code\libshared\jsoncpp-src-0.5.0\src\lib_json\json_writer.cpp
;	COMDAT ??0FastWriter@Json@@QEAA@XZ
_TEXT	SEGMENT
this$ = 48
??0FastWriter@Json@@QEAA@XZ PROC			; Json::FastWriter::FastWriter, COMDAT

$LN7:
	push	rbx
	sub	rsp, 32					; 00000020H
	lea	rax, OFFSET FLAT:??_7FastWriter@Json@@6B@
	mov	rbx, rcx
	mov	QWORD PTR [rcx], rax
	add	rcx, 8
	call	??0?$basic_string@DU?$char_traits@D@std@@V?$allocator@D@2@@std@@QEAA@XZ ; std::basic_string<char,std::char_traits<char>,std::allocator<char> >::basic_string<char,std::char_traits<char>,std::allocator<char> >

	mov	rax, rbx
	mov	BYTE PTR [rbx+40], 0
	add	rsp, 32					; 00000020H
	pop	rbx
	ret	0
??0FastWriter@Json@@QEAA@XZ ENDP			; Json::FastWriter::FastWriter
_TEXT	ENDS
; Function compile flags: /Ogtpy
;	COMDAT ??0Writer@Json@@QEAA@XZ
_TEXT	SEGMENT
this$ = 8
??0Writer@Json@@QEAA@XZ PROC				; Json::Writer::Writer, COMDAT
	lea	rax, OFFSET FLAT:??_7Writer@Json@@6B@
	mov	QWORD PTR [rcx], rax
	mov	rax, rcx
	ret	0
??0Writer@Json@@QEAA@XZ ENDP				; Json::Writer::Writer
_TEXT	ENDS
; Function compile flags: /Ogtpy
; File d:\code\libshared\jsoncpp-src-0.5.0\src\lib_json\json_writer.cpp
;	COMDAT ?write@FastWriter@Json@@UEAA?AV?$basic_string@DU?$char_traits@D@std@@V?$allocator@D@2@@std@@AEBVValue@2@@Z
_TEXT	SEGMENT
this$ = 48
__$ReturnUdt$ = 56
root$ = 64
?write@FastWriter@Json@@UEAA?AV?$basic_string@DU?$char_traits@D@std@@V?$allocator@D@2@@std@@AEBVValue@2@@Z PROC ; Json::FastWriter::write, COMDAT

$LN7:
	mov	QWORD PTR [rsp+8], rbx
	mov	QWORD PTR [rsp+16], rbp
	mov	QWORD PTR [rsp+24], rsi
	push	rdi
	sub	rsp, 32					; 00000020H
	mov	rbp, rdx
	mov	rbx, rcx

	lea	rdx, OFFSET FLAT:??_C@_00CNPNBAHC@@
	add	rcx, 8
	mov	rdi, r8
	call	??4?$basic_string@DU?$char_traits@D@std@@V?$allocator@D@2@@std@@QEAAAEAV01@QEBD@Z ; std::basic_string<char,std::char_traits<char>,std::allocator<char> >::operator=

	mov	rdx, rdi
	mov	rcx, rbx
	call	?writeValue@FastWriter@Json@@AEAAXAEBVValue@2@@Z ; Json::FastWriter::writeValue

	lea	rdx, OFFSET FLAT:??_C@_01EEMJAFIK@?6@
	lea	rcx, QWORD PTR [rbx+8]
	call	??Y?$basic_string@DU?$char_traits@D@std@@V?$allocator@D@2@@std@@QEAAAEAV01@QEBD@Z ; std::basic_string<char,std::char_traits<char>,std::allocator<char> >::operator+=

	lea	rdx, QWORD PTR [rbx+8]
	mov	rcx, rbp
	call	??0?$basic_string@DU?$char_traits@D@std@@V?$allocator@D@2@@std@@QEAA@AEBV01@@Z ; std::basic_string<char,std::char_traits<char>,std::allocator<char> >::basic_string<char,std::char_traits<char>,std::allocator<char> >

	mov	rbx, QWORD PTR [rsp+48]
	mov	rax, rbp
	mov	rbp, QWORD PTR [rsp+56]
	mov	rsi, QWORD PTR [rsp+64]
	add	rsp, 32					; 00000020H
	pop	rdi
	ret	0
?write@FastWriter@Json@@UEAA?AV?$basic_string@DU?$char_traits@D@std@@V?$allocator@D@2@@std@@AEBVValue@2@@Z ENDP ; Json::FastWriter::write
_TEXT	ENDS
; Function compile flags: /Ogtpy
; File d:\code\libshared\jsoncpp-src-0.5.0\src\lib_json\json_writer.cpp
; File d:\code\libshared\jsoncpp-src-0.5.0\src\lib_json\json_value.cpp
; File d:\code\libshared\jsoncpp-src-0.5.0\src\lib_json\json_writer.cpp
; File d:\code\libshared\jsoncpp-src-0.5.0\src\lib_json\json_value.cpp
; File c:\program files (x86)\microsoft visual studio\2017\enterprise\vc\tools\msvc\14.16.27023\include\xtree
; File d:\code\libshared\jsoncpp-src-0.5.0\src\lib_json\json_value.cpp
; File d:\code\libshared\jsoncpp-src-0.5.0\src\lib_json\json_writer.cpp
; File c:\program files (x86)\microsoft visual studio\2017\enterprise\vc\tools\msvc\14.16.27023\include\vector
; File d:\code\libshared\jsoncpp-src-0.5.0\src\lib_json\json_writer.cpp
; File c:\program files (x86)\microsoft visual studio\2017\enterprise\vc\tools\msvc\14.16.27023\include\vector
; File d:\code\libshared\jsoncpp-src-0.5.0\src\lib_json\json_writer.cpp
; File d:\code\libshared\jsoncpp-src-0.5.0\src\lib_json\json_value.cpp
; File d:\code\libshared\jsoncpp-src-0.5.0\src\lib_json\json_writer.cpp
; File c:\program files (x86)\microsoft visual studio\2017\enterprise\vc\tools\msvc\14.16.27023\include\vector
; File d:\code\libshared\jsoncpp-src-0.5.0\src\lib_json\json_writer.cpp
;	COMDAT ?writeValue@FastWriter@Json@@AEAAXAEBVValue@2@@Z
_TEXT	SEGMENT
$T13 = 32
$T19 = 32
key$26 = 40
it$27 = 40
$T9 = 56
$T23 = 56
$T28 = 64
members$29 = 72
$T7 = 72
$T6 = 72
$T4 = 72
$T3 = 72
$T2 = 72
$T25 = 104
__$ArrayPad$ = 136
this$ = 208
value$ = 216
?writeValue@FastWriter@Json@@AEAAXAEBVValue@2@@Z PROC	; Json::FastWriter::writeValue, COMDAT

$LN127:
	push	rbp
	push	rsi
	push	rdi
	push	r12
	push	r13
	push	r14
	push	r15
	lea	rbp, QWORD PTR [rsp-39]
	sub	rsp, 144				; 00000090H
	mov	QWORD PTR $T28[rbp-105], -2
	mov	QWORD PTR [rsp+224], rbx
	mov	rax, QWORD PTR __security_cookie
	xor	rax, rsp
	mov	QWORD PTR __$ArrayPad$[rbp-105], rax
	mov	rsi, rdx
	mov	r14, rcx
; File d:\code\libshared\jsoncpp-src-0.5.0\src\lib_json\json_value.cpp

; 530  :    allocated_ = other.allocated_;

	movsx	rax, BYTE PTR [rdx+8]
; File d:\code\libshared\jsoncpp-src-0.5.0\src\lib_json\json_writer.cpp

	cmp	eax, 7
	ja	$LN2@writeValue
	lea	rcx, OFFSET FLAT:__ImageBase
	mov	edx, DWORD PTR $LN124@writeValue[rcx+rax*4]
	add	rdx, rcx
	jmp	rdx
$LN10@writeValue:

	lea	rcx, QWORD PTR [r14+8]
	lea	rdx, OFFSET FLAT:??_C@_04MLLLIHIP@null@
	call	??Y?$basic_string@DU?$char_traits@D@std@@V?$allocator@D@2@@std@@QEAAAEAV01@QEBD@Z ; std::basic_string<char,std::char_traits<char>,std::allocator<char> >::operator+=

	jmp	$LN2@writeValue
$LN11@writeValue:

	mov	rcx, rsi
	call	?asInt@Value@Json@@QEBAHXZ		; Json::Value::asInt
	mov	edx, eax
	lea	rcx, QWORD PTR $T2[rbp-105]
	call	?valueToString@Json@@YA?AV?$basic_string@DU?$char_traits@D@std@@V?$allocator@D@2@@std@@H@Z ; Json::valueToString
	npad	1
	lea	rcx, QWORD PTR [r14+8]
	mov	rdx, rax
	call	??Y?$basic_string@DU?$char_traits@D@std@@V?$allocator@D@2@@std@@QEAAAEAV01@AEBV01@@Z ; std::basic_string<char,std::char_traits<char>,std::allocator<char> >::operator+=
	npad	1
	lea	rcx, QWORD PTR $T2[rbp-105]
	call	??1?$basic_string@DU?$char_traits@D@std@@V?$allocator@D@2@@std@@QEAA@XZ ; std::basic_string<char,std::char_traits<char>,std::allocator<char> >::~basic_string<char,std::char_traits<char>,std::allocator<char> >

	jmp	$LN2@writeValue
$LN12@writeValue:

	mov	rcx, rsi
	call	?asUInt@Value@Json@@QEBAIXZ		; Json::Value::asUInt
	mov	edx, eax
	lea	rcx, QWORD PTR $T3[rbp-105]
	call	?valueToString@Json@@YA?AV?$basic_string@DU?$char_traits@D@std@@V?$allocator@D@2@@std@@I@Z ; Json::valueToString
	npad	1
	lea	rcx, QWORD PTR [r14+8]
	mov	rdx, rax
	call	??Y?$basic_string@DU?$char_traits@D@std@@V?$allocator@D@2@@std@@QEAAAEAV01@AEBV01@@Z ; std::basic_string<char,std::char_traits<char>,std::allocator<char> >::operator+=
	npad	1
	lea	rcx, QWORD PTR $T3[rbp-105]
	call	??1?$basic_string@DU?$char_traits@D@std@@V?$allocator@D@2@@std@@QEAA@XZ ; std::basic_string<char,std::char_traits<char>,std::allocator<char> >::~basic_string<char,std::char_traits<char>,std::allocator<char> >

	jmp	$LN2@writeValue
$LN13@writeValue:

	mov	rcx, rsi
	call	?asDouble@Value@Json@@QEBANXZ		; Json::Value::asDouble
	movaps	xmm1, xmm0
	lea	rcx, QWORD PTR $T4[rbp-105]
	call	?valueToString@Json@@YA?AV?$basic_string@DU?$char_traits@D@std@@V?$allocator@D@2@@std@@N@Z ; Json::valueToString
	npad	1
	lea	rcx, QWORD PTR [r14+8]
	mov	rdx, rax
	call	??Y?$basic_string@DU?$char_traits@D@std@@V?$allocator@D@2@@std@@QEAAAEAV01@AEBV01@@Z ; std::basic_string<char,std::char_traits<char>,std::allocator<char> >::operator+=
	npad	1
	lea	rcx, QWORD PTR $T4[rbp-105]
	call	??1?$basic_string@DU?$char_traits@D@std@@V?$allocator@D@2@@std@@QEAA@XZ ; std::basic_string<char,std::char_traits<char>,std::allocator<char> >::~basic_string<char,std::char_traits<char>,std::allocator<char> >

	jmp	$LN2@writeValue
$LN14@writeValue:

	mov	rdx, QWORD PTR [rsi]
	lea	rcx, QWORD PTR $T6[rbp-105]
	call	?valueToQuotedString@Json@@YA?AV?$basic_string@DU?$char_traits@D@std@@V?$allocator@D@2@@std@@PEBD@Z ; Json::valueToQuotedString
	npad	1
	lea	rcx, QWORD PTR [r14+8]
	mov	rdx, rax
	call	??Y?$basic_string@DU?$char_traits@D@std@@V?$allocator@D@2@@std@@QEAAAEAV01@AEBV01@@Z ; std::basic_string<char,std::char_traits<char>,std::allocator<char> >::operator+=
	npad	1
	lea	rcx, QWORD PTR $T6[rbp-105]
	call	??1?$basic_string@DU?$char_traits@D@std@@V?$allocator@D@2@@std@@QEAA@XZ ; std::basic_string<char,std::char_traits<char>,std::allocator<char> >::~basic_string<char,std::char_traits<char>,std::allocator<char> >

	jmp	$LN2@writeValue
$LN15@writeValue:

	mov	rcx, rsi
	call	?asBool@Value@Json@@QEBA_NXZ		; Json::Value::asBool

	lea	rcx, OFFSET FLAT:??_C@_04LOAJBDKD@true@
	lea	rdx, OFFSET FLAT:??_C@_05LAPONLG@false@
	test	al, al
	cmovne	rdx, rcx
	lea	rcx, QWORD PTR $T7[rbp-105]
	call	??0?$basic_string@DU?$char_traits@D@std@@V?$allocator@D@2@@std@@QEAA@QEBD@Z ; std::basic_string<char,std::char_traits<char>,std::allocator<char> >::basic_string<char,std::char_traits<char>,std::allocator<char> >
	npad	1

	lea	rcx, QWORD PTR [r14+8]
	lea	rdx, QWORD PTR $T7[rbp-105]
	call	??Y?$basic_string@DU?$char_traits@D@std@@V?$allocator@D@2@@std@@QEAAAEAV01@AEBV01@@Z ; std::basic_string<char,std::char_traits<char>,std::allocator<char> >::operator+=
	npad	1
	lea	rcx, QWORD PTR $T7[rbp-105]
	call	??1?$basic_string@DU?$char_traits@D@std@@V?$allocator@D@2@@std@@QEAA@XZ ; std::basic_string<char,std::char_traits<char>,std::allocator<char> >::~basic_string<char,std::char_traits<char>,std::allocator<char> >

	jmp	$LN2@writeValue
$LN16@writeValue:

	lea	rdx, OFFSET FLAT:??_C@_01OHGJGJJP@?$FL@
	lea	rcx, QWORD PTR [r14+8]
	call	??Y?$basic_string@DU?$char_traits@D@std@@V?$allocator@D@2@@std@@QEAAAEAV01@QEBD@Z ; std::basic_string<char,std::char_traits<char>,std::allocator<char> >::operator+=

	mov	rcx, rsi
	call	?size@Value@Json@@QEBAIXZ		; Json::Value::size
	mov	r12d, eax

	xor	edi, edi
	test	eax, eax
	jle	SHORT $LN5@writeValue
	lea	r13, OFFSET FLAT:?null@Value@Json@@2V12@B ; Json::Value::null
$LL6@writeValue:

	test	edi, edi
	jle	SHORT $LN17@writeValue

	lea	rdx, OFFSET FLAT:??_C@_01IHBHIGKO@?0@
	lea	rcx, QWORD PTR [r14+8]
	call	??Y?$basic_string@DU?$char_traits@D@std@@V?$allocator@D@2@@std@@QEAAAEAV01@QEBD@Z ; std::basic_string<char,std::char_traits<char>,std::allocator<char> >::operator+=
$LN17@writeValue:
; File d:\code\libshared\jsoncpp-src-0.5.0\src\lib_json\json_value.cpp

; 999  : }

	cmp	BYTE PTR [rsi+8], 0
	jne	SHORT $LN37@writeValue

; 1000 : 

	mov	rdx, r13
	jmp	SHORT $LN36@writeValue
$LN37@writeValue:

; 175  : // //////////////////////////////////////////////////////////////////

	mov	QWORD PTR key$26[rbp-105], 0

; 176  : # ifndef JSON_VALUE_USE_INTERNAL_MAP

	mov	DWORD PTR key$26[rbp-97], edi

; 1003 : Value::operator[]( UInt index ) const

	lea	r8, QWORD PTR key$26[rbp-105]
	lea	rdx, QWORD PTR $T9[rbp-105]
	mov	rcx, QWORD PTR [rsi]
	call	?find@?$_Tree@V?$_Tmap_traits@VCZString@Value@Json@@V23@U?$less@VCZString@Value@Json@@@std@@V?$allocator@U?$pair@$$CBVCZString@Value@Json@@V23@@std@@@5@$0A@@std@@@std@@QEAA?AV?$_Tree_iterator@V?$_Tree_val@U?$_Tree_simple_types@U?$pair@$$CBVCZString@Value@Json@@V23@@std@@@std@@@std@@@2@AEBVCZString@Value@Json@@@Z ; std::_Tree<std::_Tmap_traits<Json::Value::CZString,Json::Value,std::less<Json::Value::CZString>,std::allocator<std::pair<Json::Value::CZString const ,Json::Value> >,0> >::find
	mov	rbx, QWORD PTR [rax]
; File c:\program files (x86)\microsoft visual studio\2017\enterprise\vc\tools\msvc\14.16.27023\include\xtree

; 1015 : 		return (_Mypair._Get_second()._Get_second());

	mov	rdx, QWORD PTR [rsi]

; 42   : 		: _Ptr(_Pnode)

	mov	rax, QWORD PTR [rdx]
	mov	QWORD PTR $T13[rbp-105], rax

; 43   : 		{	// construct with node pointer _Pnode
; 44   : 		this->_Adopt(_Plist);

	lea	rcx, QWORD PTR $T13[rbp-105]
	call	?_Adopt@_Iterator_base0@std@@QEAAXPEBX@Z ; std::_Iterator_base0::_Adopt

; 278  : 		return (this->_Ptr == _Right._Ptr);

	cmp	rbx, QWORD PTR $T13[rbp-105]
; File d:\code\libshared\jsoncpp-src-0.5.0\src\lib_json\json_value.cpp

; 1004 : {

	jne	SHORT $LN38@writeValue

; 1005 :    JSON_ASSERT( type_ == nullValue  ||  type_ == arrayValue );

	mov	rdx, r13
	jmp	SHORT $LN36@writeValue
$LN38@writeValue:

; 1006 :    if ( type_ == nullValue )

	lea	rdx, QWORD PTR [rbx+48]
$LN36@writeValue:
; File d:\code\libshared\jsoncpp-src-0.5.0\src\lib_json\json_writer.cpp

	mov	rcx, r14
	call	?writeValue@FastWriter@Json@@AEAAXAEBVValue@2@@Z ; Json::FastWriter::writeValue

	inc	edi
	cmp	edi, r12d
	jl	SHORT $LL6@writeValue
$LN5@writeValue:

	lea	rdx, OFFSET FLAT:??_C@_01LBDDMOBJ@?$FN@
	lea	rcx, QWORD PTR [r14+8]
	call	??Y?$basic_string@DU?$char_traits@D@std@@V?$allocator@D@2@@std@@QEAAAEAV01@QEBD@Z ; std::basic_string<char,std::char_traits<char>,std::allocator<char> >::operator+=

	jmp	$LN2@writeValue
$LN18@writeValue:

	lea	rdx, QWORD PTR members$29[rbp-105]
	mov	rcx, rsi
	call	?getMemberNames@Value@Json@@QEBA?AV?$vector@V?$basic_string@DU?$char_traits@D@std@@V?$allocator@D@2@@std@@V?$allocator@V?$basic_string@DU?$char_traits@D@std@@V?$allocator@D@2@@std@@@2@@std@@XZ ; Json::Value::getMemberNames
	npad	1

	lea	rdx, OFFSET FLAT:??_C@_01HCONENDN@?$HL@
	lea	rcx, QWORD PTR [r14+8]
	call	??Y?$basic_string@DU?$char_traits@D@std@@V?$allocator@D@2@@std@@QEAAAEAV01@QEBD@Z ; std::basic_string<char,std::char_traits<char>,std::allocator<char> >::operator+=
; File c:\program files (x86)\microsoft visual studio\2017\enterprise\vc\tools\msvc\14.16.27023\include\vector

; 1619 : 		return (iterator(this->_Myfirst(), _STD addressof(this->_Get_data())));

	lea	rcx, QWORD PTR members$29[rbp-105]
	call	?_Get_data@?$_Vector_alloc@U?$_Vec_base_types@V?$basic_string@DU?$char_traits@D@std@@V?$allocator@D@2@@std@@V?$allocator@V?$basic_string@DU?$char_traits@D@std@@V?$allocator@D@2@@std@@@2@@std@@@std@@QEAAAEAV?$_Vector_val@U?$_Simple_types@V?$basic_string@DU?$char_traits@D@std@@V?$allocator@D@2@@std@@@std@@@2@XZ ; std::_Vector_alloc<std::_Vec_base_types<std::basic_string<char,std::char_traits<char>,std::allocator<char> >,std::allocator<std::basic_string<char,std::char_traits<char>,std::allocator<char> > > > >::_Get_data
	mov	rbx, rax
	lea	rcx, QWORD PTR members$29[rbp-105]
	call	?_Myfirst@?$_Vector_alloc@U?$_Vec_base_types@V?$basic_string@DU?$char_traits@D@std@@V?$allocator@D@2@@std@@V?$allocator@V?$basic_string@DU?$char_traits@D@std@@V?$allocator@D@2@@std@@@2@@std@@@std@@QEAAAEAPEAV?$basic_string@DU?$char_traits@D@std@@V?$allocator@D@2@@2@XZ ; std::_Vector_alloc<std::_Vec_base_types<std::basic_string<char,std::char_traits<char>,std::allocator<char> >,std::allocator<std::basic_string<char,std::char_traits<char>,std::allocator<char> > > > >::_Myfirst

; 41   : 		: _Ptr(_Parg)

	mov	rcx, QWORD PTR [rax]
	mov	QWORD PTR it$27[rbp-105], rcx

; 42   : 		{	// construct with pointer _Parg
; 43   : 		this->_Adopt(_Pvector);

	mov	rdx, rbx
	lea	rcx, QWORD PTR it$27[rbp-105]
	call	?_Adopt@_Iterator_base0@std@@QEAAXPEBX@Z ; std::_Iterator_base0::_Adopt

; 1629 : 		return (iterator(this->_Mylast(), _STD addressof(this->_Get_data())));

	lea	rcx, QWORD PTR members$29[rbp-105]
	call	?_Get_data@?$_Vector_alloc@U?$_Vec_base_types@V?$basic_string@DU?$char_traits@D@std@@V?$allocator@D@2@@std@@V?$allocator@V?$basic_string@DU?$char_traits@D@std@@V?$allocator@D@2@@std@@@2@@std@@@std@@QEAAAEAV?$_Vector_val@U?$_Simple_types@V?$basic_string@DU?$char_traits@D@std@@V?$allocator@D@2@@std@@@std@@@2@XZ ; std::_Vector_alloc<std::_Vec_base_types<std::basic_string<char,std::char_traits<char>,std::allocator<char> >,std::allocator<std::basic_string<char,std::char_traits<char>,std::allocator<char> > > > >::_Get_data
	mov	rbx, rax
	lea	rcx, QWORD PTR members$29[rbp-105]
	call	?_Mylast@?$_Vector_alloc@U?$_Vec_base_types@V?$basic_string@DU?$char_traits@D@std@@V?$allocator@D@2@@std@@V?$allocator@V?$basic_string@DU?$char_traits@D@std@@V?$allocator@D@2@@std@@@2@@std@@@std@@QEAAAEAPEAV?$basic_string@DU?$char_traits@D@std@@V?$allocator@D@2@@2@XZ ; std::_Vector_alloc<std::_Vec_base_types<std::basic_string<char,std::char_traits<char>,std::allocator<char> >,std::allocator<std::basic_string<char,std::char_traits<char>,std::allocator<char> > > > >::_Mylast

; 41   : 		: _Ptr(_Parg)

	mov	rcx, QWORD PTR [rax]
	mov	QWORD PTR $T19[rbp-105], rcx

; 42   : 		{	// construct with pointer _Parg
; 43   : 		this->_Adopt(_Pvector);

	mov	rdx, rbx
	lea	rcx, QWORD PTR $T19[rbp-105]
	call	?_Adopt@_Iterator_base0@std@@QEAAXPEBX@Z ; std::_Iterator_base0::_Adopt

; 165  : 		return (_Ptr == _Right._Ptr);

	mov	r15, QWORD PTR it$27[rbp-105]
	cmp	r15, QWORD PTR $T19[rbp-105]
; File d:\code\libshared\jsoncpp-src-0.5.0\src\lib_json\json_writer.cpp

	je	$LN8@writeValue
	lea	r12, OFFSET FLAT:??_C@_02LMMGGCAJ@?3?5@
$LL9@writeValue:
; File c:\program files (x86)\microsoft visual studio\2017\enterprise\vc\tools\msvc\14.16.27023\include\vector

; 1619 : 		return (iterator(this->_Myfirst(), _STD addressof(this->_Get_data())));

	lea	rcx, QWORD PTR members$29[rbp-105]
	call	?_Get_data@?$_Vector_alloc@U?$_Vec_base_types@V?$basic_string@DU?$char_traits@D@std@@V?$allocator@D@2@@std@@V?$allocator@V?$basic_string@DU?$char_traits@D@std@@V?$allocator@D@2@@std@@@2@@std@@@std@@QEAAAEAV?$_Vector_val@U?$_Simple_types@V?$basic_string@DU?$char_traits@D@std@@V?$allocator@D@2@@std@@@std@@@2@XZ ; std::_Vector_alloc<std::_Vec_base_types<std::basic_string<char,std::char_traits<char>,std::allocator<char> >,std::allocator<std::basic_string<char,std::char_traits<char>,std::allocator<char> > > > >::_Get_data
	mov	rbx, rax
	lea	rcx, QWORD PTR members$29[rbp-105]
	call	?_Myfirst@?$_Vector_alloc@U?$_Vec_base_types@V?$basic_string@DU?$char_traits@D@std@@V?$allocator@D@2@@std@@V?$allocator@V?$basic_string@DU?$char_traits@D@std@@V?$allocator@D@2@@std@@@2@@std@@@std@@QEAAAEAPEAV?$basic_string@DU?$char_traits@D@std@@V?$allocator@D@2@@2@XZ ; std::_Vector_alloc<std::_Vec_base_types<std::basic_string<char,std::char_traits<char>,std::allocator<char> >,std::allocator<std::basic_string<char,std::char_traits<char>,std::allocator<char> > > > >::_Myfirst

; 41   : 		: _Ptr(_Parg)

	mov	rcx, QWORD PTR [rax]
	mov	QWORD PTR $T23[rbp-105], rcx

; 42   : 		{	// construct with pointer _Parg
; 43   : 		this->_Adopt(_Pvector);

	mov	rdx, rbx
	lea	rcx, QWORD PTR $T23[rbp-105]
	call	?_Adopt@_Iterator_base0@std@@QEAAXPEBX@Z ; std::_Iterator_base0::_Adopt

; 165  : 		return (_Ptr == _Right._Ptr);

	mov	rax, QWORD PTR $T23[rbp-105]
	cmp	QWORD PTR it$27[rbp-105], rax
; File d:\code\libshared\jsoncpp-src-0.5.0\src\lib_json\json_writer.cpp

	je	SHORT $LN19@writeValue

	lea	rdx, OFFSET FLAT:??_C@_01IHBHIGKO@?0@
	lea	rcx, QWORD PTR [r14+8]
	call	??Y?$basic_string@DU?$char_traits@D@std@@V?$allocator@D@2@@std@@QEAAAEAV01@QEBD@Z ; std::basic_string<char,std::char_traits<char>,std::allocator<char> >::operator+=
$LN19@writeValue:

	mov	rcx, r15
	call	?c_str@?$basic_string@DU?$char_traits@D@std@@V?$allocator@D@2@@std@@QEBAPEBDXZ ; std::basic_string<char,std::char_traits<char>,std::allocator<char> >::c_str
	mov	rdx, rax
	lea	rcx, QWORD PTR $T25[rbp-105]
	call	?valueToQuotedString@Json@@YA?AV?$basic_string@DU?$char_traits@D@std@@V?$allocator@D@2@@std@@PEBD@Z ; Json::valueToQuotedString
	npad	1
	mov	rdx, rax
	lea	rcx, QWORD PTR [r14+8]
	call	??Y?$basic_string@DU?$char_traits@D@std@@V?$allocator@D@2@@std@@QEAAAEAV01@AEBV01@@Z ; std::basic_string<char,std::char_traits<char>,std::allocator<char> >::operator+=
	npad	1
	lea	rcx, QWORD PTR $T25[rbp-105]
	call	??1?$basic_string@DU?$char_traits@D@std@@V?$allocator@D@2@@std@@QEAA@XZ ; std::basic_string<char,std::char_traits<char>,std::allocator<char> >::~basic_string<char,std::char_traits<char>,std::allocator<char> >

	lea	rdx, OFFSET FLAT:??_C@_01JLIPDDHJ@?3@
	cmp	BYTE PTR [r14+40], 0
	cmovne	rdx, r12
	lea	rcx, QWORD PTR [r14+8]
	call	??Y?$basic_string@DU?$char_traits@D@std@@V?$allocator@D@2@@std@@QEAAAEAV01@QEBD@Z ; std::basic_string<char,std::char_traits<char>,std::allocator<char> >::operator+=
; File d:\code\libshared\jsoncpp-src-0.5.0\src\lib_json\json_value.cpp

; 1091 :    return (*this)[ key.c_str() ];

	mov	rcx, r15
	call	?c_str@?$basic_string@DU?$char_traits@D@std@@V?$allocator@D@2@@std@@QEBAPEBDXZ ; std::basic_string<char,std::char_traits<char>,std::allocator<char> >::c_str
	mov	rdx, rax
	mov	rcx, rsi
	call	??AValue@Json@@QEBAAEBV01@PEBD@Z	; Json::Value::operator[]
	mov	rdx, rax
; File d:\code\libshared\jsoncpp-src-0.5.0\src\lib_json\json_writer.cpp

	mov	rcx, r14
	call	?writeValue@FastWriter@Json@@AEAAXAEBVValue@2@@Z ; Json::FastWriter::writeValue
; File c:\program files (x86)\microsoft visual studio\2017\enterprise\vc\tools\msvc\14.16.27023\include\vector

; 78   : 		++_Ptr;

	add	QWORD PTR it$27[rbp-105], 32		; 00000020H

; 1629 : 		return (iterator(this->_Mylast(), _STD addressof(this->_Get_data())));

	lea	rcx, QWORD PTR members$29[rbp-105]
	call	?_Get_data@?$_Vector_alloc@U?$_Vec_base_types@V?$basic_string@DU?$char_traits@D@std@@V?$allocator@D@2@@std@@V?$allocator@V?$basic_string@DU?$char_traits@D@std@@V?$allocator@D@2@@std@@@2@@std@@@std@@QEAAAEAV?$_Vector_val@U?$_Simple_types@V?$basic_string@DU?$char_traits@D@std@@V?$allocator@D@2@@std@@@std@@@2@XZ ; std::_Vector_alloc<std::_Vec_base_types<std::basic_string<char,std::char_traits<char>,std::allocator<char> >,std::allocator<std::basic_string<char,std::char_traits<char>,std::allocator<char> > > > >::_Get_data
	mov	rbx, rax
	lea	rcx, QWORD PTR members$29[rbp-105]
	call	?_Mylast@?$_Vector_alloc@U?$_Vec_base_types@V?$basic_string@DU?$char_traits@D@std@@V?$allocator@D@2@@std@@V?$allocator@V?$basic_string@DU?$char_traits@D@std@@V?$allocator@D@2@@std@@@2@@std@@@std@@QEAAAEAPEAV?$basic_string@DU?$char_traits@D@std@@V?$allocator@D@2@@2@XZ ; std::_Vector_alloc<std::_Vec_base_types<std::basic_string<char,std::char_traits<char>,std::allocator<char> >,std::allocator<std::basic_string<char,std::char_traits<char>,std::allocator<char> > > > >::_Mylast

; 41   : 		: _Ptr(_Parg)

	mov	rdx, QWORD PTR [rax]
	mov	QWORD PTR $T19[rbp-105], rdx

; 42   : 		{	// construct with pointer _Parg
; 43   : 		this->_Adopt(_Pvector);

	mov	rdx, rbx
	lea	rcx, QWORD PTR $T19[rbp-105]
	call	?_Adopt@_Iterator_base0@std@@QEAAXPEBX@Z ; std::_Iterator_base0::_Adopt

; 165  : 		return (_Ptr == _Right._Ptr);

	mov	r15, QWORD PTR it$27[rbp-105]
	cmp	r15, QWORD PTR $T19[rbp-105]
; File d:\code\libshared\jsoncpp-src-0.5.0\src\lib_json\json_writer.cpp

	jne	$LL9@writeValue
$LN8@writeValue:

	lea	rdx, OFFSET FLAT:??_C@_01CELHOKLL@?$HN@
	lea	rcx, QWORD PTR [r14+8]
	call	??Y?$basic_string@DU?$char_traits@D@std@@V?$allocator@D@2@@std@@QEAAAEAV01@QEBD@Z ; std::basic_string<char,std::char_traits<char>,std::allocator<char> >::operator+=
	npad	1

	lea	rcx, QWORD PTR members$29[rbp-105]
	call	??1?$vector@V?$basic_string@DU?$char_traits@D@std@@V?$allocator@D@2@@std@@V?$allocator@V?$basic_string@DU?$char_traits@D@std@@V?$allocator@D@2@@std@@@2@@std@@QEAA@XZ ; std::vector<std::basic_string<char,std::char_traits<char>,std::allocator<char> >,std::allocator<std::basic_string<char,std::char_traits<char>,std::allocator<char> > > >::~vector<std::basic_string<char,std::char_traits<char>,std::allocator<char> >,std::allocator<std::basic_string<char,std::char_traits<char>,std::allocator<char> > > >
$LN2@writeValue:

	mov	rcx, QWORD PTR __$ArrayPad$[rbp-105]
	xor	rcx, rsp
	call	__security_check_cookie
	mov	rbx, QWORD PTR [rsp+224]
	add	rsp, 144				; 00000090H
	pop	r15
	pop	r14
	pop	r13
	pop	r12
	pop	rdi
	pop	rsi
	pop	rbp
	ret	0
	npad	1
$LN124@writeValue:
	DD	$LN10@writeValue
	DD	$LN11@writeValue
	DD	$LN12@writeValue
	DD	$LN13@writeValue
	DD	$LN14@writeValue
	DD	$LN15@writeValue
	DD	$LN16@writeValue
	DD	$LN18@writeValue
?writeValue@FastWriter@Json@@AEAAXAEBVValue@2@@Z ENDP	; Json::FastWriter::writeValue
_TEXT	ENDS
;	COMDAT text$x
text$x	SEGMENT
$T13 = 32
$T19 = 32
key$26 = 40
it$27 = 40
$T9 = 56
$T23 = 56
$T28 = 64
members$29 = 72
$T7 = 72
$T6 = 72
$T4 = 72
$T3 = 72
$T2 = 72
$T25 = 104
__$ArrayPad$ = 136
this$ = 208
value$ = 216
?dtor$0@?0??writeValue@FastWriter@Json@@AEAAXAEBVValue@2@@Z@4HA PROC ; `Json::FastWriter::writeValue'::`1'::dtor$0
	lea	rcx, QWORD PTR $T2[rdx]
	jmp	??1?$basic_string@DU?$char_traits@D@std@@V?$allocator@D@2@@std@@QEAA@XZ ; std::basic_string<char,std::char_traits<char>,std::allocator<char> >::~basic_string<char,std::char_traits<char>,std::allocator<char> >
?dtor$0@?0??writeValue@FastWriter@Json@@AEAAXAEBVValue@2@@Z@4HA ENDP ; `Json::FastWriter::writeValue'::`1'::dtor$0
$T13 = 32
$T19 = 32
key$26 = 40
it$27 = 40
$T9 = 56
$T23 = 56
$T28 = 64
members$29 = 72
$T7 = 72
$T6 = 72
$T4 = 72
$T3 = 72
$T2 = 72
$T25 = 104
__$ArrayPad$ = 136
this$ = 208
value$ = 216
?dtor$1@?0??writeValue@FastWriter@Json@@AEAAXAEBVValue@2@@Z@4HA PROC ; `Json::FastWriter::writeValue'::`1'::dtor$1
	lea	rcx, QWORD PTR $T3[rdx]
	jmp	??1?$basic_string@DU?$char_traits@D@std@@V?$allocator@D@2@@std@@QEAA@XZ ; std::basic_string<char,std::char_traits<char>,std::allocator<char> >::~basic_string<char,std::char_traits<char>,std::allocator<char> >
?dtor$1@?0??writeValue@FastWriter@Json@@AEAAXAEBVValue@2@@Z@4HA ENDP ; `Json::FastWriter::writeValue'::`1'::dtor$1
$T13 = 32
$T19 = 32
key$26 = 40
it$27 = 40
$T9 = 56
$T23 = 56
$T28 = 64
members$29 = 72
$T7 = 72
$T6 = 72
$T4 = 72
$T3 = 72
$T2 = 72
$T25 = 104
__$ArrayPad$ = 136
this$ = 208
value$ = 216
?dtor$2@?0??writeValue@FastWriter@Json@@AEAAXAEBVValue@2@@Z@4HA PROC ; `Json::FastWriter::writeValue'::`1'::dtor$2
	lea	rcx, QWORD PTR $T4[rdx]
	jmp	??1?$basic_string@DU?$char_traits@D@std@@V?$allocator@D@2@@std@@QEAA@XZ ; std::basic_string<char,std::char_traits<char>,std::allocator<char> >::~basic_string<char,std::char_traits<char>,std::allocator<char> >
?dtor$2@?0??writeValue@FastWriter@Json@@AEAAXAEBVValue@2@@Z@4HA ENDP ; `Json::FastWriter::writeValue'::`1'::dtor$2
$T13 = 32
$T19 = 32
key$26 = 40
it$27 = 40
$T9 = 56
$T23 = 56
$T28 = 64
members$29 = 72
$T7 = 72
$T6 = 72
$T4 = 72
$T3 = 72
$T2 = 72
$T25 = 104
__$ArrayPad$ = 136
this$ = 208
value$ = 216
?dtor$3@?0??writeValue@FastWriter@Json@@AEAAXAEBVValue@2@@Z@4HA PROC ; `Json::FastWriter::writeValue'::`1'::dtor$3
	lea	rcx, QWORD PTR $T6[rdx]
	jmp	??1?$basic_string@DU?$char_traits@D@std@@V?$allocator@D@2@@std@@QEAA@XZ ; std::basic_string<char,std::char_traits<char>,std::allocator<char> >::~basic_string<char,std::char_traits<char>,std::allocator<char> >
?dtor$3@?0??writeValue@FastWriter@Json@@AEAAXAEBVValue@2@@Z@4HA ENDP ; `Json::FastWriter::writeValue'::`1'::dtor$3
$T13 = 32
$T19 = 32
key$26 = 40
it$27 = 40
$T9 = 56
$T23 = 56
$T28 = 64
members$29 = 72
$T7 = 72
$T6 = 72
$T4 = 72
$T3 = 72
$T2 = 72
$T25 = 104
__$ArrayPad$ = 136
this$ = 208
value$ = 216
?dtor$4@?0??writeValue@FastWriter@Json@@AEAAXAEBVValue@2@@Z@4HA PROC ; `Json::FastWriter::writeValue'::`1'::dtor$4
	lea	rcx, QWORD PTR $T7[rdx]
	jmp	??1?$basic_string@DU?$char_traits@D@std@@V?$allocator@D@2@@std@@QEAA@XZ ; std::basic_string<char,std::char_traits<char>,std::allocator<char> >::~basic_string<char,std::char_traits<char>,std::allocator<char> >
?dtor$4@?0??writeValue@FastWriter@Json@@AEAAXAEBVValue@2@@Z@4HA ENDP ; `Json::FastWriter::writeValue'::`1'::dtor$4
$T13 = 32
$T19 = 32
key$26 = 40
it$27 = 40
$T9 = 56
$T23 = 56
$T28 = 64
members$29 = 72
$T7 = 72
$T6 = 72
$T4 = 72
$T3 = 72
$T2 = 72
$T25 = 104
__$ArrayPad$ = 136
this$ = 208
value$ = 216
?dtor$5@?0??writeValue@FastWriter@Json@@AEAAXAEBVValue@2@@Z@4HA PROC ; `Json::FastWriter::writeValue'::`1'::dtor$5
	lea	rcx, QWORD PTR members$29[rdx]
	jmp	??1?$vector@V?$basic_string@DU?$char_traits@D@std@@V?$allocator@D@2@@std@@V?$allocator@V?$basic_string@DU?$char_traits@D@std@@V?$allocator@D@2@@std@@@2@@std@@QEAA@XZ ; std::vector<std::basic_string<char,std::char_traits<char>,std::allocator<char> >,std::allocator<std::basic_string<char,std::char_traits<char>,std::allocator<char> > > >::~vector<std::basic_string<char,std::char_traits<char>,std::allocator<char> >,std::allocator<std::basic_string<char,std::char_traits<char>,std::allocator<char> > > >
?dtor$5@?0??writeValue@FastWriter@Json@@AEAAXAEBVValue@2@@Z@4HA ENDP ; `Json::FastWriter::writeValue'::`1'::dtor$5
$T13 = 32
$T19 = 32
key$26 = 40
it$27 = 40
$T9 = 56
$T23 = 56
$T28 = 64
members$29 = 72
$T7 = 72
$T6 = 72
$T4 = 72
$T3 = 72
$T2 = 72
$T25 = 104
__$ArrayPad$ = 136
this$ = 208
value$ = 216
?dtor$6@?0??writeValue@FastWriter@Json@@AEAAXAEBVValue@2@@Z@4HA PROC ; `Json::FastWriter::writeValue'::`1'::dtor$6
	lea	rcx, QWORD PTR $T25[rdx]
	jmp	??1?$basic_string@DU?$char_traits@D@std@@V?$allocator@D@2@@std@@QEAA@XZ ; std::basic_string<char,std::char_traits<char>,std::allocator<char> >::~basic_string<char,std::char_traits<char>,std::allocator<char> >
?dtor$6@?0??writeValue@FastWriter@Json@@AEAAXAEBVValue@2@@Z@4HA ENDP ; `Json::FastWriter::writeValue'::`1'::dtor$6
text$x	ENDS
; Function compile flags: /Ogtpy
;	COMDAT text$x
text$x	SEGMENT
$T13 = 32
$T19 = 32
key$26 = 40
it$27 = 40
$T9 = 56
$T23 = 56
$T28 = 64
members$29 = 72
$T7 = 72
$T6 = 72
$T4 = 72
$T3 = 72
$T2 = 72
$T25 = 104
__$ArrayPad$ = 136
this$ = 208
value$ = 216
?dtor$0@?0??writeValue@FastWriter@Json@@AEAAXAEBVValue@2@@Z@4HA PROC ; `Json::FastWriter::writeValue'::`1'::dtor$0
	lea	rcx, QWORD PTR $T2[rdx]
	jmp	??1?$basic_string@DU?$char_traits@D@std@@V?$allocator@D@2@@std@@QEAA@XZ ; std::basic_string<char,std::char_traits<char>,std::allocator<char> >::~basic_string<char,std::char_traits<char>,std::allocator<char> >
?dtor$0@?0??writeValue@FastWriter@Json@@AEAAXAEBVValue@2@@Z@4HA ENDP ; `Json::FastWriter::writeValue'::`1'::dtor$0
text$x	ENDS
; Function compile flags: /Ogtpy
;	COMDAT text$x
text$x	SEGMENT
$T13 = 32
$T19 = 32
key$26 = 40
it$27 = 40
$T9 = 56
$T23 = 56
$T28 = 64
members$29 = 72
$T7 = 72
$T6 = 72
$T4 = 72
$T3 = 72
$T2 = 72
$T25 = 104
__$ArrayPad$ = 136
this$ = 208
value$ = 216
?dtor$1@?0??writeValue@FastWriter@Json@@AEAAXAEBVValue@2@@Z@4HA PROC ; `Json::FastWriter::writeValue'::`1'::dtor$1
	lea	rcx, QWORD PTR $T3[rdx]
	jmp	??1?$basic_string@DU?$char_traits@D@std@@V?$allocator@D@2@@std@@QEAA@XZ ; std::basic_string<char,std::char_traits<char>,std::allocator<char> >::~basic_string<char,std::char_traits<char>,std::allocator<char> >
?dtor$1@?0??writeValue@FastWriter@Json@@AEAAXAEBVValue@2@@Z@4HA ENDP ; `Json::FastWriter::writeValue'::`1'::dtor$1
text$x	ENDS
; Function compile flags: /Ogtpy
;	COMDAT text$x
text$x	SEGMENT
$T13 = 32
$T19 = 32
key$26 = 40
it$27 = 40
$T9 = 56
$T23 = 56
$T28 = 64
members$29 = 72
$T7 = 72
$T6 = 72
$T4 = 72
$T3 = 72
$T2 = 72
$T25 = 104
__$ArrayPad$ = 136
this$ = 208
value$ = 216
?dtor$2@?0??writeValue@FastWriter@Json@@AEAAXAEBVValue@2@@Z@4HA PROC ; `Json::FastWriter::writeValue'::`1'::dtor$2
	lea	rcx, QWORD PTR $T4[rdx]
	jmp	??1?$basic_string@DU?$char_traits@D@std@@V?$allocator@D@2@@std@@QEAA@XZ ; std::basic_string<char,std::char_traits<char>,std::allocator<char> >::~basic_string<char,std::char_traits<char>,std::allocator<char> >
?dtor$2@?0??writeValue@FastWriter@Json@@AEAAXAEBVValue@2@@Z@4HA ENDP ; `Json::FastWriter::writeValue'::`1'::dtor$2
text$x	ENDS
; Function compile flags: /Ogtpy
;	COMDAT text$x
text$x	SEGMENT
$T13 = 32
$T19 = 32
key$26 = 40
it$27 = 40
$T9 = 56
$T23 = 56
$T28 = 64
members$29 = 72
$T7 = 72
$T6 = 72
$T4 = 72
$T3 = 72
$T2 = 72
$T25 = 104
__$ArrayPad$ = 136
this$ = 208
value$ = 216
?dtor$3@?0??writeValue@FastWriter@Json@@AEAAXAEBVValue@2@@Z@4HA PROC ; `Json::FastWriter::writeValue'::`1'::dtor$3
	lea	rcx, QWORD PTR $T6[rdx]
	jmp	??1?$basic_string@DU?$char_traits@D@std@@V?$allocator@D@2@@std@@QEAA@XZ ; std::basic_string<char,std::char_traits<char>,std::allocator<char> >::~basic_string<char,std::char_traits<char>,std::allocator<char> >
?dtor$3@?0??writeValue@FastWriter@Json@@AEAAXAEBVValue@2@@Z@4HA ENDP ; `Json::FastWriter::writeValue'::`1'::dtor$3
text$x	ENDS
; Function compile flags: /Ogtpy
;	COMDAT text$x
text$x	SEGMENT
$T13 = 32
$T19 = 32
key$26 = 40
it$27 = 40
$T9 = 56
$T23 = 56
$T28 = 64
members$29 = 72
$T7 = 72
$T6 = 72
$T4 = 72
$T3 = 72
$T2 = 72
$T25 = 104
__$ArrayPad$ = 136
this$ = 208
value$ = 216
?dtor$4@?0??writeValue@FastWriter@Json@@AEAAXAEBVValue@2@@Z@4HA PROC ; `Json::FastWriter::writeValue'::`1'::dtor$4
	lea	rcx, QWORD PTR $T7[rdx]
	jmp	??1?$basic_string@DU?$char_traits@D@std@@V?$allocator@D@2@@std@@QEAA@XZ ; std::basic_string<char,std::char_traits<char>,std::allocator<char> >::~basic_string<char,std::char_traits<char>,std::allocator<char> >
?dtor$4@?0??writeValue@FastWriter@Json@@AEAAXAEBVValue@2@@Z@4HA ENDP ; `Json::FastWriter::writeValue'::`1'::dtor$4
text$x	ENDS
; Function compile flags: /Ogtpy
;	COMDAT text$x
text$x	SEGMENT
$T13 = 32
$T19 = 32
key$26 = 40
it$27 = 40
$T9 = 56
$T23 = 56
$T28 = 64
members$29 = 72
$T7 = 72
$T6 = 72
$T4 = 72
$T3 = 72
$T2 = 72
$T25 = 104
__$ArrayPad$ = 136
this$ = 208
value$ = 216
?dtor$5@?0??writeValue@FastWriter@Json@@AEAAXAEBVValue@2@@Z@4HA PROC ; `Json::FastWriter::writeValue'::`1'::dtor$5
	lea	rcx, QWORD PTR members$29[rdx]
	jmp	??1?$vector@V?$basic_string@DU?$char_traits@D@std@@V?$allocator@D@2@@std@@V?$allocator@V?$basic_string@DU?$char_traits@D@std@@V?$allocator@D@2@@std@@@2@@std@@QEAA@XZ ; std::vector<std::basic_string<char,std::char_traits<char>,std::allocator<char> >,std::allocator<std::basic_string<char,std::char_traits<char>,std::allocator<char> > > >::~vector<std::basic_string<char,std::char_traits<char>,std::allocator<char> >,std::allocator<std::basic_string<char,std::char_traits<char>,std::allocator<char> > > >
?dtor$5@?0??writeValue@FastWriter@Json@@AEAAXAEBVValue@2@@Z@4HA ENDP ; `Json::FastWriter::writeValue'::`1'::dtor$5
text$x	ENDS
; Function compile flags: /Ogtpy
;	COMDAT text$x
text$x	SEGMENT
$T13 = 32
$T19 = 32
key$26 = 40
it$27 = 40
$T9 = 56
$T23 = 56
$T28 = 64
members$29 = 72
$T7 = 72
$T6 = 72
$T4 = 72
$T3 = 72
$T2 = 72
$T25 = 104
__$ArrayPad$ = 136
this$ = 208
value$ = 216
?dtor$6@?0??writeValue@FastWriter@Json@@AEAAXAEBVValue@2@@Z@4HA PROC ; `Json::FastWriter::writeValue'::`1'::dtor$6
	lea	rcx, QWORD PTR $T25[rdx]
	jmp	??1?$basic_string@DU?$char_traits@D@std@@V?$allocator@D@2@@std@@QEAA@XZ ; std::basic_string<char,std::char_traits<char>,std::allocator<char> >::~basic_string<char,std::char_traits<char>,std::allocator<char> >
?dtor$6@?0??writeValue@FastWriter@Json@@AEAAXAEBVValue@2@@Z@4HA ENDP ; `Json::FastWriter::writeValue'::`1'::dtor$6
text$x	ENDS
; Function compile flags: /Ogtpy
; File d:\code\libshared\jsoncpp-src-0.5.0\src\lib_json\json_writer.cpp
;	COMDAT ??0StyledWriter@Json@@QEAA@XZ
_TEXT	SEGMENT
this$ = 48
??0StyledWriter@Json@@QEAA@XZ PROC			; Json::StyledWriter::StyledWriter, COMDAT

$LN7:
	push	rbx
	sub	rsp, 32					; 00000020H
	lea	rax, OFFSET FLAT:??_7StyledWriter@Json@@6B@
	mov	rbx, rcx
	mov	QWORD PTR [rcx], rax
	add	rcx, 8
	call	??0?$vector@V?$basic_string@DU?$char_traits@D@std@@V?$allocator@D@2@@std@@V?$allocator@V?$basic_string@DU?$char_traits@D@std@@V?$allocator@D@2@@std@@@2@@std@@QEAA@XZ ; std::vector<std::basic_string<char,std::char_traits<char>,std::allocator<char> >,std::allocator<std::basic_string<char,std::char_traits<char>,std::allocator<char> > > >::vector<std::basic_string<char,std::char_traits<char>,std::allocator<char> >,std::allocator<std::basic_string<char,std::char_traits<char>,std::allocator<char> > > >
	lea	rcx, QWORD PTR [rbx+32]
	call	??0?$basic_string@DU?$char_traits@D@std@@V?$allocator@D@2@@std@@QEAA@XZ ; std::basic_string<char,std::char_traits<char>,std::allocator<char> >::basic_string<char,std::char_traits<char>,std::allocator<char> >
	lea	rcx, QWORD PTR [rbx+64]
	call	??0?$basic_string@DU?$char_traits@D@std@@V?$allocator@D@2@@std@@QEAA@XZ ; std::basic_string<char,std::char_traits<char>,std::allocator<char> >::basic_string<char,std::char_traits<char>,std::allocator<char> >

	mov	rax, rbx
	mov	DWORD PTR [rbx+96], 74			; 0000004aH
	mov	DWORD PTR [rbx+100], 3
	add	rsp, 32					; 00000020H
	pop	rbx
	ret	0
??0StyledWriter@Json@@QEAA@XZ ENDP			; Json::StyledWriter::StyledWriter
_TEXT	ENDS
; Function compile flags: /Ogtpy
; File d:\code\libshared\jsoncpp-src-0.5.0\src\lib_json\json_writer.cpp
;	COMDAT ?write@StyledWriter@Json@@UEAA?AV?$basic_string@DU?$char_traits@D@std@@V?$allocator@D@2@@std@@AEBVValue@2@@Z
_TEXT	SEGMENT
this$ = 48
__$ReturnUdt$ = 56
root$ = 64
?write@StyledWriter@Json@@UEAA?AV?$basic_string@DU?$char_traits@D@std@@V?$allocator@D@2@@std@@AEBVValue@2@@Z PROC ; Json::StyledWriter::write, COMDAT

$LN7:
	mov	QWORD PTR [rsp+8], rbx
	mov	QWORD PTR [rsp+16], rbp
	mov	QWORD PTR [rsp+24], rsi
	push	rdi
	sub	rsp, 32					; 00000020H
	mov	rbp, rdx
	mov	rbx, rcx

	lea	rdx, OFFSET FLAT:??_C@_00CNPNBAHC@@
	add	rcx, 32					; 00000020H
	mov	rdi, r8
	call	??4?$basic_string@DU?$char_traits@D@std@@V?$allocator@D@2@@std@@QEAAAEAV01@QEBD@Z ; std::basic_string<char,std::char_traits<char>,std::allocator<char> >::operator=

	lea	rcx, QWORD PTR [rbx+64]
	mov	BYTE PTR [rbx+104], 0
	lea	rdx, OFFSET FLAT:??_C@_00CNPNBAHC@@
	call	??4?$basic_string@DU?$char_traits@D@std@@V?$allocator@D@2@@std@@QEAAAEAV01@QEBD@Z ; std::basic_string<char,std::char_traits<char>,std::allocator<char> >::operator=

	mov	rdx, rdi
	mov	rcx, rbx
	call	?writeCommentBeforeValue@StyledWriter@Json@@AEAAXAEBVValue@2@@Z ; Json::StyledWriter::writeCommentBeforeValue

	mov	rdx, rdi
	mov	rcx, rbx
	call	?writeValue@StyledWriter@Json@@AEAAXAEBVValue@2@@Z ; Json::StyledWriter::writeValue

	mov	rdx, rdi
	mov	rcx, rbx
	call	?writeCommentAfterValueOnSameLine@StyledWriter@Json@@AEAAXAEBVValue@2@@Z ; Json::StyledWriter::writeCommentAfterValueOnSameLine

	lea	rdx, OFFSET FLAT:??_C@_01EEMJAFIK@?6@
	lea	rcx, QWORD PTR [rbx+32]
	call	??Y?$basic_string@DU?$char_traits@D@std@@V?$allocator@D@2@@std@@QEAAAEAV01@QEBD@Z ; std::basic_string<char,std::char_traits<char>,std::allocator<char> >::operator+=

	lea	rdx, QWORD PTR [rbx+32]
	mov	rcx, rbp
	call	??0?$basic_string@DU?$char_traits@D@std@@V?$allocator@D@2@@std@@QEAA@AEBV01@@Z ; std::basic_string<char,std::char_traits<char>,std::allocator<char> >::basic_string<char,std::char_traits<char>,std::allocator<char> >

	mov	rbx, QWORD PTR [rsp+48]
	mov	rax, rbp
	mov	rbp, QWORD PTR [rsp+56]
	mov	rsi, QWORD PTR [rsp+64]
	add	rsp, 32					; 00000020H
	pop	rdi
	ret	0
?write@StyledWriter@Json@@UEAA?AV?$basic_string@DU?$char_traits@D@std@@V?$allocator@D@2@@std@@AEBVValue@2@@Z ENDP ; Json::StyledWriter::write
_TEXT	ENDS
; Function compile flags: /Ogtpy
; File d:\code\libshared\jsoncpp-src-0.5.0\src\lib_json\json_writer.cpp
; File d:\code\libshared\jsoncpp-src-0.5.0\src\lib_json\json_value.cpp
; File d:\code\libshared\jsoncpp-src-0.5.0\src\lib_json\json_writer.cpp
; File c:\program files (x86)\microsoft visual studio\2017\enterprise\vc\tools\msvc\14.16.27023\include\vector
; File d:\code\libshared\jsoncpp-src-0.5.0\src\lib_json\json_writer.cpp
; File c:\program files (x86)\microsoft visual studio\2017\enterprise\vc\tools\msvc\14.16.27023\include\vector
; File d:\code\libshared\jsoncpp-src-0.5.0\src\lib_json\json_writer.cpp
; File d:\code\libshared\jsoncpp-src-0.5.0\src\lib_json\json_value.cpp
; File d:\code\libshared\jsoncpp-src-0.5.0\src\lib_json\json_writer.cpp
; File c:\program files (x86)\microsoft visual studio\2017\enterprise\vc\tools\msvc\14.16.27023\include\vector
; File d:\code\libshared\jsoncpp-src-0.5.0\src\lib_json\json_writer.cpp
; File d:\code\libshared\jsoncpp-src-0.5.0\src\lib_json\json_value.cpp
; File d:\code\libshared\jsoncpp-src-0.5.0\src\lib_json\json_writer.cpp
; File c:\program files (x86)\microsoft visual studio\2017\enterprise\vc\tools\msvc\14.16.27023\include\vector
; File d:\code\libshared\jsoncpp-src-0.5.0\src\lib_json\json_writer.cpp
;	COMDAT ?writeValue@StyledWriter@Json@@AEAAXAEBVValue@2@@Z
_TEXT	SEGMENT
it$24 = 32
$T21 = 40
$T25 = 48
$T23 = 56
$T19 = 56
$T16 = 56
$T15 = 56
$T10 = 56
$T7 = 56
$T5 = 56
$T3 = 56
members$26 = 88
$T12 = 88
$T2 = 88
__$ArrayPad$ = 120
this$ = 176
value$ = 184
?writeValue@StyledWriter@Json@@AEAAXAEBVValue@2@@Z PROC	; Json::StyledWriter::writeValue, COMDAT

$LN106:
	push	rbp
	push	rsi
	push	rdi
	push	r14
	push	r15
	mov	rbp, rsp
	sub	rsp, 128				; 00000080H
	mov	QWORD PTR $T25[rbp-128], -2
	mov	QWORD PTR [rsp+192], rbx
	mov	rax, QWORD PTR __security_cookie
	xor	rax, rsp
	mov	QWORD PTR __$ArrayPad$[rbp-128], rax
	mov	rsi, rdx
	mov	rdi, rcx
; File d:\code\libshared\jsoncpp-src-0.5.0\src\lib_json\json_value.cpp

; 530  :    allocated_ = other.allocated_;

	movsx	rax, BYTE PTR [rdx+8]
; File d:\code\libshared\jsoncpp-src-0.5.0\src\lib_json\json_writer.cpp

	cmp	eax, 7
	ja	$LN2@writeValue
	lea	rdx, OFFSET FLAT:__ImageBase
	mov	ecx, DWORD PTR $LN102@writeValue[rdx+rax*4]
	add	rcx, rdx
	jmp	rcx
$LN6@writeValue:

	lea	rdx, OFFSET FLAT:??_C@_04MLLLIHIP@null@
	lea	rcx, QWORD PTR $T2[rbp-128]
	call	??0?$basic_string@DU?$char_traits@D@std@@V?$allocator@D@2@@std@@QEAA@QEBD@Z ; std::basic_string<char,std::char_traits<char>,std::allocator<char> >::basic_string<char,std::char_traits<char>,std::allocator<char> >
	npad	1

	lea	rdx, QWORD PTR $T2[rbp-128]
	cmp	BYTE PTR [rdi+104], 0
	je	SHORT $LN32@writeValue

	lea	rcx, QWORD PTR [rdi+8]
	call	?push_back@?$vector@V?$basic_string@DU?$char_traits@D@std@@V?$allocator@D@2@@std@@V?$allocator@V?$basic_string@DU?$char_traits@D@std@@V?$allocator@D@2@@std@@@2@@std@@QEAAXAEBV?$basic_string@DU?$char_traits@D@std@@V?$allocator@D@2@@2@@Z ; std::vector<std::basic_string<char,std::char_traits<char>,std::allocator<char> >,std::allocator<std::basic_string<char,std::char_traits<char>,std::allocator<char> > > >::push_back

	jmp	SHORT $LN33@writeValue
$LN32@writeValue:

	lea	rcx, QWORD PTR [rdi+32]
	call	??Y?$basic_string@DU?$char_traits@D@std@@V?$allocator@D@2@@std@@QEAAAEAV01@AEBV01@@Z ; std::basic_string<char,std::char_traits<char>,std::allocator<char> >::operator+=
	npad	1
$LN33@writeValue:

	lea	rcx, QWORD PTR $T2[rbp-128]
	call	??1?$basic_string@DU?$char_traits@D@std@@V?$allocator@D@2@@std@@QEAA@XZ ; std::basic_string<char,std::char_traits<char>,std::allocator<char> >::~basic_string<char,std::char_traits<char>,std::allocator<char> >

	jmp	$LN2@writeValue
$LN7@writeValue:

	mov	rcx, rsi
	call	?asInt@Value@Json@@QEBAHXZ		; Json::Value::asInt
	mov	edx, eax
	lea	rcx, QWORD PTR $T3[rbp-128]
	call	?valueToString@Json@@YA?AV?$basic_string@DU?$char_traits@D@std@@V?$allocator@D@2@@std@@H@Z ; Json::valueToString
	npad	1

	mov	rdx, rax
	cmp	BYTE PTR [rdi+104], 0
	je	SHORT $LN36@writeValue

	lea	rcx, QWORD PTR [rdi+8]
	call	?push_back@?$vector@V?$basic_string@DU?$char_traits@D@std@@V?$allocator@D@2@@std@@V?$allocator@V?$basic_string@DU?$char_traits@D@std@@V?$allocator@D@2@@std@@@2@@std@@QEAAXAEBV?$basic_string@DU?$char_traits@D@std@@V?$allocator@D@2@@2@@Z ; std::vector<std::basic_string<char,std::char_traits<char>,std::allocator<char> >,std::allocator<std::basic_string<char,std::char_traits<char>,std::allocator<char> > > >::push_back

	jmp	SHORT $LN37@writeValue
$LN36@writeValue:

	lea	rcx, QWORD PTR [rdi+32]
	call	??Y?$basic_string@DU?$char_traits@D@std@@V?$allocator@D@2@@std@@QEAAAEAV01@AEBV01@@Z ; std::basic_string<char,std::char_traits<char>,std::allocator<char> >::operator+=
	npad	1
$LN37@writeValue:

	lea	rcx, QWORD PTR $T3[rbp-128]
	call	??1?$basic_string@DU?$char_traits@D@std@@V?$allocator@D@2@@std@@QEAA@XZ ; std::basic_string<char,std::char_traits<char>,std::allocator<char> >::~basic_string<char,std::char_traits<char>,std::allocator<char> >

	jmp	$LN2@writeValue
$LN8@writeValue:

	mov	rcx, rsi
	call	?asUInt@Value@Json@@QEBAIXZ		; Json::Value::asUInt
	mov	edx, eax
	lea	rcx, QWORD PTR $T5[rbp-128]
	call	?valueToString@Json@@YA?AV?$basic_string@DU?$char_traits@D@std@@V?$allocator@D@2@@std@@I@Z ; Json::valueToString
	npad	1

	mov	rdx, rax
	cmp	BYTE PTR [rdi+104], 0
	je	SHORT $LN40@writeValue

	lea	rcx, QWORD PTR [rdi+8]
	call	?push_back@?$vector@V?$basic_string@DU?$char_traits@D@std@@V?$allocator@D@2@@std@@V?$allocator@V?$basic_string@DU?$char_traits@D@std@@V?$allocator@D@2@@std@@@2@@std@@QEAAXAEBV?$basic_string@DU?$char_traits@D@std@@V?$allocator@D@2@@2@@Z ; std::vector<std::basic_string<char,std::char_traits<char>,std::allocator<char> >,std::allocator<std::basic_string<char,std::char_traits<char>,std::allocator<char> > > >::push_back

	jmp	SHORT $LN41@writeValue
$LN40@writeValue:

	lea	rcx, QWORD PTR [rdi+32]
	call	??Y?$basic_string@DU?$char_traits@D@std@@V?$allocator@D@2@@std@@QEAAAEAV01@AEBV01@@Z ; std::basic_string<char,std::char_traits<char>,std::allocator<char> >::operator+=
	npad	1
$LN41@writeValue:

	lea	rcx, QWORD PTR $T5[rbp-128]
	call	??1?$basic_string@DU?$char_traits@D@std@@V?$allocator@D@2@@std@@QEAA@XZ ; std::basic_string<char,std::char_traits<char>,std::allocator<char> >::~basic_string<char,std::char_traits<char>,std::allocator<char> >

	jmp	$LN2@writeValue
$LN9@writeValue:

	mov	rcx, rsi
	call	?asDouble@Value@Json@@QEBANXZ		; Json::Value::asDouble
	movaps	xmm1, xmm0
	lea	rcx, QWORD PTR $T7[rbp-128]
	call	?valueToString@Json@@YA?AV?$basic_string@DU?$char_traits@D@std@@V?$allocator@D@2@@std@@N@Z ; Json::valueToString
	npad	1

	mov	rdx, rax
	cmp	BYTE PTR [rdi+104], 0
	je	SHORT $LN44@writeValue

	lea	rcx, QWORD PTR [rdi+8]
	call	?push_back@?$vector@V?$basic_string@DU?$char_traits@D@std@@V?$allocator@D@2@@std@@V?$allocator@V?$basic_string@DU?$char_traits@D@std@@V?$allocator@D@2@@std@@@2@@std@@QEAAXAEBV?$basic_string@DU?$char_traits@D@std@@V?$allocator@D@2@@2@@Z ; std::vector<std::basic_string<char,std::char_traits<char>,std::allocator<char> >,std::allocator<std::basic_string<char,std::char_traits<char>,std::allocator<char> > > >::push_back

	jmp	SHORT $LN45@writeValue
$LN44@writeValue:

	lea	rcx, QWORD PTR [rdi+32]
	call	??Y?$basic_string@DU?$char_traits@D@std@@V?$allocator@D@2@@std@@QEAAAEAV01@AEBV01@@Z ; std::basic_string<char,std::char_traits<char>,std::allocator<char> >::operator+=
	npad	1
$LN45@writeValue:

	lea	rcx, QWORD PTR $T7[rbp-128]
	call	??1?$basic_string@DU?$char_traits@D@std@@V?$allocator@D@2@@std@@QEAA@XZ ; std::basic_string<char,std::char_traits<char>,std::allocator<char> >::~basic_string<char,std::char_traits<char>,std::allocator<char> >

	jmp	$LN2@writeValue
$LN10@writeValue:

	mov	rdx, QWORD PTR [rsi]
	lea	rcx, QWORD PTR $T10[rbp-128]
	call	?valueToQuotedString@Json@@YA?AV?$basic_string@DU?$char_traits@D@std@@V?$allocator@D@2@@std@@PEBD@Z ; Json::valueToQuotedString
	npad	1

	mov	rdx, rax
	cmp	BYTE PTR [rdi+104], 0
	je	SHORT $LN50@writeValue

	lea	rcx, QWORD PTR [rdi+8]
	call	?push_back@?$vector@V?$basic_string@DU?$char_traits@D@std@@V?$allocator@D@2@@std@@V?$allocator@V?$basic_string@DU?$char_traits@D@std@@V?$allocator@D@2@@std@@@2@@std@@QEAAXAEBV?$basic_string@DU?$char_traits@D@std@@V?$allocator@D@2@@2@@Z ; std::vector<std::basic_string<char,std::char_traits<char>,std::allocator<char> >,std::allocator<std::basic_string<char,std::char_traits<char>,std::allocator<char> > > >::push_back

	jmp	SHORT $LN51@writeValue
$LN50@writeValue:

	lea	rcx, QWORD PTR [rdi+32]
	call	??Y?$basic_string@DU?$char_traits@D@std@@V?$allocator@D@2@@std@@QEAAAEAV01@AEBV01@@Z ; std::basic_string<char,std::char_traits<char>,std::allocator<char> >::operator+=
	npad	1
$LN51@writeValue:

	lea	rcx, QWORD PTR $T10[rbp-128]
	call	??1?$basic_string@DU?$char_traits@D@std@@V?$allocator@D@2@@std@@QEAA@XZ ; std::basic_string<char,std::char_traits<char>,std::allocator<char> >::~basic_string<char,std::char_traits<char>,std::allocator<char> >

	jmp	$LN2@writeValue
$LN11@writeValue:

	mov	rcx, rsi
	call	?asBool@Value@Json@@QEBA_NXZ		; Json::Value::asBool

	lea	rcx, OFFSET FLAT:??_C@_04LOAJBDKD@true@
	lea	rdx, OFFSET FLAT:??_C@_05LAPONLG@false@
	test	al, al
	cmovne	rdx, rcx
	lea	rcx, QWORD PTR $T12[rbp-128]
	call	??0?$basic_string@DU?$char_traits@D@std@@V?$allocator@D@2@@std@@QEAA@QEBD@Z ; std::basic_string<char,std::char_traits<char>,std::allocator<char> >::basic_string<char,std::char_traits<char>,std::allocator<char> >
	npad	1

	lea	rdx, QWORD PTR $T12[rbp-128]
