; Listing generated by Microsoft (R) Optimizing Compiler Version 19.16.27027.1 

include listing.inc


PUBLIC	_CT??_R0?AVruntime_error@std@@@8??0runtime_error@std@@QEAA@AEBV01@@Z24
PUBLIC	_CTA2?AVruntime_error@std@@
PUBLIC	??_R2runtime_error@std@@8			; std::runtime_error::`RTTI Base Class Array'
PUBLIC	_CT??_R0?AVexception@std@@@8??0exception@std@@QEAA@AEBV01@@Z24
PUBLIC	??_R0?AVexception@std@@@8			; std::exception `RTTI Type Descriptor'
PUBLIC	??_R3runtime_error@std@@8			; std::runtime_error::`RTTI Class Hierarchy Descriptor'
PUBLIC	??_C@_0BC@EOODALEL@Unknown?5exception@		; `string'
PUBLIC	??_C@_0BL@DKGNIMPN@Comments?5must?5start?5with?5?1@ ; `string'
PUBLIC	??_C@_0CC@BNBMBIGA@Type?5is?5not?5convertible?5to?5stri@ ; `string'
PUBLIC	??_C@_0CE@MKMAPPKF@integer?5out?5of?5signed?5integer?5r@ ; `string'
PUBLIC	??_C@_0CB@PBEICPFN@Real?5out?5of?5signed?5integer?5rang@ ; `string'
PUBLIC	??_C@_0BP@KDDCHLKA@Type?5is?5not?5convertible?5to?5int@ ; `string'
PUBLIC	??_C@_0DK@NAHIGMFE@Negative?5integer?5can?5not?5be?5con@ ; `string'
PUBLIC	??_C@_0CD@PGCLDEBG@Real?5out?5of?5unsigned?5integer?5ra@ ; `string'
PUBLIC	??_C@_0CA@LEFAEJPN@Type?5is?5not?5convertible?5to?5uint@ ; `string'
PUBLIC	??_C@_0CC@ICOHKFIF@Type?5is?5not?5convertible?5to?5doub@ ; `string'
PUBLIC	??_C@_02GLFAOOJA@?$FL?4@			; `string'
PUBLIC	??_7DefaultValueAllocator@Json@@6B@		; Json::DefaultValueAllocator::`vftable'
PUBLIC	??_R0?AVruntime_error@std@@@8			; std::runtime_error `RTTI Type Descriptor'
PUBLIC	??_R4exception@std@@6B@				; std::exception::`RTTI Complete Object Locator'
PUBLIC	??_R4ValueAllocator@Json@@6B@			; Json::ValueAllocator::`RTTI Complete Object Locator'
PUBLIC	??_R4runtime_error@std@@6B@			; std::runtime_error::`RTTI Complete Object Locator'
PUBLIC	??_R3ValueAllocator@Json@@8			; Json::ValueAllocator::`RTTI Class Hierarchy Descriptor'
PUBLIC	??_R1A@?0A@EA@runtime_error@std@@8		; std::runtime_error::`RTTI Base Class Descriptor at (0,-1,0,64)'
PUBLIC	??_R1A@?0A@EA@ValueAllocator@Json@@8		; Json::ValueAllocator::`RTTI Base Class Descriptor at (0,-1,0,64)'
PUBLIC	??_R1A@?0A@EA@DefaultValueAllocator@Json@@8	; Json::DefaultValueAllocator::`RTTI Base Class Descriptor at (0,-1,0,64)'
PUBLIC	??_R1A@?0A@EA@exception@std@@8			; std::exception::`RTTI Base Class Descriptor at (0,-1,0,64)'
PUBLIC	??_R3DefaultValueAllocator@Json@@8		; Json::DefaultValueAllocator::`RTTI Class Hierarchy Descriptor'
PUBLIC	?minInt@Value@Json@@2HB				; Json::Value::minInt
PUBLIC	?maxUInt@Value@Json@@2IB			; Json::Value::maxUInt
PUBLIC	?maxInt@Value@Json@@2HB				; Json::Value::maxInt
PUBLIC	??_R2exception@std@@8				; std::exception::`RTTI Base Class Array'
PUBLIC	??_R2DefaultValueAllocator@Json@@8		; Json::DefaultValueAllocator::`RTTI Base Class Array'
PUBLIC	_TI2?AVruntime_error@std@@
PUBLIC	??_R4DefaultValueAllocator@Json@@6B@		; Json::DefaultValueAllocator::`RTTI Complete Object Locator'
PUBLIC	??_R0?AVValueAllocator@Json@@@8			; Json::ValueAllocator `RTTI Type Descriptor'
PUBLIC	??_R2ValueAllocator@Json@@8			; Json::ValueAllocator::`RTTI Base Class Array'
PUBLIC	??_7exception@std@@6B@				; std::exception::`vftable'
PUBLIC	??_R3exception@std@@8				; std::exception::`RTTI Class Hierarchy Descriptor'
PUBLIC	??_7runtime_error@std@@6B@			; std::runtime_error::`vftable'
PUBLIC	??_R0?AVDefaultValueAllocator@Json@@@8		; Json::DefaultValueAllocator `RTTI Type Descriptor'
PUBLIC	??_7ValueAllocator@Json@@6B@			; Json::ValueAllocator::`vftable'
EXTRN	_Init_thread_epoch:DWORD
EXTRN	__std_exception_destroy:PROC
EXTRN	__imp_malloc:PROC
EXTRN	??_L@YAXPEAX_K1P6AX0@Z2@Z:PROC			; `eh vector constructor iterator'
EXTRN	__imp_strchr:PROC
EXTRN	__imp_free:PROC
EXTRN	_Init_thread_header:PROC
EXTRN	atexit:PROC
EXTRN	__std_exception_copy:PROC
EXTRN	_Init_thread_footer:PROC
;	COMDAT ?defaultAllocator@?1??valueAllocator@Json@@YAAEAPEAVValueAllocator@2@XZ@4VDefaultValueAllocator@2@A
_BSS	SEGMENT
?defaultAllocator@?1??valueAllocator@Json@@YAAEAPEAVValueAllocator@2@XZ@4VDefaultValueAllocator@2@A DQ 01H DUP (?) ; `Json::valueAllocator'::`2'::defaultAllocator
_BSS	ENDS
;	COMDAT ??_7ValueAllocator@Json@@6B@
CONST	SEGMENT
??_7ValueAllocator@Json@@6B@ DQ FLAT:??_R4ValueAllocator@Json@@6B@ ; Json::ValueAllocator::`vftable'
	DQ	FLAT:??_EValueAllocator@Json@@UEAAPEAXI@Z
	DQ	FLAT:_purecall
	DQ	FLAT:_purecall
	DQ	FLAT:_purecall
	DQ	FLAT:_purecall
CONST	ENDS
;	COMDAT ??_R0?AVDefaultValueAllocator@Json@@@8
data$r	SEGMENT
??_R0?AVDefaultValueAllocator@Json@@@8 DQ FLAT:??_7type_info@@6B@ ; Json::DefaultValueAllocator `RTTI Type Descriptor'
	DQ	0000000000000000H
	DB	'.?AVDefaultValueAllocator@Json@@', 00H
data$r	ENDS
;	COMDAT ??_7runtime_error@std@@6B@
CONST	SEGMENT
??_7runtime_error@std@@6B@ DQ FLAT:??_R4runtime_error@std@@6B@ ; std::runtime_error::`vftable'
	DQ	FLAT:??_Eruntime_error@std@@UEAAPEAXI@Z
	DQ	FLAT:?what@exception@std@@UEBAPEBDXZ
CONST	ENDS
;	COMDAT ??_R3exception@std@@8
rdata$r	SEGMENT
??_R3exception@std@@8 DD 00H				; std::exception::`RTTI Class Hierarchy Descriptor'
	DD	00H
	DD	01H
	DD	imagerel ??_R2exception@std@@8
rdata$r	ENDS
;	COMDAT ??_7exception@std@@6B@
CONST	SEGMENT
??_7exception@std@@6B@ DQ FLAT:??_R4exception@std@@6B@	; std::exception::`vftable'
	DQ	FLAT:??_Eexception@std@@UEAAPEAXI@Z
	DQ	FLAT:?what@exception@std@@UEBAPEBDXZ
CONST	ENDS
;	COMDAT ??_R2ValueAllocator@Json@@8
rdata$r	SEGMENT
??_R2ValueAllocator@Json@@8 DD imagerel ??_R1A@?0A@EA@ValueAllocator@Json@@8 ; Json::ValueAllocator::`RTTI Base Class Array'
	ORG $+3
rdata$r	ENDS
;	COMDAT ??_R0?AVValueAllocator@Json@@@8
data$r	SEGMENT
??_R0?AVValueAllocator@Json@@@8 DQ FLAT:??_7type_info@@6B@ ; Json::ValueAllocator `RTTI Type Descriptor'
	DQ	0000000000000000H
	DB	'.?AVValueAllocator@Json@@', 00H
data$r	ENDS
;	COMDAT ??_R4DefaultValueAllocator@Json@@6B@
rdata$r	SEGMENT
??_R4DefaultValueAllocator@Json@@6B@ DD 01H		; Json::DefaultValueAllocator::`RTTI Complete Object Locator'
	DD	00H
	DD	00H
	DD	imagerel ??_R0?AVDefaultValueAllocator@Json@@@8
	DD	imagerel ??_R3DefaultValueAllocator@Json@@8
	DD	imagerel ??_R4DefaultValueAllocator@Json@@6B@
rdata$r	ENDS
;	COMDAT _TI2?AVruntime_error@std@@
xdata$x	SEGMENT
_TI2?AVruntime_error@std@@ DD 00H
	DD	imagerel ??1runtime_error@std@@UEAA@XZ
	DD	00H
	DD	imagerel _CTA2?AVruntime_error@std@@
xdata$x	ENDS
;	COMDAT ??_R2DefaultValueAllocator@Json@@8
rdata$r	SEGMENT
??_R2DefaultValueAllocator@Json@@8 DD imagerel ??_R1A@?0A@EA@DefaultValueAllocator@Json@@8 ; Json::DefaultValueAllocator::`RTTI Base Class Array'
	DD	imagerel ??_R1A@?0A@EA@ValueAllocator@Json@@8
	ORG $+3
rdata$r	ENDS
;	COMDAT ??_R2exception@std@@8
rdata$r	SEGMENT
??_R2exception@std@@8 DD imagerel ??_R1A@?0A@EA@exception@std@@8 ; std::exception::`RTTI Base Class Array'
	ORG $+3
rdata$r	ENDS
;	COMDAT ??_R3DefaultValueAllocator@Json@@8
rdata$r	SEGMENT
??_R3DefaultValueAllocator@Json@@8 DD 00H		; Json::DefaultValueAllocator::`RTTI Class Hierarchy Descriptor'
	DD	00H
	DD	02H
	DD	imagerel ??_R2DefaultValueAllocator@Json@@8
rdata$r	ENDS
;	COMDAT ??_R1A@?0A@EA@exception@std@@8
rdata$r	SEGMENT
??_R1A@?0A@EA@exception@std@@8 DD imagerel ??_R0?AVexception@std@@@8 ; std::exception::`RTTI Base Class Descriptor at (0,-1,0,64)'
	DD	00H
	DD	00H
	DD	0ffffffffH
	DD	00H
	DD	040H
	DD	imagerel ??_R3exception@std@@8
rdata$r	ENDS
;	COMDAT ??_R1A@?0A@EA@DefaultValueAllocator@Json@@8
rdata$r	SEGMENT
??_R1A@?0A@EA@DefaultValueAllocator@Json@@8 DD imagerel ??_R0?AVDefaultValueAllocator@Json@@@8 ; Json::DefaultValueAllocator::`RTTI Base Class Descriptor at (0,-1,0,64)'
	DD	01H
	DD	00H
	DD	0ffffffffH
	DD	00H
	DD	040H
	DD	imagerel ??_R3DefaultValueAllocator@Json@@8
rdata$r	ENDS
;	COMDAT ??_R1A@?0A@EA@ValueAllocator@Json@@8
rdata$r	SEGMENT
??_R1A@?0A@EA@ValueAllocator@Json@@8 DD imagerel ??_R0?AVValueAllocator@Json@@@8 ; Json::ValueAllocator::`RTTI Base Class Descriptor at (0,-1,0,64)'
	DD	00H
	DD	00H
	DD	0ffffffffH
	DD	00H
	DD	040H
	DD	imagerel ??_R3ValueAllocator@Json@@8
rdata$r	ENDS
;	COMDAT ??_R1A@?0A@EA@runtime_error@std@@8
rdata$r	SEGMENT
??_R1A@?0A@EA@runtime_error@std@@8 DD imagerel ??_R0?AVruntime_error@std@@@8 ; std::runtime_error::`RTTI Base Class Descriptor at (0,-1,0,64)'
	DD	01H
	DD	00H
	DD	0ffffffffH
	DD	00H
	DD	040H
	DD	imagerel ??_R3runtime_error@std@@8
rdata$r	ENDS
;	COMDAT ??_R3ValueAllocator@Json@@8
rdata$r	SEGMENT
??_R3ValueAllocator@Json@@8 DD 00H			; Json::ValueAllocator::`RTTI Class Hierarchy Descriptor'
	DD	00H
	DD	01H
	DD	imagerel ??_R2ValueAllocator@Json@@8
rdata$r	ENDS
;	COMDAT ??_R4runtime_error@std@@6B@
rdata$r	SEGMENT
??_R4runtime_error@std@@6B@ DD 01H			; std::runtime_error::`RTTI Complete Object Locator'
	DD	00H
	DD	00H
	DD	imagerel ??_R0?AVruntime_error@std@@@8
	DD	imagerel ??_R3runtime_error@std@@8
	DD	imagerel ??_R4runtime_error@std@@6B@
rdata$r	ENDS
;	COMDAT ??_R4ValueAllocator@Json@@6B@
rdata$r	SEGMENT
??_R4ValueAllocator@Json@@6B@ DD 01H			; Json::ValueAllocator::`RTTI Complete Object Locator'
	DD	00H
	DD	00H
	DD	imagerel ??_R0?AVValueAllocator@Json@@@8
	DD	imagerel ??_R3ValueAllocator@Json@@8
	DD	imagerel ??_R4ValueAllocator@Json@@6B@
rdata$r	ENDS
;	COMDAT ??_R4exception@std@@6B@
rdata$r	SEGMENT
??_R4exception@std@@6B@ DD 01H				; std::exception::`RTTI Complete Object Locator'
	DD	00H
	DD	00H
	DD	imagerel ??_R0?AVexception@std@@@8
	DD	imagerel ??_R3exception@std@@8
	DD	imagerel ??_R4exception@std@@6B@
rdata$r	ENDS
;	COMDAT ??_R0?AVruntime_error@std@@@8
data$r	SEGMENT
??_R0?AVruntime_error@std@@@8 DQ FLAT:??_7type_info@@6B@ ; std::runtime_error `RTTI Type Descriptor'
	DQ	0000000000000000H
	DB	'.?AVruntime_error@std@@', 00H
data$r	ENDS
;	COMDAT ??_7DefaultValueAllocator@Json@@6B@
CONST	SEGMENT
??_7DefaultValueAllocator@Json@@6B@ DQ FLAT:??_R4DefaultValueAllocator@Json@@6B@ ; Json::DefaultValueAllocator::`vftable'
	DQ	FLAT:??_EDefaultValueAllocator@Json@@UEAAPEAXI@Z
	DQ	FLAT:?makeMemberName@DefaultValueAllocator@Json@@UEAAPEADPEBD@Z
	DQ	FLAT:?releaseMemberName@DefaultValueAllocator@Json@@UEAAXPEAD@Z
	DQ	FLAT:?duplicateStringValue@DefaultValueAllocator@Json@@UEAAPEADPEBDI@Z
	DQ	FLAT:?releaseStringValue@DefaultValueAllocator@Json@@UEAAXPEAD@Z
CONST	ENDS
;	COMDAT ??_C@_02GLFAOOJA@?$FL?4@
CONST	SEGMENT
??_C@_02GLFAOOJA@?$FL?4@ DB '[.', 00H			; `string'
CONST	ENDS
;	COMDAT ??_C@_0CC@ICOHKFIF@Type?5is?5not?5convertible?5to?5doub@
CONST	SEGMENT
??_C@_0CC@ICOHKFIF@Type?5is?5not?5convertible?5to?5doub@ DB 'Type is not '
	DB	'convertible to double', 00H			; `string'
CONST	ENDS
;	COMDAT ??_C@_0CA@LEFAEJPN@Type?5is?5not?5convertible?5to?5uint@
CONST	SEGMENT
??_C@_0CA@LEFAEJPN@Type?5is?5not?5convertible?5to?5uint@ DB 'Type is not '
	DB	'convertible to uint', 00H			; `string'
CONST	ENDS
;	COMDAT ??_C@_0CD@PGCLDEBG@Real?5out?5of?5unsigned?5integer?5ra@
CONST	SEGMENT
??_C@_0CD@PGCLDEBG@Real?5out?5of?5unsigned?5integer?5ra@ DB 'Real out of '
	DB	'unsigned integer range', 00H		; `string'
CONST	ENDS
;	COMDAT ??_C@_0DK@NAHIGMFE@Negative?5integer?5can?5not?5be?5con@
CONST	SEGMENT
??_C@_0DK@NAHIGMFE@Negative?5integer?5can?5not?5be?5con@ DB 'Negative int'
	DB	'eger can not be converted to unsigned integer', 00H ; `string'
CONST	ENDS
;	COMDAT ??_C@_0BP@KDDCHLKA@Type?5is?5not?5convertible?5to?5int@
CONST	SEGMENT
??_C@_0BP@KDDCHLKA@Type?5is?5not?5convertible?5to?5int@ DB 'Type is not c'
	DB	'onvertible to int', 00H			; `string'
CONST	ENDS
;	COMDAT ??_C@_0CB@PBEICPFN@Real?5out?5of?5signed?5integer?5rang@
CONST	SEGMENT
??_C@_0CB@PBEICPFN@Real?5out?5of?5signed?5integer?5rang@ DB 'Real out of '
	DB	'signed integer range', 00H			; `string'
CONST	ENDS
;	COMDAT ??_C@_0CE@MKMAPPKF@integer?5out?5of?5signed?5integer?5r@
CONST	SEGMENT
??_C@_0CE@MKMAPPKF@integer?5out?5of?5signed?5integer?5r@ DB 'integer out '
	DB	'of signed integer range', 00H		; `string'
CONST	ENDS
;	COMDAT ??_C@_0CC@BNBMBIGA@Type?5is?5not?5convertible?5to?5stri@
CONST	SEGMENT
??_C@_0CC@BNBMBIGA@Type?5is?5not?5convertible?5to?5stri@ DB 'Type is not '
	DB	'convertible to string', 00H			; `string'
CONST	ENDS
;	COMDAT ??_C@_0BL@DKGNIMPN@Comments?5must?5start?5with?5?1@
CONST	SEGMENT
??_C@_0BL@DKGNIMPN@Comments?5must?5start?5with?5?1@ DB 'Comments must sta'
	DB	'rt with /', 00H				; `string'
CONST	ENDS
;	COMDAT ??_C@_0BC@EOODALEL@Unknown?5exception@
CONST	SEGMENT
??_C@_0BC@EOODALEL@Unknown?5exception@ DB 'Unknown exception', 00H ; `string'
CONST	ENDS
;	COMDAT ??_R3runtime_error@std@@8
rdata$r	SEGMENT
??_R3runtime_error@std@@8 DD 00H			; std::runtime_error::`RTTI Class Hierarchy Descriptor'
	DD	00H
	DD	02H
	DD	imagerel ??_R2runtime_error@std@@8
rdata$r	ENDS
;	COMDAT ??_R0?AVexception@std@@@8
data$r	SEGMENT
??_R0?AVexception@std@@@8 DQ FLAT:??_7type_info@@6B@	; std::exception `RTTI Type Descriptor'
	DQ	0000000000000000H
	DB	'.?AVexception@std@@', 00H
data$r	ENDS
;	COMDAT _CT??_R0?AVexception@std@@@8??0exception@std@@QEAA@AEBV01@@Z24
xdata$x	SEGMENT
_CT??_R0?AVexception@std@@@8??0exception@std@@QEAA@AEBV01@@Z24 DD 00H
	DD	imagerel ??_R0?AVexception@std@@@8
	DD	00H
	DD	0ffffffffH
	ORG $+4
	DD	018H
	DD	imagerel ??0exception@std@@QEAA@AEBV01@@Z
xdata$x	ENDS
;	COMDAT ??_R2runtime_error@std@@8
rdata$r	SEGMENT
??_R2runtime_error@std@@8 DD imagerel ??_R1A@?0A@EA@runtime_error@std@@8 ; std::runtime_error::`RTTI Base Class Array'
	DD	imagerel ??_R1A@?0A@EA@exception@std@@8
	ORG $+3
rdata$r	ENDS
;	COMDAT _CTA2?AVruntime_error@std@@
xdata$x	SEGMENT
_CTA2?AVruntime_error@std@@ DD 02H
	DD	imagerel _CT??_R0?AVruntime_error@std@@@8??0runtime_error@std@@QEAA@AEBV01@@Z24
	DD	imagerel _CT??_R0?AVexception@std@@@8??0exception@std@@QEAA@AEBV01@@Z24
xdata$x	ENDS
;	COMDAT _CT??_R0?AVruntime_error@std@@@8??0runtime_error@std@@QEAA@AEBV01@@Z24
xdata$x	SEGMENT
_CT??_R0?AVruntime_error@std@@@8??0runtime_error@std@@QEAA@AEBV01@@Z24 DD 00H
	DD	imagerel ??_R0?AVruntime_error@std@@@8
	DD	00H
	DD	0ffffffffH
	ORG $+4
	DD	018H
	DD	imagerel ??0runtime_error@std@@QEAA@AEBV01@@Z
xdata$x	ENDS
;	COMDAT ?valueAllocator@?1??0Json@@YAAEAPEAVValueAllocator@1@XZ@4PEAV21@EA
_DATA	SEGMENT
?valueAllocator@?1??0Json@@YAAEAPEAVValueAllocator@1@XZ@4PEAV21@EA DQ FLAT:?defaultAllocator@?1??valueAllocator@Json@@YAAEAPEAVValueAllocator@2@XZ@4VDefaultValueAllocator@2@A ; `Json::valueAllocator'::`2'::valueAllocator
	ORG $+132
?minInt@Value@Json@@2HB DD 080000000H			; Json::Value::minInt
	ORG $+44
?maxUInt@Value@Json@@2IB DD 0ffffffffH			; Json::Value::maxUInt
	ORG $+44
?maxInt@Value@Json@@2HB DD 07fffffffH			; Json::Value::maxInt
PUBLIC	??$forward@V?$_Tree_iterator@V?$_Tree_val@U?$_Tree_simple_types@U?$pair@$$CBVCZString@Value@Json@@V23@@std@@@std@@@std@@@std@@@std@@YA$$QEAV?$_Tree_iterator@V?$_Tree_val@U?$_Tree_simple_types@U?$pair@$$CBVCZString@Value@Json@@V23@@std@@@std@@@std@@@0@AEAV10@@Z ; std::forward<std::_Tree_iterator<std::_Tree_val<std::_Tree_simple_types<std::pair<Json::Value::CZString const ,Json::Value> > > > >
PUBLIC	??$?0AEAV?$_Tree_iterator@V?$_Tree_val@U?$_Tree_simple_types@U?$pair@$$CBVCZString@Value@Json@@V23@@std@@@std@@@std@@@std@@_N$0A@@?$pair@V?$_Tree_iterator@V?$_Tree_val@U?$_Tree_simple_types@U?$pair@$$CBVCZString@Value@Json@@V23@@std@@@std@@@std@@@std@@_N@std@@QEAA@AEAV?$_Tree_iterator@V?$_Tree_val@U?$_Tree_simple_types@U?$pair@$$CBVCZString@Value@Json@@V23@@std@@@std@@@std@@@1@$$QEA_N@Z ; std::pair<std::_Tree_iterator<std::_Tree_val<std::_Tree_simple_types<std::pair<Json::Value::CZString const ,Json::Value> > > >,bool>::pair<std::_Tree_iterator<std::_Tree_val<std::_Tree_simple_types<std::pair<Json::Value::CZString const ,Json::Value> > > >,bool><std::_Tree_iterator<std::_Tree_val<std::_Tree_simple_types<std::pair<Json::Value::CZString const ,Json::Value> > > > &,bool,0>
PUBLIC	??$?0V?$_Tree_iterator@V?$_Tree_val@U?$_Tree_simple_types@U?$pair@$$CBVCZString@Value@Json@@V23@@std@@@std@@@std@@@std@@_N$0A@@?$pair@V?$_Tree_iterator@V?$_Tree_val@U?$_Tree_simple_types@U?$pair@$$CBVCZString@Value@Json@@V23@@std@@@std@@@std@@@std@@_N@std@@QEAA@$$QEAV?$_Tree_iterator@V?$_Tree_val@U?$_Tree_simple_types@U?$pair@$$CBVCZString@Value@Json@@V23@@std@@@std@@@std@@@1@$$QEA_N@Z ; std::pair<std::_Tree_iterator<std::_Tree_val<std::_Tree_simple_types<std::pair<Json::Value::CZString const ,Json::Value> > > >,bool>::pair<std::_Tree_iterator<std::_Tree_val<std::_Tree_simple_types<std::pair<Json::Value::CZString const ,Json::Value> > > >,bool><std::_Tree_iterator<std::_Tree_val<std::_Tree_simple_types<std::pair<Json::Value::CZString const ,Json::Value> > > >,bool,0>
PUBLIC	??$_Buy_if_not_node@AEAU?$pair@$$CBVCZString@Value@Json@@V23@@std@@@?$_Tree@V?$_Tmap_traits@VCZString@Value@Json@@V23@U?$less@VCZString@Value@Json@@@std@@V?$allocator@U?$pair@$$CBVCZString@Value@Json@@V23@@std@@@5@$0A@@std@@@std@@IEAAPEAU?$_Tree_node@U?$pair@$$CBVCZString@Value@Json@@V23@@std@@PEAX@1@PEAU21@AEAU?$pair@$$CBVCZString@Value@Json@@V23@@1@@Z ; std::_Tree<std::_Tmap_traits<Json::Value::CZString,Json::Value,std::less<Json::Value::CZString>,std::allocator<std::pair<Json::Value::CZString const ,Json::Value> >,0> >::_Buy_if_not_node<std::pair<Json::Value::CZString const ,Json::Value> &>
PUBLIC	?max_size@?$_Default_allocator_traits@V?$allocator@U?$_Tree_node@U?$pair@$$CBVCZString@Value@Json@@V23@@std@@PEAX@std@@@std@@@std@@SA_KAEBV?$allocator@U?$_Tree_node@U?$pair@$$CBVCZString@Value@Json@@V23@@std@@PEAX@std@@@2@@Z ; std::_Default_allocator_traits<std::allocator<std::_Tree_node<std::pair<Json::Value::CZString const ,Json::Value>,void *> > >::max_size
PUBLIC	?max_size@?$_Tree@V?$_Tmap_traits@VCZString@Value@Json@@V23@U?$less@VCZString@Value@Json@@@std@@V?$allocator@U?$pair@$$CBVCZString@Value@Json@@V23@@std@@@5@$0A@@std@@@std@@QEBA_KXZ ; std::_Tree<std::_Tmap_traits<Json::Value::CZString,Json::Value,std::less<Json::Value::CZString>,std::allocator<std::pair<Json::Value::CZString const ,Json::Value> >,0> >::max_size
PUBLIC	??0?$pair@$$CBVCZString@Value@Json@@V23@@std@@QEAA@AEBU01@@Z ; std::pair<Json::Value::CZString const ,Json::Value>::pair<Json::Value::CZString const ,Json::Value>
PUBLIC	??$_Copy_or_move@U?$pair@$$CBVCZString@Value@Json@@V23@@std@@U?$integral_constant@_N$0A@@2@@?$_Tree@V?$_Tmap_traits@VCZString@Value@Json@@V23@U?$less@VCZString@Value@Json@@@std@@V?$allocator@U?$pair@$$CBVCZString@Value@Json@@V23@@std@@@5@$0A@@std@@@std@@IEAAPEAU?$_Tree_node@U?$pair@$$CBVCZString@Value@Json@@V23@@std@@PEAX@1@AEAU?$pair@$$CBVCZString@Value@Json@@V23@@1@U_Copy_tag@01@U?$integral_constant@_N$0A@@1@@Z ; std::_Tree<std::_Tmap_traits<Json::Value::CZString,Json::Value,std::less<Json::Value::CZString>,std::allocator<std::pair<Json::Value::CZString const ,Json::Value> >,0> >::_Copy_or_move<std::pair<Json::Value::CZString const ,Json::Value>,std::integral_constant<bool,0> >
PUBLIC	??$?0V?$allocator@U?$_Tree_node@U?$pair@$$CBVCZString@Value@Json@@V23@@std@@PEAX@std@@@std@@$$V@?$_Compressed_pair@V?$allocator@U?$_Tree_node@U?$pair@$$CBVCZString@Value@Json@@V23@@std@@PEAX@std@@@std@@V?$_Tree_val@U?$_Tree_simple_types@U?$pair@$$CBVCZString@Value@Json@@V23@@std@@@std@@@2@$00@std@@QEAA@U_One_then_variadic_args_t@1@$$QEAV?$allocator@U?$_Tree_node@U?$pair@$$CBVCZString@Value@Json@@V23@@std@@PEAX@std@@@1@@Z ; std::_Compressed_pair<std::allocator<std::_Tree_node<std::pair<Json::Value::CZString const ,Json::Value>,void *> >,std::_Tree_val<std::_Tree_simple_types<std::pair<Json::Value::CZString const ,Json::Value> > >,1>::_Compressed_pair<std::allocator<std::_Tree_node<std::pair<Json::Value::CZString const ,Json::Value>,void *> >,std::_Tree_val<std::_Tree_simple_types<std::pair<Json::Value::CZString const ,Json::Value> > >,1><std::allocator<std::_Tree_node<std::pair<Json::Value::CZString const ,Json::Value>,void *> > >
PUBLIC	??$forward@U_One_then_variadic_args_t@std@@@std@@YA$$QEAU_One_then_variadic_args_t@0@AEAU10@@Z ; std::forward<std::_One_then_variadic_args_t>
PUBLIC	??$_Insert_nohint@AEAU?$pair@$$CBVCZString@Value@Json@@V23@@std@@PEAU?$_Tree_node@U?$pair@$$CBVCZString@Value@Json@@V23@@std@@PEAX@2@@?$_Tree@V?$_Tmap_traits@VCZString@Value@Json@@V23@U?$less@VCZString@Value@Json@@@std@@V?$allocator@U?$pair@$$CBVCZString@Value@Json@@V23@@std@@@5@$0A@@std@@@std@@IEAA?AU?$pair@V?$_Tree_iterator@V?$_Tree_val@U?$_Tree_simple_types@U?$pair@$$CBVCZString@Value@Json@@V23@@std@@@std@@@std@@@std@@_N@1@_NAEAU?$pair@$$CBVCZString@Value@Json@@V23@@1@PEAU?$_Tree_node@U?$pair@$$CBVCZString@Value@Json@@V23@@std@@PEAX@1@@Z ; std::_Tree<std::_Tmap_traits<Json::Value::CZString,Json::Value,std::less<Json::Value::CZString>,std::allocator<std::pair<Json::Value::CZString const ,Json::Value> >,0> >::_Insert_nohint<std::pair<Json::Value::CZString const ,Json::Value> &,std::_Tree_node<std::pair<Json::Value::CZString const ,Json::Value>,void *> *>
PUBLIC	??$_Insert_at@AEAU?$pair@$$CBVCZString@Value@Json@@V23@@std@@PEAU?$_Tree_node@U?$pair@$$CBVCZString@Value@Json@@V23@@std@@PEAX@2@@?$_Tree@V?$_Tmap_traits@VCZString@Value@Json@@V23@U?$less@VCZString@Value@Json@@@std@@V?$allocator@U?$pair@$$CBVCZString@Value@Json@@V23@@std@@@5@$0A@@std@@@std@@IEAA?AV?$_Tree_iterator@V?$_Tree_val@U?$_Tree_simple_types@U?$pair@$$CBVCZString@Value@Json@@V23@@std@@@std@@@std@@@1@_NPEAU?$_Tree_node@U?$pair@$$CBVCZString@Value@Json@@V23@@std@@PEAX@1@AEAU?$pair@$$CBVCZString@Value@Json@@V23@@1@1@Z ; std::_Tree<std::_Tmap_traits<Json::Value::CZString,Json::Value,std::less<Json::Value::CZString>,std::allocator<std::pair<Json::Value::CZString const ,Json::Value> >,0> >::_Insert_at<std::pair<Json::Value::CZString const ,Json::Value> &,std::_Tree_node<std::pair<Json::Value::CZString const ,Json::Value>,void *> *>
PUBLIC	??$construct@U?$pair@$$CBVCZString@Value@Json@@V23@@std@@AEAU12@@?$_Default_allocator_traits@V?$allocator@U?$_Tree_node@U?$pair@$$CBVCZString@Value@Json@@V23@@std@@PEAX@std@@@std@@@std@@SAXAEAV?$allocator@U?$_Tree_node@U?$pair@$$CBVCZString@Value@Json@@V23@@std@@PEAX@std@@@1@QEAU?$pair@$$CBVCZString@Value@Json@@V23@@1@AEAU31@@Z ; std::_Default_allocator_traits<std::allocator<std::_Tree_node<std::pair<Json::Value::CZString const ,Json::Value>,void *> > >::construct<std::pair<Json::Value::CZString const ,Json::Value>,std::pair<Json::Value::CZString const ,Json::Value> &>
PUBLIC	?_Destroy_if_node@?$_Tree@V?$_Tmap_traits@VCZString@Value@Json@@V23@U?$less@VCZString@Value@Json@@@std@@V?$allocator@U?$pair@$$CBVCZString@Value@Json@@V23@@std@@@5@$0A@@std@@@std@@IEAAXPEAU?$_Tree_node@U?$pair@$$CBVCZString@Value@Json@@V23@@std@@PEAX@2@@Z ; std::_Tree<std::_Tmap_traits<Json::Value::CZString,Json::Value,std::less<Json::Value::CZString>,std::allocator<std::pair<Json::Value::CZString const ,Json::Value> >,0> >::_Destroy_if_node
PUBLIC	?_Buynode0@?$_Tree_comp_alloc@V?$_Tmap_traits@VCZString@Value@Json@@V23@U?$less@VCZString@Value@Json@@@std@@V?$allocator@U?$pair@$$CBVCZString@Value@Json@@V23@@std@@@5@$0A@@std@@@std@@QEAAPEAU?$_Tree_node@U?$pair@$$CBVCZString@Value@Json@@V23@@std@@PEAX@2@XZ ; std::_Tree_comp_alloc<std::_Tmap_traits<Json::Value::CZString,Json::Value,std::less<Json::Value::CZString>,std::allocator<std::pair<Json::Value::CZString const ,Json::Value> >,0> >::_Buynode0
PUBLIC	?_Freenode0@?$_Tree_comp_alloc@V?$_Tmap_traits@VCZString@Value@Json@@V23@U?$less@VCZString@Value@Json@@@std@@V?$allocator@U?$pair@$$CBVCZString@Value@Json@@V23@@std@@@5@$0A@@std@@@std@@QEAAXPEAU?$_Tree_node@U?$pair@$$CBVCZString@Value@Json@@V23@@std@@PEAX@2@@Z ; std::_Tree_comp_alloc<std::_Tmap_traits<Json::Value::CZString,Json::Value,std::less<Json::Value::CZString>,std::allocator<std::pair<Json::Value::CZString const ,Json::Value> >,0> >::_Freenode0
PUBLIC	??$forward@AEAV?$_Tree_iterator@V?$_Tree_val@U?$_Tree_simple_types@U?$pair@$$CBVCZString@Value@Json@@V23@@std@@@std@@@std@@@std@@@std@@YAAEAV?$_Tree_iterator@V?$_Tree_val@U?$_Tree_simple_types@U?$pair@$$CBVCZString@Value@Json@@V23@@std@@@std@@@std@@@0@AEAV10@@Z ; std::forward<std::_Tree_iterator<std::_Tree_val<std::_Tree_simple_types<std::pair<Json::Value::CZString const ,Json::Value> > > > &>
PUBLIC	??$_Copy_nodes@U_Copy_tag@?$_Tree@V?$_Tmap_traits@VCZString@Value@Json@@V23@U?$less@VCZString@Value@Json@@@std@@V?$allocator@U?$pair@$$CBVCZString@Value@Json@@V23@@std@@@5@$0A@@std@@@std@@@?$_Tree@V?$_Tmap_traits@VCZString@Value@Json@@V23@U?$less@VCZString@Value@Json@@@std@@V?$allocator@U?$pair@$$CBVCZString@Value@Json@@V23@@std@@@5@$0A@@std@@@std@@IEAAPEAU?$_Tree_node@U?$pair@$$CBVCZString@Value@Json@@V23@@std@@PEAX@1@PEAU21@0U_Copy_tag@01@@Z ; std::_Tree<std::_Tmap_traits<Json::Value::CZString,Json::Value,std::less<Json::Value::CZString>,std::allocator<std::pair<Json::Value::CZString const ,Json::Value> >,0> >::_Copy_nodes<std::_Tree<std::_Tmap_traits<Json::Value::CZString,Json::Value,std::less<Json::Value::CZString>,std::allocator<std::pair<Json::Value::CZString const ,Json::Value> >,0> >::_Copy_tag>
PUBLIC	??$?0AEBU?$less@VCZString@Value@Json@@@std@@U_One_then_variadic_args_t@1@V?$allocator@U?$_Tree_node@U?$pair@$$CBVCZString@Value@Json@@V23@@std@@PEAX@std@@@1@@?$_Compressed_pair@U?$less@VCZString@Value@Json@@@std@@V?$_Compressed_pair@V?$allocator@U?$_Tree_node@U?$pair@$$CBVCZString@Value@Json@@V23@@std@@PEAX@std@@@std@@V?$_Tree_val@U?$_Tree_simple_types@U?$pair@$$CBVCZString@Value@Json@@V23@@std@@@std@@@2@$00@2@$00@std@@QEAA@U_One_then_variadic_args_t@1@AEBU?$less@VCZString@Value@Json@@@1@$$QEAU21@$$QEAV?$allocator@U?$_Tree_node@U?$pair@$$CBVCZString@Value@Json@@V23@@std@@PEAX@std@@@1@@Z ; std::_Compressed_pair<std::less<Json::Value::CZString>,std::_Compressed_pair<std::allocator<std::_Tree_node<std::pair<Json::Value::CZString const ,Json::Value>,void *> >,std::_Tree_val<std::_Tree_simple_types<std::pair<Json::Value::CZString const ,Json::Value> > >,1>,1>::_Compressed_pair<std::less<Json::Value::CZString>,std::_Compressed_pair<std::allocator<std::_Tree_node<std::pair<Json::Value::CZString const ,Json::Value>,void *> >,std::_Tree_val<std::_Tree_simple_types<std::pair<Json::Value::CZString const ,Json::Value> > >,1>,1><std::less<Json::Value::CZString> const &,std::_One_then_variadic_args_t,std::allocator<std::_Tree_node<std::pair<Json::Value::CZString const ,Json::Value>,void *> > >
PUBLIC	??$_Insert_hint@AEAU?$pair@$$CBVCZString@Value@Json@@V23@@std@@PEAU?$_Tree_node@U?$pair@$$CBVCZString@Value@Json@@V23@@std@@PEAX@2@@?$_Tree@V?$_Tmap_traits@VCZString@Value@Json@@V23@U?$less@VCZString@Value@Json@@@std@@V?$allocator@U?$pair@$$CBVCZString@Value@Json@@V23@@std@@@5@$0A@@std@@@std@@IEAA?AV?$_Tree_iterator@V?$_Tree_val@U?$_Tree_simple_types@U?$pair@$$CBVCZString@Value@Json@@V23@@std@@@std@@@std@@@1@V?$_Tree_const_iterator@V?$_Tree_val@U?$_Tree_simple_types@U?$pair@$$CBVCZString@Value@Json@@V23@@std@@@std@@@std@@@1@AEAU?$pair@$$CBVCZString@Value@Json@@V23@@1@PEAU?$_Tree_node@U?$pair@$$CBVCZString@Value@Json@@V23@@std@@PEAX@1@@Z ; std::_Tree<std::_Tmap_traits<Json::Value::CZString,Json::Value,std::less<Json::Value::CZString>,std::allocator<std::pair<Json::Value::CZString const ,Json::Value> >,0> >::_Insert_hint<std::pair<Json::Value::CZString const ,Json::Value> &,std::_Tree_node<std::pair<Json::Value::CZString const ,Json::Value>,void *> *>
PUBLIC	??$_Buynode@AEAU?$pair@$$CBVCZString@Value@Json@@V23@@std@@@?$_Tree_comp_alloc@V?$_Tmap_traits@VCZString@Value@Json@@V23@U?$less@VCZString@Value@Json@@@std@@V?$allocator@U?$pair@$$CBVCZString@Value@Json@@V23@@std@@@5@$0A@@std@@@std@@QEAAPEAU?$_Tree_node@U?$pair@$$CBVCZString@Value@Json@@V23@@std@@PEAX@1@AEAU?$pair@$$CBVCZString@Value@Json@@V23@@1@@Z ; std::_Tree_comp_alloc<std::_Tmap_traits<Json::Value::CZString,Json::Value,std::less<Json::Value::CZString>,std::allocator<std::pair<Json::Value::CZString const ,Json::Value> >,0> >::_Buynode<std::pair<Json::Value::CZString const ,Json::Value> &>
PUBLIC	??0?$allocator@U?$_Tree_node@U?$pair@$$CBVCZString@Value@Json@@V23@@std@@PEAX@std@@@std@@QEAA@XZ ; std::allocator<std::_Tree_node<std::pair<Json::Value::CZString const ,Json::Value>,void *> >::allocator<std::_Tree_node<std::pair<Json::Value::CZString const ,Json::Value>,void *> >
PUBLIC	??0?$_Tree_val@U?$_Tree_simple_types@U?$pair@$$CBVCZString@Value@Json@@V23@@std@@@std@@@std@@QEAA@XZ ; std::_Tree_val<std::_Tree_simple_types<std::pair<Json::Value::CZString const ,Json::Value> > >::_Tree_val<std::_Tree_simple_types<std::pair<Json::Value::CZString const ,Json::Value> > >
PUBLIC	??$_Get_size_of_n@$0CI@@std@@YA_K_K@Z		; std::_Get_size_of_n<40>
PUBLIC	??$forward@AEAPEAU?$_Tree_node@U?$pair@$$CBVCZString@Value@Json@@V23@@std@@PEAX@std@@@std@@YAAEAPEAU?$_Tree_node@U?$pair@$$CBVCZString@Value@Json@@V23@@std@@PEAX@0@AEAPEAU10@@Z ; std::forward<std::_Tree_node<std::pair<Json::Value::CZString const ,Json::Value>,void *> * &>
PUBLIC	??$?0$$V@?$_Compressed_pair@V?$allocator@U?$_Tree_node@U?$pair@$$CBVCZString@Value@Json@@V23@@std@@PEAX@std@@@std@@V?$_Tree_val@U?$_Tree_simple_types@U?$pair@$$CBVCZString@Value@Json@@V23@@std@@@std@@@2@$00@std@@QEAA@U_Zero_then_variadic_args_t@1@@Z ; std::_Compressed_pair<std::allocator<std::_Tree_node<std::pair<Json::Value::CZString const ,Json::Value>,void *> >,std::_Tree_val<std::_Tree_simple_types<std::pair<Json::Value::CZString const ,Json::Value> > >,1>::_Compressed_pair<std::allocator<std::_Tree_node<std::pair<Json::Value::CZString const ,Json::Value>,void *> >,std::_Tree_val<std::_Tree_simple_types<std::pair<Json::Value::CZString const ,Json::Value> > >,1><>
PUBLIC	??$forward@AEBU?$less@VCZString@Value@Json@@@std@@@std@@YAAEBU?$less@VCZString@Value@Json@@@0@AEBU10@@Z ; std::forward<std::less<Json::Value::CZString> const &>
PUBLIC	??$destroy@PEAU?$_Tree_node@U?$pair@$$CBVCZString@Value@Json@@V23@@std@@PEAX@std@@@?$_Default_allocator_traits@V?$allocator@U?$_Tree_node@U?$pair@$$CBVCZString@Value@Json@@V23@@std@@PEAX@std@@@std@@@std@@SAXAEAV?$allocator@U?$_Tree_node@U?$pair@$$CBVCZString@Value@Json@@V23@@std@@PEAX@std@@@1@QEAPEAU?$_Tree_node@U?$pair@$$CBVCZString@Value@Json@@V23@@std@@PEAX@1@@Z ; std::_Default_allocator_traits<std::allocator<std::_Tree_node<std::pair<Json::Value::CZString const ,Json::Value>,void *> > >::destroy<std::_Tree_node<std::pair<Json::Value::CZString const ,Json::Value>,void *> *>
PUBLIC	??$?0V?$allocator@V?$basic_string@DU?$char_traits@D@std@@V?$allocator@D@2@@std@@@std@@$$V@?$_Compressed_pair@V?$allocator@V?$basic_string@DU?$char_traits@D@std@@V?$allocator@D@2@@std@@@std@@V?$_Vector_val@U?$_Simple_types@V?$basic_string@DU?$char_traits@D@std@@V?$allocator@D@2@@std@@@std@@@2@$00@std@@QEAA@U_One_then_variadic_args_t@1@$$QEAV?$allocator@V?$basic_string@DU?$char_traits@D@std@@V?$allocator@D@2@@std@@@1@@Z ; std::_Compressed_pair<std::allocator<std::basic_string<char,std::char_traits<char>,std::allocator<char> > >,std::_Vector_val<std::_Simple_types<std::basic_string<char,std::char_traits<char>,std::allocator<char> > > >,1>::_Compressed_pair<std::allocator<std::basic_string<char,std::char_traits<char>,std::allocator<char> > >,std::_Vector_val<std::_Simple_types<std::basic_string<char,std::char_traits<char>,std::allocator<char> > > >,1><std::allocator<std::basic_string<char,std::char_traits<char>,std::allocator<char> > > >
PUBLIC	??$forward@V?$allocator@V?$basic_string@DU?$char_traits@D@std@@V?$allocator@D@2@@std@@@std@@@std@@YA$$QEAV?$allocator@V?$basic_string@DU?$char_traits@D@std@@V?$allocator@D@2@@std@@@0@AEAV10@@Z ; std::forward<std::allocator<std::basic_string<char,std::char_traits<char>,std::allocator<char> > > >
PUBLIC	??$_Copy@U_Copy_tag@?$_Tree@V?$_Tmap_traits@VCZString@Value@Json@@V23@U?$less@VCZString@Value@Json@@@std@@V?$allocator@U?$pair@$$CBVCZString@Value@Json@@V23@@std@@@5@$0A@@std@@@std@@@?$_Tree@V?$_Tmap_traits@VCZString@Value@Json@@V23@U?$less@VCZString@Value@Json@@@std@@V?$allocator@U?$pair@$$CBVCZString@Value@Json@@V23@@std@@@5@$0A@@std@@@std@@IEAAXAEBV01@U_Copy_tag@01@@Z ; std::_Tree<std::_Tmap_traits<Json::Value::CZString,Json::Value,std::less<Json::Value::CZString>,std::allocator<std::pair<Json::Value::CZString const ,Json::Value> >,0> >::_Copy<std::_Tree<std::_Tmap_traits<Json::Value::CZString,Json::Value,std::less<Json::Value::CZString>,std::allocator<std::pair<Json::Value::CZString const ,Json::Value> >,0> >::_Copy_tag>
PUBLIC	??$?0V?$allocator@U?$_Tree_node@U?$pair@$$CBVCZString@Value@Json@@V23@@std@@PEAX@std@@@std@@X@?$_Tree_comp_alloc@V?$_Tmap_traits@VCZString@Value@Json@@V23@U?$less@VCZString@Value@Json@@@std@@V?$allocator@U?$pair@$$CBVCZString@Value@Json@@V23@@std@@@5@$0A@@std@@@std@@QEAA@AEBU?$less@VCZString@Value@Json@@@1@$$QEAV?$allocator@U?$_Tree_node@U?$pair@$$CBVCZString@Value@Json@@V23@@std@@PEAX@std@@@1@@Z ; std::_Tree_comp_alloc<std::_Tmap_traits<Json::Value::CZString,Json::Value,std::less<Json::Value::CZString>,std::allocator<std::pair<Json::Value::CZString const ,Json::Value> >,0> >::_Tree_comp_alloc<std::_Tmap_traits<Json::Value::CZString,Json::Value,std::less<Json::Value::CZString>,std::allocator<std::pair<Json::Value::CZString const ,Json::Value> >,0> ><std::allocator<std::_Tree_node<std::pair<Json::Value::CZString const ,Json::Value>,void *> >,void>
PUBLIC	??$forward@V?$allocator@U?$_Tree_node@U?$pair@$$CBVCZString@Value@Json@@V23@@std@@PEAX@std@@@std@@@std@@YA$$QEAV?$allocator@U?$_Tree_node@U?$pair@$$CBVCZString@Value@Json@@V23@@std@@PEAX@std@@@0@AEAV10@@Z ; std::forward<std::allocator<std::_Tree_node<std::pair<Json::Value::CZString const ,Json::Value>,void *> > >
PUBLIC	??$_Get_unwrapped@$$CBD@std@@YAPEBDQEBD@Z	; std::_Get_unwrapped<char const >
PUBLIC	??$emplace_hint@AEAU?$pair@$$CBVCZString@Value@Json@@V23@@std@@@?$_Tree@V?$_Tmap_traits@VCZString@Value@Json@@V23@U?$less@VCZString@Value@Json@@@std@@V?$allocator@U?$pair@$$CBVCZString@Value@Json@@V23@@std@@@5@$0A@@std@@@std@@QEAA?AV?$_Tree_iterator@V?$_Tree_val@U?$_Tree_simple_types@U?$pair@$$CBVCZString@Value@Json@@V23@@std@@@std@@@std@@@1@V?$_Tree_const_iterator@V?$_Tree_val@U?$_Tree_simple_types@U?$pair@$$CBVCZString@Value@Json@@V23@@std@@@std@@@std@@@1@AEAU?$pair@$$CBVCZString@Value@Json@@V23@@1@@Z ; std::_Tree<std::_Tmap_traits<Json::Value::CZString,Json::Value,std::less<Json::Value::CZString>,std::allocator<std::pair<Json::Value::CZString const ,Json::Value> >,0> >::emplace_hint<std::pair<Json::Value::CZString const ,Json::Value> &>
PUBLIC	??$forward@AEAU?$pair@$$CBVCZString@Value@Json@@V23@@std@@@std@@YAAEAU?$pair@$$CBVCZString@Value@Json@@V23@@0@AEAU10@@Z ; std::forward<std::pair<Json::Value::CZString const ,Json::Value> &>
PUBLIC	??$forward@AEBVValue@Json@@@std@@YAAEBVValue@Json@@AEBV12@@Z ; std::forward<Json::Value const &>
PUBLIC	??$forward@AEAVCZString@Value@Json@@@std@@YAAEAVCZString@Value@Json@@AEAV123@@Z ; std::forward<Json::Value::CZString &>
PUBLIC	??$move@AEATValueHolder@Value@Json@@@std@@YA$$QEATValueHolder@Value@Json@@AEAT123@@Z ; std::move<Json::Value::ValueHolder &>
PUBLIC	??$_Adl_verify_range1@PEBDPEBD@std@@YAXAEBQEBD0U?$integral_constant@_N$0A@@0@@Z ; std::_Adl_verify_range1<char const *,char const *>
PUBLIC	?_Get_first@?$_Compressed_pair@U?$less@VCZString@Value@Json@@@std@@V?$_Compressed_pair@V?$allocator@U?$_Tree_node@U?$pair@$$CBVCZString@Value@Json@@V23@@std@@PEAX@std@@@std@@V?$_Tree_val@U?$_Tree_simple_types@U?$pair@$$CBVCZString@Value@Json@@V23@@std@@@std@@@2@$00@2@$00@std@@QEBAAEBU?$less@VCZString@Value@Json@@@2@XZ ; std::_Compressed_pair<std::less<Json::Value::CZString>,std::_Compressed_pair<std::allocator<std::_Tree_node<std::pair<Json::Value::CZString const ,Json::Value>,void *> >,std::_Tree_val<std::_Tree_simple_types<std::pair<Json::Value::CZString const ,Json::Value> > >,1>,1>::_Get_first
PUBLIC	?_Getcomp@?$_Tree_comp_alloc@V?$_Tmap_traits@VCZString@Value@Json@@V23@U?$less@VCZString@Value@Json@@@std@@V?$allocator@U?$pair@$$CBVCZString@Value@Json@@V23@@std@@@5@$0A@@std@@@std@@QEBAAEBU?$less@VCZString@Value@Json@@@2@XZ ; std::_Tree_comp_alloc<std::_Tmap_traits<Json::Value::CZString,Json::Value,std::less<Json::Value::CZString>,std::allocator<std::pair<Json::Value::CZString const ,Json::Value> >,0> >::_Getcomp
PUBLIC	?key_comp@?$_Tree@V?$_Tmap_traits@VCZString@Value@Json@@V23@U?$less@VCZString@Value@Json@@@std@@V?$allocator@U?$pair@$$CBVCZString@Value@Json@@V23@@std@@@5@$0A@@std@@@std@@QEBA?AU?$less@VCZString@Value@Json@@@2@XZ ; std::_Tree<std::_Tmap_traits<Json::Value::CZString,Json::Value,std::less<Json::Value::CZString>,std::allocator<std::pair<Json::Value::CZString const ,Json::Value> >,0> >::key_comp
PUBLIC	?_Compare@?$_Tree@V?$_Tmap_traits@VCZString@Value@Json@@V23@U?$less@VCZString@Value@Json@@@std@@V?$allocator@U?$pair@$$CBVCZString@Value@Json@@V23@@std@@@5@$0A@@std@@@std@@IEBA_NAEBVCZString@Value@Json@@0@Z ; std::_Tree<std::_Tmap_traits<Json::Value::CZString,Json::Value,std::less<Json::Value::CZString>,std::allocator<std::pair<Json::Value::CZString const ,Json::Value> >,0> >::_Compare
PUBLIC	?deallocate@?$_Default_allocator_traits@V?$allocator@U?$_Tree_node@U?$pair@$$CBVCZString@Value@Json@@V23@@std@@PEAX@std@@@std@@@std@@SAXAEAV?$allocator@U?$_Tree_node@U?$pair@$$CBVCZString@Value@Json@@V23@@std@@PEAX@std@@@2@QEAU?$_Tree_node@U?$pair@$$CBVCZString@Value@Json@@V23@@std@@PEAX@2@_K@Z ; std::_Default_allocator_traits<std::allocator<std::_Tree_node<std::pair<Json::Value::CZString const ,Json::Value>,void *> > >::deallocate
PUBLIC	??_G?$pair@$$CBVCZString@Value@Json@@V23@@std@@QEAAPEAXI@Z ; std::pair<Json::Value::CZString const ,Json::Value>::`scalar deleting destructor'
PUBLIC	??$construct@PEAU?$_Tree_node@U?$pair@$$CBVCZString@Value@Json@@V23@@std@@PEAX@std@@AEAPEAU12@@?$_Default_allocator_traits@V?$allocator@U?$_Tree_node@U?$pair@$$CBVCZString@Value@Json@@V23@@std@@PEAX@std@@@std@@@std@@SAXAEAV?$allocator@U?$_Tree_node@U?$pair@$$CBVCZString@Value@Json@@V23@@std@@PEAX@std@@@1@QEAPEAU?$_Tree_node@U?$pair@$$CBVCZString@Value@Json@@V23@@std@@PEAX@1@AEAPEAU31@@Z ; std::_Default_allocator_traits<std::allocator<std::_Tree_node<std::pair<Json::Value::CZString const ,Json::Value>,void *> > >::construct<std::_Tree_node<std::pair<Json::Value::CZString const ,Json::Value>,void *> *,std::_Tree_node<std::pair<Json::Value::CZString const ,Json::Value>,void *> * &>
PUBLIC	??$addressof@PEAU?$_Tree_node@U?$pair@$$CBVCZString@Value@Json@@V23@@std@@PEAX@std@@@std@@YAPEAPEAU?$_Tree_node@U?$pair@$$CBVCZString@Value@Json@@V23@@std@@PEAX@0@AEAPEAU10@@Z ; std::addressof<std::_Tree_node<std::pair<Json::Value::CZString const ,Json::Value>,void *> *>
PUBLIC	??$_Kfn@$$CBVCZString@Value@Json@@V23@@?$_Tmap_traits@VCZString@Value@Json@@V23@U?$less@VCZString@Value@Json@@@std@@V?$allocator@U?$pair@$$CBVCZString@Value@Json@@V23@@std@@@5@$0A@@std@@SAAEBVCZString@Value@Json@@AEBU?$pair@$$CBVCZString@Value@Json@@V23@@1@@Z ; std::_Tmap_traits<Json::Value::CZString,Json::Value,std::less<Json::Value::CZString>,std::allocator<std::pair<Json::Value::CZString const ,Json::Value> >,0>::_Kfn<Json::Value::CZString const ,Json::Value>
PUBLIC	??$?0AEBU?$less@VCZString@Value@Json@@@std@@U_Zero_then_variadic_args_t@1@@?$_Compressed_pair@U?$less@VCZString@Value@Json@@@std@@V?$_Compressed_pair@V?$allocator@U?$_Tree_node@U?$pair@$$CBVCZString@Value@Json@@V23@@std@@PEAX@std@@@std@@V?$_Tree_val@U?$_Tree_simple_types@U?$pair@$$CBVCZString@Value@Json@@V23@@std@@@std@@@2@$00@2@$00@std@@QEAA@U_One_then_variadic_args_t@1@AEBU?$less@VCZString@Value@Json@@@1@$$QEAU_Zero_then_variadic_args_t@1@@Z ; std::_Compressed_pair<std::less<Json::Value::CZString>,std::_Compressed_pair<std::allocator<std::_Tree_node<std::pair<Json::Value::CZString const ,Json::Value>,void *> >,std::_Tree_val<std::_Tree_simple_types<std::pair<Json::Value::CZString const ,Json::Value> > >,1>,1>::_Compressed_pair<std::less<Json::Value::CZString>,std::_Compressed_pair<std::allocator<std::_Tree_node<std::pair<Json::Value::CZString const ,Json::Value>,void *> >,std::_Tree_val<std::_Tree_simple_types<std::pair<Json::Value::CZString const ,Json::Value> > >,1>,1><std::less<Json::Value::CZString> const &,std::_Zero_then_variadic_args_t>
PUBLIC	??$_Freenode0@V?$allocator@U?$_Tree_node@U?$pair@$$CBVCZString@Value@Json@@V23@@std@@PEAX@std@@@std@@@?$_Tree_node@U?$pair@$$CBVCZString@Value@Json@@V23@@std@@PEAX@std@@SAXAEAV?$allocator@U?$_Tree_node@U?$pair@$$CBVCZString@Value@Json@@V23@@std@@PEAX@std@@@1@PEAU01@@Z ; std::_Tree_node<std::pair<Json::Value::CZString const ,Json::Value>,void *>::_Freenode0<std::allocator<std::_Tree_node<std::pair<Json::Value::CZString const ,Json::Value>,void *> > >
PUBLIC	??$destroy@U?$pair@$$CBVCZString@Value@Json@@V23@@std@@@?$_Default_allocator_traits@V?$allocator@U?$_Tree_node@U?$pair@$$CBVCZString@Value@Json@@V23@@std@@PEAX@std@@@std@@@std@@SAXAEAV?$allocator@U?$_Tree_node@U?$pair@$$CBVCZString@Value@Json@@V23@@std@@PEAX@std@@@1@QEAU?$pair@$$CBVCZString@Value@Json@@V23@@1@@Z ; std::_Default_allocator_traits<std::allocator<std::_Tree_node<std::pair<Json::Value::CZString const ,Json::Value>,void *> > >::destroy<std::pair<Json::Value::CZString const ,Json::Value> >
PUBLIC	??$addressof@U?$pair@$$CBVCZString@Value@Json@@V23@@std@@@std@@YAPEAU?$pair@$$CBVCZString@Value@Json@@V23@@0@AEAU10@@Z ; std::addressof<std::pair<Json::Value::CZString const ,Json::Value> >
PUBLIC	??$move@AEAV?$vector@V?$basic_string@DU?$char_traits@D@std@@V?$allocator@D@2@@std@@V?$allocator@V?$basic_string@DU?$char_traits@D@std@@V?$allocator@D@2@@std@@@2@@std@@@std@@YA$$QEAV?$vector@V?$basic_string@DU?$char_traits@D@std@@V?$allocator@D@2@@std@@V?$allocator@V?$basic_string@DU?$char_traits@D@std@@V?$allocator@D@2@@std@@@2@@0@AEAV10@@Z ; std::move<std::vector<std::basic_string<char,std::char_traits<char>,std::allocator<char> >,std::allocator<std::basic_string<char,std::char_traits<char>,std::allocator<char> > > > &>
PUBLIC	??$?0V?$allocator@V?$basic_string@DU?$char_traits@D@std@@V?$allocator@D@2@@std@@@std@@X@?$_Vector_alloc@U?$_Vec_base_types@V?$basic_string@DU?$char_traits@D@std@@V?$allocator@D@2@@std@@V?$allocator@V?$basic_string@DU?$char_traits@D@std@@V?$allocator@D@2@@std@@@2@@std@@@std@@QEAA@$$QEAV?$allocator@V?$basic_string@DU?$char_traits@D@std@@V?$allocator@D@2@@std@@@1@@Z ; std::_Vector_alloc<std::_Vec_base_types<std::basic_string<char,std::char_traits<char>,std::allocator<char> >,std::allocator<std::basic_string<char,std::char_traits<char>,std::allocator<char> > > > >::_Vector_alloc<std::_Vec_base_types<std::basic_string<char,std::char_traits<char>,std::allocator<char> >,std::allocator<std::basic_string<char,std::char_traits<char>,std::allocator<char> > > > ><std::allocator<std::basic_string<char,std::char_traits<char>,std::allocator<char> > >,void>
PUBLIC	??$move@AEAV?$allocator@V?$basic_string@DU?$char_traits@D@std@@V?$allocator@D@2@@std@@@std@@@std@@YA$$QEAV?$allocator@V?$basic_string@DU?$char_traits@D@std@@V?$allocator@D@2@@std@@@0@AEAV10@@Z ; std::move<std::allocator<std::basic_string<char,std::char_traits<char>,std::allocator<char> > > &>
PUBLIC	??$?0V?$allocator@U?$_Tree_node@U?$pair@$$CBVCZString@Value@Json@@V23@@std@@PEAX@std@@@std@@@?$_Tree@V?$_Tmap_traits@VCZString@Value@Json@@V23@U?$less@VCZString@Value@Json@@@std@@V?$allocator@U?$pair@$$CBVCZString@Value@Json@@V23@@std@@@5@$0A@@std@@@std@@QEAA@AEBV01@$$QEAV?$allocator@U?$_Tree_node@U?$pair@$$CBVCZString@Value@Json@@V23@@std@@PEAX@std@@@1@@Z ; std::_Tree<std::_Tmap_traits<Json::Value::CZString,Json::Value,std::less<Json::Value::CZString>,std::allocator<std::pair<Json::Value::CZString const ,Json::Value> >,0> >::_Tree<std::_Tmap_traits<Json::Value::CZString,Json::Value,std::less<Json::Value::CZString>,std::allocator<std::pair<Json::Value::CZString const ,Json::Value> >,0> ><std::allocator<std::_Tree_node<std::pair<Json::Value::CZString const ,Json::Value>,void *> > >
PUBLIC	??$addressof@V?$_Tree_val@U?$_Tree_simple_types@U?$pair@$$CBVCZString@Value@Json@@V23@@std@@@std@@@std@@@std@@YAPEAV?$_Tree_val@U?$_Tree_simple_types@U?$pair@$$CBVCZString@Value@Json@@V23@@std@@@std@@@0@AEAV10@@Z ; std::addressof<std::_Tree_val<std::_Tree_simple_types<std::pair<Json::Value::CZString const ,Json::Value> > > >
PUBLIC	??$_Lbound@VCZString@Value@Json@@@?$_Tree@V?$_Tmap_traits@VCZString@Value@Json@@V23@U?$less@VCZString@Value@Json@@@std@@V?$allocator@U?$pair@$$CBVCZString@Value@Json@@V23@@std@@@5@$0A@@std@@@std@@IEBAPEAU?$_Tree_node@U?$pair@$$CBVCZString@Value@Json@@V23@@std@@PEAX@1@AEBVCZString@Value@Json@@@Z ; std::_Tree<std::_Tmap_traits<Json::Value::CZString,Json::Value,std::less<Json::Value::CZString>,std::allocator<std::pair<Json::Value::CZString const ,Json::Value> >,0> >::_Lbound<Json::Value::CZString>
PUBLIC	??$?0PEBDX@?$basic_string@DU?$char_traits@D@std@@V?$allocator@D@2@@std@@QEAA@PEBD0AEBV?$allocator@D@1@@Z ; std::basic_string<char,std::char_traits<char>,std::allocator<char> >::basic_string<char,std::char_traits<char>,std::allocator<char> ><char const *,void>
PUBLIC	??$insert@AEAU?$pair@$$CBVCZString@Value@Json@@V23@@std@@X@?$map@VCZString@Value@Json@@V23@U?$less@VCZString@Value@Json@@@std@@V?$allocator@U?$pair@$$CBVCZString@Value@Json@@V23@@std@@@5@@std@@QEAA?AV?$_Tree_iterator@V?$_Tree_val@U?$_Tree_simple_types@U?$pair@$$CBVCZString@Value@Json@@V23@@std@@@std@@@std@@@1@V?$_Tree_const_iterator@V?$_Tree_val@U?$_Tree_simple_types@U?$pair@$$CBVCZString@Value@Json@@V23@@std@@@std@@@std@@@1@AEAU?$pair@$$CBVCZString@Value@Json@@V23@@1@@Z ; std::map<Json::Value::CZString,Json::Value,std::less<Json::Value::CZString>,std::allocator<std::pair<Json::Value::CZString const ,Json::Value> > >::insert<std::pair<Json::Value::CZString const ,Json::Value> &,void>
PUBLIC	??$?0AEAVCZString@Value@Json@@AEBV12@$0A@@?$pair@$$CBVCZString@Value@Json@@V23@@std@@QEAA@AEAVCZString@Value@Json@@AEBV34@@Z ; std::pair<Json::Value::CZString const ,Json::Value>::pair<Json::Value::CZString const ,Json::Value><Json::Value::CZString &,Json::Value const &,0>
PUBLIC	??$swap@TValueHolder@Value@Json@@X@std@@YAXAEATValueHolder@Value@Json@@0@Z ; std::swap<Json::Value::ValueHolder,void>
PUBLIC	??$_Adl_verify_range@PEBDPEBD@std@@YAXAEBQEBD0@Z ; std::_Adl_verify_range<char const *,char const *>
PUBLIC	?deallocate@?$allocator@U?$_Tree_node@U?$pair@$$CBVCZString@Value@Json@@V23@@std@@PEAX@std@@@std@@QEAAXQEAU?$_Tree_node@U?$pair@$$CBVCZString@Value@Json@@V23@@std@@PEAX@2@_K@Z ; std::allocator<std::_Tree_node<std::pair<Json::Value::CZString const ,Json::Value>,void *> >::deallocate
PUBLIC	?allocate@?$allocator@U?$_Tree_node@U?$pair@$$CBVCZString@Value@Json@@V23@@std@@PEAX@std@@@std@@QEAAPEAU?$_Tree_node@U?$pair@$$CBVCZString@Value@Json@@V23@@std@@PEAX@2@_K@Z ; std::allocator<std::_Tree_node<std::pair<Json::Value::CZString const ,Json::Value>,void *> >::allocate
PUBLIC	?_Buyheadnode@?$_Tree_comp_alloc@V?$_Tmap_traits@VCZString@Value@Json@@V23@U?$less@VCZString@Value@Json@@@std@@V?$allocator@U?$pair@$$CBVCZString@Value@Json@@V23@@std@@@5@$0A@@std@@@std@@QEAAPEAU?$_Tree_node@U?$pair@$$CBVCZString@Value@Json@@V23@@std@@PEAX@2@XZ ; std::_Tree_comp_alloc<std::_Tmap_traits<Json::Value::CZString,Json::Value,std::less<Json::Value::CZString>,std::allocator<std::pair<Json::Value::CZString const ,Json::Value> >,0> >::_Buyheadnode
PUBLIC	?_Lrotate@?$_Tree_val@U?$_Tree_simple_types@U?$pair@$$CBVCZString@Value@Json@@V23@@std@@@std@@@std@@QEAAXPEAU?$_Tree_node@U?$pair@$$CBVCZString@Value@Json@@V23@@std@@PEAX@2@@Z ; std::_Tree_val<std::_Tree_simple_types<std::pair<Json::Value::CZString const ,Json::Value> > >::_Lrotate
PUBLIC	?_Rrotate@?$_Tree_val@U?$_Tree_simple_types@U?$pair@$$CBVCZString@Value@Json@@V23@@std@@@std@@@std@@QEAAXPEAU?$_Tree_node@U?$pair@$$CBVCZString@Value@Json@@V23@@std@@PEAX@2@@Z ; std::_Tree_val<std::_Tree_simple_types<std::pair<Json::Value::CZString const ,Json::Value> > >::_Rrotate
PUBLIC	?_Construct@?$_Tree_comp_alloc@V?$_Tmap_traits@VCZString@Value@Json@@V23@U?$less@VCZString@Value@Json@@@std@@V?$allocator@U?$pair@$$CBVCZString@Value@Json@@V23@@std@@@5@$0A@@std@@@std@@QEAAXXZ ; std::_Tree_comp_alloc<std::_Tmap_traits<Json::Value::CZString,Json::Value,std::less<Json::Value::CZString>,std::allocator<std::pair<Json::Value::CZString const ,Json::Value> >,0> >::_Construct
PUBLIC	?_Extract@?$_Tree_val@U?$_Tree_simple_types@U?$pair@$$CBVCZString@Value@Json@@V23@@std@@@std@@@std@@QEAAPEAU?$_Tree_node@U?$pair@$$CBVCZString@Value@Json@@V23@@std@@PEAX@2@V?$_Tree_const_iterator@V?$_Tree_val@U?$_Tree_simple_types@U?$pair@$$CBVCZString@Value@Json@@V23@@std@@@std@@@std@@@2@@Z ; std::_Tree_val<std::_Tree_simple_types<std::pair<Json::Value::CZString const ,Json::Value> > >::_Extract
PUBLIC	??0?$_Tree_unchecked_const_iterator@V?$_Tree_val@U?$_Tree_simple_types@U?$pair@$$CBVCZString@Value@Json@@V23@@std@@@std@@@std@@U_Iterator_base0@2@@std@@QEAA@PEAU?$_Tree_node@U?$pair@$$CBVCZString@Value@Json@@V23@@std@@PEAX@1@PEBV?$_Tree_val@U?$_Tree_simple_types@U?$pair@$$CBVCZString@Value@Json@@V23@@std@@@std@@@1@@Z ; std::_Tree_unchecked_const_iterator<std::_Tree_val<std::_Tree_simple_types<std::pair<Json::Value::CZString const ,Json::Value> > >,std::_Iterator_base0>::_Tree_unchecked_const_iterator<std::_Tree_val<std::_Tree_simple_types<std::pair<Json::Value::CZString const ,Json::Value> > >,std::_Iterator_base0>
PUBLIC	?_Get_first@?$_Compressed_pair@V?$allocator@U?$_Tree_node@U?$pair@$$CBVCZString@Value@Json@@V23@@std@@PEAX@std@@@std@@V?$_Tree_val@U?$_Tree_simple_types@U?$pair@$$CBVCZString@Value@Json@@V23@@std@@@std@@@2@$00@std@@QEAAAEAV?$allocator@U?$_Tree_node@U?$pair@$$CBVCZString@Value@Json@@V23@@std@@PEAX@std@@@2@XZ ; std::_Compressed_pair<std::allocator<std::_Tree_node<std::pair<Json::Value::CZString const ,Json::Value>,void *> >,std::_Tree_val<std::_Tree_simple_types<std::pair<Json::Value::CZString const ,Json::Value> > >,1>::_Get_first
PUBLIC	?erase@?$_Tree@V?$_Tmap_traits@VCZString@Value@Json@@V23@U?$less@VCZString@Value@Json@@@std@@V?$allocator@U?$pair@$$CBVCZString@Value@Json@@V23@@std@@@5@$0A@@std@@@std@@QEAA?AV?$_Tree_iterator@V?$_Tree_val@U?$_Tree_simple_types@U?$pair@$$CBVCZString@Value@Json@@V23@@std@@@std@@@std@@@2@V?$_Tree_const_iterator@V?$_Tree_val@U?$_Tree_simple_types@U?$pair@$$CBVCZString@Value@Json@@V23@@std@@@std@@@std@@@2@@Z ; std::_Tree<std::_Tmap_traits<Json::Value::CZString,Json::Value,std::less<Json::Value::CZString>,std::allocator<std::pair<Json::Value::CZString const ,Json::Value> >,0> >::erase
PUBLIC	?_Kfn@?$_Tree@V?$_Tmap_traits@VCZString@Value@Json@@V23@U?$less@VCZString@Value@Json@@@std@@V?$allocator@U?$pair@$$CBVCZString@Value@Json@@V23@@std@@@5@$0A@@std@@@std@@IEBAAEBVCZString@Value@Json@@AEBU?$pair@$$CBVCZString@Value@Json@@V23@@2@@Z ; std::_Tree<std::_Tmap_traits<Json::Value::CZString,Json::Value,std::less<Json::Value::CZString>,std::allocator<std::pair<Json::Value::CZString const ,Json::Value> >,0> >::_Kfn
PUBLIC	??0?$_Tree_comp_alloc@V?$_Tmap_traits@VCZString@Value@Json@@V23@U?$less@VCZString@Value@Json@@@std@@V?$allocator@U?$pair@$$CBVCZString@Value@Json@@V23@@std@@@5@$0A@@std@@@std@@QEAA@AEBU?$less@VCZString@Value@Json@@@1@@Z ; std::_Tree_comp_alloc<std::_Tmap_traits<Json::Value::CZString,Json::Value,std::less<Json::Value::CZString>,std::allocator<std::pair<Json::Value::CZString const ,Json::Value> >,0> >::_Tree_comp_alloc<std::_Tmap_traits<Json::Value::CZString,Json::Value,std::less<Json::Value::CZString>,std::allocator<std::pair<Json::Value::CZString const ,Json::Value> >,0> >
PUBLIC	?_Freeheadnode@?$_Tree_comp_alloc@V?$_Tmap_traits@VCZString@Value@Json@@V23@U?$less@VCZString@Value@Json@@@std@@V?$allocator@U?$pair@$$CBVCZString@Value@Json@@V23@@std@@@5@$0A@@std@@@std@@QEAAXPEAU?$_Tree_node@U?$pair@$$CBVCZString@Value@Json@@V23@@std@@PEAX@2@@Z ; std::_Tree_comp_alloc<std::_Tmap_traits<Json::Value::CZString,Json::Value,std::less<Json::Value::CZString>,std::allocator<std::pair<Json::Value::CZString const ,Json::Value> >,0> >::_Freeheadnode
PUBLIC	?_Getal@?$_Tree_comp_alloc@V?$_Tmap_traits@VCZString@Value@Json@@V23@U?$less@VCZString@Value@Json@@@std@@V?$allocator@U?$pair@$$CBVCZString@Value@Json@@V23@@std@@@5@$0A@@std@@@std@@QEAAAEAV?$allocator@U?$_Tree_node@U?$pair@$$CBVCZString@Value@Json@@V23@@std@@PEAX@std@@@2@XZ ; std::_Tree_comp_alloc<std::_Tmap_traits<Json::Value::CZString,Json::Value,std::less<Json::Value::CZString>,std::allocator<std::pair<Json::Value::CZString const ,Json::Value> >,0> >::_Getal
PUBLIC	?_Max@?$_Tree_val@U?$_Tree_simple_types@U?$pair@$$CBVCZString@Value@Json@@V23@@std@@@std@@@std@@SAPEAU?$_Tree_node@U?$pair@$$CBVCZString@Value@Json@@V23@@std@@PEAX@2@PEAU32@@Z ; std::_Tree_val<std::_Tree_simple_types<std::pair<Json::Value::CZString const ,Json::Value> > >::_Max
PUBLIC	?_Min@?$_Tree_val@U?$_Tree_simple_types@U?$pair@$$CBVCZString@Value@Json@@V23@@std@@@std@@@std@@SAPEAU?$_Tree_node@U?$pair@$$CBVCZString@Value@Json@@V23@@std@@PEAX@2@PEAU32@@Z ; std::_Tree_val<std::_Tree_simple_types<std::pair<Json::Value::CZString const ,Json::Value> > >::_Min
PUBLIC	??0?$_Tree_const_iterator@V?$_Tree_val@U?$_Tree_simple_types@U?$pair@$$CBVCZString@Value@Json@@V23@@std@@@std@@@std@@@std@@QEAA@PEAU?$_Tree_node@U?$pair@$$CBVCZString@Value@Json@@V23@@std@@PEAX@1@PEBV?$_Tree_val@U?$_Tree_simple_types@U?$pair@$$CBVCZString@Value@Json@@V23@@std@@@std@@@1@@Z ; std::_Tree_const_iterator<std::_Tree_val<std::_Tree_simple_types<std::pair<Json::Value::CZString const ,Json::Value> > > >::_Tree_const_iterator<std::_Tree_val<std::_Tree_simple_types<std::pair<Json::Value::CZString const ,Json::Value> > > >
PUBLIC	??E?$_Tree_const_iterator@V?$_Tree_val@U?$_Tree_simple_types@U?$pair@$$CBVCZString@Value@Json@@V23@@std@@@std@@@std@@@std@@QEAA?AV01@H@Z ; std::_Tree_const_iterator<std::_Tree_val<std::_Tree_simple_types<std::pair<Json::Value::CZString const ,Json::Value> > > >::operator++
PUBLIC	??0?$_Tree_unchecked_const_iterator@V?$_Tree_val@U?$_Tree_simple_types@U?$pair@$$CBVCZString@Value@Json@@V23@@std@@@std@@@std@@U_Iterator_base0@2@@std@@QEAA@XZ ; std::_Tree_unchecked_const_iterator<std::_Tree_val<std::_Tree_simple_types<std::pair<Json::Value::CZString const ,Json::Value> > >,std::_Iterator_base0>::_Tree_unchecked_const_iterator<std::_Tree_val<std::_Tree_simple_types<std::pair<Json::Value::CZString const ,Json::Value> > >,std::_Iterator_base0>
PUBLIC	?_Get_first@?$_Compressed_pair@V?$allocator@U?$_Tree_node@U?$pair@$$CBVCZString@Value@Json@@V23@@std@@PEAX@std@@@std@@V?$_Tree_val@U?$_Tree_simple_types@U?$pair@$$CBVCZString@Value@Json@@V23@@std@@@std@@@2@$00@std@@QEBAAEBV?$allocator@U?$_Tree_node@U?$pair@$$CBVCZString@Value@Json@@V23@@std@@PEAX@std@@@2@XZ ; std::_Compressed_pair<std::allocator<std::_Tree_node<std::pair<Json::Value::CZString const ,Json::Value>,void *> >,std::_Tree_val<std::_Tree_simple_types<std::pair<Json::Value::CZString const ,Json::Value> > >,1>::_Get_first
PUBLIC	?_Get_second@?$_Compressed_pair@V?$allocator@U?$_Tree_node@U?$pair@$$CBVCZString@Value@Json@@V23@@std@@PEAX@std@@@std@@V?$_Tree_val@U?$_Tree_simple_types@U?$pair@$$CBVCZString@Value@Json@@V23@@std@@@std@@@2@$00@std@@QEAAAEAV?$_Tree_val@U?$_Tree_simple_types@U?$pair@$$CBVCZString@Value@Json@@V23@@std@@@std@@@2@XZ ; std::_Compressed_pair<std::allocator<std::_Tree_node<std::pair<Json::Value::CZString const ,Json::Value>,void *> >,std::_Tree_val<std::_Tree_simple_types<std::pair<Json::Value::CZString const ,Json::Value> > >,1>::_Get_second
PUBLIC	?_Get_second@?$_Compressed_pair@V?$allocator@U?$_Tree_node@U?$pair@$$CBVCZString@Value@Json@@V23@@std@@PEAX@std@@@std@@V?$_Tree_val@U?$_Tree_simple_types@U?$pair@$$CBVCZString@Value@Json@@V23@@std@@@std@@@2@$00@std@@QEBAAEBV?$_Tree_val@U?$_Tree_simple_types@U?$pair@$$CBVCZString@Value@Json@@V23@@std@@@std@@@2@XZ ; std::_Compressed_pair<std::allocator<std::_Tree_node<std::pair<Json::Value::CZString const ,Json::Value>,void *> >,std::_Tree_val<std::_Tree_simple_types<std::pair<Json::Value::CZString const ,Json::Value> > >,1>::_Get_second
PUBLIC	?_Get_first@?$_Compressed_pair@U?$less@VCZString@Value@Json@@@std@@V?$_Compressed_pair@V?$allocator@U?$_Tree_node@U?$pair@$$CBVCZString@Value@Json@@V23@@std@@PEAX@std@@@std@@V?$_Tree_val@U?$_Tree_simple_types@U?$pair@$$CBVCZString@Value@Json@@V23@@std@@@std@@@2@$00@2@$00@std@@QEAAAEAU?$less@VCZString@Value@Json@@@2@XZ ; std::_Compressed_pair<std::less<Json::Value::CZString>,std::_Compressed_pair<std::allocator<std::_Tree_node<std::pair<Json::Value::CZString const ,Json::Value>,void *> >,std::_Tree_val<std::_Tree_simple_types<std::pair<Json::Value::CZString const ,Json::Value> > >,1>,1>::_Get_first
PUBLIC	?_Get_second@?$_Compressed_pair@U?$less@VCZString@Value@Json@@@std@@V?$_Compressed_pair@V?$allocator@U?$_Tree_node@U?$pair@$$CBVCZString@Value@Json@@V23@@std@@PEAX@std@@@std@@V?$_Tree_val@U?$_Tree_simple_types@U?$pair@$$CBVCZString@Value@Json@@V23@@std@@@std@@@2@$00@2@$00@std@@QEAAAEAV?$_Compressed_pair@V?$allocator@U?$_Tree_node@U?$pair@$$CBVCZString@Value@Json@@V23@@std@@PEAX@std@@@std@@V?$_Tree_val@U?$_Tree_simple_types@U?$pair@$$CBVCZString@Value@Json@@V23@@std@@@std@@@2@$00@2@XZ ; std::_Compressed_pair<std::less<Json::Value::CZString>,std::_Compressed_pair<std::allocator<std::_Tree_node<std::pair<Json::Value::CZString const ,Json::Value>,void *> >,std::_Tree_val<std::_Tree_simple_types<std::pair<Json::Value::CZString const ,Json::Value> > >,1>,1>::_Get_second
PUBLIC	?_Get_second@?$_Compressed_pair@U?$less@VCZString@Value@Json@@@std@@V?$_Compressed_pair@V?$allocator@U?$_Tree_node@U?$pair@$$CBVCZString@Value@Json@@V23@@std@@PEAX@std@@@std@@V?$_Tree_val@U?$_Tree_simple_types@U?$pair@$$CBVCZString@Value@Json@@V23@@std@@@std@@@2@$00@2@$00@std@@QEBAAEBV?$_Compressed_pair@V?$allocator@U?$_Tree_node@U?$pair@$$CBVCZString@Value@Json@@V23@@std@@PEAX@std@@@std@@V?$_Tree_val@U?$_Tree_simple_types@U?$pair@$$CBVCZString@Value@Json@@V23@@std@@@std@@@2@$00@2@XZ ; std::_Compressed_pair<std::less<Json::Value::CZString>,std::_Compressed_pair<std::allocator<std::_Tree_node<std::pair<Json::Value::CZString const ,Json::Value>,void *> >,std::_Tree_val<std::_Tree_simple_types<std::pair<Json::Value::CZString const ,Json::Value> > >,1>,1>::_Get_second
PUBLIC	?_Swap_all@?$_Vector_alloc@U?$_Vec_base_types@V?$basic_string@DU?$char_traits@D@std@@V?$allocator@D@2@@std@@V?$allocator@V?$basic_string@DU?$char_traits@D@std@@V?$allocator@D@2@@std@@@2@@std@@@std@@QEAAXAEAV12@@Z ; std::_Vector_alloc<std::_Vec_base_types<std::basic_string<char,std::char_traits<char>,std::allocator<char> >,std::allocator<std::basic_string<char,std::char_traits<char>,std::allocator<char> > > > >::_Swap_all
PUBLIC	?_Move_from@?$vector@V?$basic_string@DU?$char_traits@D@std@@V?$allocator@D@2@@std@@V?$allocator@V?$basic_string@DU?$char_traits@D@std@@V?$allocator@D@2@@std@@@2@@std@@AEAAX$$QEAV12@U?$integral_constant@_N$00@2@@Z ; std::vector<std::basic_string<char,std::char_traits<char>,std::allocator<char> >,std::allocator<std::basic_string<char,std::char_traits<char>,std::allocator<char> > > >::_Move_from
PUBLIC	??R?$less@VCZString@Value@Json@@@std@@QEBA_NAEBVCZString@Value@Json@@0@Z ; std::less<Json::Value::CZString>::operator()
PUBLIC	??0?$_Tree@V?$_Tmap_traits@VCZString@Value@Json@@V23@U?$less@VCZString@Value@Json@@@std@@V?$allocator@U?$pair@$$CBVCZString@Value@Json@@V23@@std@@@5@$0A@@std@@@std@@QEAA@AEBU?$less@VCZString@Value@Json@@@1@@Z ; std::_Tree<std::_Tmap_traits<Json::Value::CZString,Json::Value,std::less<Json::Value::CZString>,std::allocator<std::pair<Json::Value::CZString const ,Json::Value> >,0> >::_Tree<std::_Tmap_traits<Json::Value::CZString,Json::Value,std::less<Json::Value::CZString>,std::allocator<std::pair<Json::Value::CZString const ,Json::Value> >,0> >
PUBLIC	?erase@?$_Tree@V?$_Tmap_traits@VCZString@Value@Json@@V23@U?$less@VCZString@Value@Json@@@std@@V?$allocator@U?$pair@$$CBVCZString@Value@Json@@V23@@std@@@5@$0A@@std@@@std@@QEAA?AV?$_Tree_iterator@V?$_Tree_val@U?$_Tree_simple_types@U?$pair@$$CBVCZString@Value@Json@@V23@@std@@@std@@@std@@@2@V?$_Tree_const_iterator@V?$_Tree_val@U?$_Tree_simple_types@U?$pair@$$CBVCZString@Value@Json@@V23@@std@@@std@@@std@@@2@0@Z ; std::_Tree<std::_Tmap_traits<Json::Value::CZString,Json::Value,std::less<Json::Value::CZString>,std::allocator<std::pair<Json::Value::CZString const ,Json::Value> >,0> >::erase
PUBLIC	?_Erase@?$_Tree@V?$_Tmap_traits@VCZString@Value@Json@@V23@U?$less@VCZString@Value@Json@@@std@@V?$allocator@U?$pair@$$CBVCZString@Value@Json@@V23@@std@@@5@$0A@@std@@@std@@IEAAXPEAU?$_Tree_node@U?$pair@$$CBVCZString@Value@Json@@V23@@std@@PEAX@2@@Z ; std::_Tree<std::_Tmap_traits<Json::Value::CZString,Json::Value,std::less<Json::Value::CZString>,std::allocator<std::pair<Json::Value::CZString const ,Json::Value> >,0> >::_Erase
PUBLIC	?_Tidy@?$_Tree@V?$_Tmap_traits@VCZString@Value@Json@@V23@U?$less@VCZString@Value@Json@@@std@@V?$allocator@U?$pair@$$CBVCZString@Value@Json@@V23@@std@@@5@$0A@@std@@@std@@IEAAXXZ ; std::_Tree<std::_Tmap_traits<Json::Value::CZString,Json::Value,std::less<Json::Value::CZString>,std::allocator<std::pair<Json::Value::CZString const ,Json::Value> >,0> >::_Tidy
PUBLIC	?_Key@?$_Tree@V?$_Tmap_traits@VCZString@Value@Json@@V23@U?$less@VCZString@Value@Json@@@std@@V?$allocator@U?$pair@$$CBVCZString@Value@Json@@V23@@std@@@5@$0A@@std@@@std@@IEBAAEBVCZString@Value@Json@@PEAU?$_Tree_node@U?$pair@$$CBVCZString@Value@Json@@V23@@std@@PEAX@2@@Z ; std::_Tree<std::_Tmap_traits<Json::Value::CZString,Json::Value,std::less<Json::Value::CZString>,std::allocator<std::pair<Json::Value::CZString const ,Json::Value> >,0> >::_Key
PUBLIC	??1?$_Tree_comp_alloc@V?$_Tmap_traits@VCZString@Value@Json@@V23@U?$less@VCZString@Value@Json@@@std@@V?$allocator@U?$pair@$$CBVCZString@Value@Json@@V23@@std@@@5@$0A@@std@@@std@@QEAA@XZ ; std::_Tree_comp_alloc<std::_Tmap_traits<Json::Value::CZString,Json::Value,std::less<Json::Value::CZString>,std::allocator<std::pair<Json::Value::CZString const ,Json::Value> >,0> >::~_Tree_comp_alloc<std::_Tmap_traits<Json::Value::CZString,Json::Value,std::less<Json::Value::CZString>,std::allocator<std::pair<Json::Value::CZString const ,Json::Value> >,0> >
PUBLIC	?_Getcomp@?$_Tree_comp_alloc@V?$_Tmap_traits@VCZString@Value@Json@@V23@U?$less@VCZString@Value@Json@@@std@@V?$allocator@U?$pair@$$CBVCZString@Value@Json@@V23@@std@@@5@$0A@@std@@@std@@QEAAAEAU?$less@VCZString@Value@Json@@@2@XZ ; std::_Tree_comp_alloc<std::_Tmap_traits<Json::Value::CZString,Json::Value,std::less<Json::Value::CZString>,std::allocator<std::pair<Json::Value::CZString const ,Json::Value> >,0> >::_Getcomp
PUBLIC	?_Getal@?$_Tree_comp_alloc@V?$_Tmap_traits@VCZString@Value@Json@@V23@U?$less@VCZString@Value@Json@@@std@@V?$allocator@U?$pair@$$CBVCZString@Value@Json@@V23@@std@@@5@$0A@@std@@@std@@QEBAAEBV?$allocator@U?$_Tree_node@U?$pair@$$CBVCZString@Value@Json@@V23@@std@@PEAX@std@@@2@XZ ; std::_Tree_comp_alloc<std::_Tmap_traits<Json::Value::CZString,Json::Value,std::less<Json::Value::CZString>,std::allocator<std::pair<Json::Value::CZString const ,Json::Value> >,0> >::_Getal
PUBLIC	?_Get_data@?$_Tree_comp_alloc@V?$_Tmap_traits@VCZString@Value@Json@@V23@U?$less@VCZString@Value@Json@@@std@@V?$allocator@U?$pair@$$CBVCZString@Value@Json@@V23@@std@@@5@$0A@@std@@@std@@QEAAAEAV?$_Tree_val@U?$_Tree_simple_types@U?$pair@$$CBVCZString@Value@Json@@V23@@std@@@std@@@2@XZ ; std::_Tree_comp_alloc<std::_Tmap_traits<Json::Value::CZString,Json::Value,std::less<Json::Value::CZString>,std::allocator<std::pair<Json::Value::CZString const ,Json::Value> >,0> >::_Get_data
PUBLIC	?_Get_data@?$_Tree_comp_alloc@V?$_Tmap_traits@VCZString@Value@Json@@V23@U?$less@VCZString@Value@Json@@@std@@V?$allocator@U?$pair@$$CBVCZString@Value@Json@@V23@@std@@@5@$0A@@std@@@std@@QEBAAEBV?$_Tree_val@U?$_Tree_simple_types@U?$pair@$$CBVCZString@Value@Json@@V23@@std@@@std@@@2@XZ ; std::_Tree_comp_alloc<std::_Tmap_traits<Json::Value::CZString,Json::Value,std::less<Json::Value::CZString>,std::allocator<std::pair<Json::Value::CZString const ,Json::Value> >,0> >::_Get_data
PUBLIC	?select_on_container_copy_construction@?$_Default_allocator_traits@V?$allocator@U?$_Tree_node@U?$pair@$$CBVCZString@Value@Json@@V23@@std@@PEAX@std@@@std@@@std@@SA?AV?$allocator@U?$_Tree_node@U?$pair@$$CBVCZString@Value@Json@@V23@@std@@PEAX@std@@@2@AEBV32@@Z ; std::_Default_allocator_traits<std::allocator<std::_Tree_node<std::pair<Json::Value::CZString const ,Json::Value>,void *> > >::select_on_container_copy_construction
PUBLIC	?_Root@?$_Tree_val@U?$_Tree_simple_types@U?$pair@$$CBVCZString@Value@Json@@V23@@std@@@std@@@std@@QEBAAEAPEAU?$_Tree_node@U?$pair@$$CBVCZString@Value@Json@@V23@@std@@PEAX@2@XZ ; std::_Tree_val<std::_Tree_simple_types<std::pair<Json::Value::CZString const ,Json::Value> > >::_Root
PUBLIC	?_Lmost@?$_Tree_val@U?$_Tree_simple_types@U?$pair@$$CBVCZString@Value@Json@@V23@@std@@@std@@@std@@QEBAAEAPEAU?$_Tree_node@U?$pair@$$CBVCZString@Value@Json@@V23@@std@@PEAX@2@XZ ; std::_Tree_val<std::_Tree_simple_types<std::pair<Json::Value::CZString const ,Json::Value> > >::_Lmost
PUBLIC	?_Rmost@?$_Tree_val@U?$_Tree_simple_types@U?$pair@$$CBVCZString@Value@Json@@V23@@std@@@std@@@std@@QEBAAEAPEAU?$_Tree_node@U?$pair@$$CBVCZString@Value@Json@@V23@@std@@PEAX@2@XZ ; std::_Tree_val<std::_Tree_simple_types<std::pair<Json::Value::CZString const ,Json::Value> > >::_Rmost
PUBLIC	??0?$_Tree_iterator@V?$_Tree_val@U?$_Tree_simple_types@U?$pair@$$CBVCZString@Value@Json@@V23@@std@@@std@@@std@@@std@@QEAA@PEAU?$_Tree_node@U?$pair@$$CBVCZString@Value@Json@@V23@@std@@PEAX@1@PEBV?$_Tree_val@U?$_Tree_simple_types@U?$pair@$$CBVCZString@Value@Json@@V23@@std@@@std@@@1@@Z ; std::_Tree_iterator<std::_Tree_val<std::_Tree_simple_types<std::pair<Json::Value::CZString const ,Json::Value> > > >::_Tree_iterator<std::_Tree_val<std::_Tree_simple_types<std::pair<Json::Value::CZString const ,Json::Value> > > >
PUBLIC	??0?$_Tree_const_iterator@V?$_Tree_val@U?$_Tree_simple_types@U?$pair@$$CBVCZString@Value@Json@@V23@@std@@@std@@@std@@@std@@QEAA@XZ ; std::_Tree_const_iterator<std::_Tree_val<std::_Tree_simple_types<std::pair<Json::Value::CZString const ,Json::Value> > > >::_Tree_const_iterator<std::_Tree_val<std::_Tree_simple_types<std::pair<Json::Value::CZString const ,Json::Value> > > >
PUBLIC	??E?$_Tree_unchecked_const_iterator@V?$_Tree_val@U?$_Tree_simple_types@U?$pair@$$CBVCZString@Value@Json@@V23@@std@@@std@@@std@@U_Iterator_base0@2@@std@@QEAAAEAV01@XZ ; std::_Tree_unchecked_const_iterator<std::_Tree_val<std::_Tree_simple_types<std::pair<Json::Value::CZString const ,Json::Value> > >,std::_Iterator_base0>::operator++
PUBLIC	??F?$_Tree_unchecked_const_iterator@V?$_Tree_val@U?$_Tree_simple_types@U?$pair@$$CBVCZString@Value@Json@@V23@@std@@@std@@@std@@U_Iterator_base0@2@@std@@QEAAAEAV01@XZ ; std::_Tree_unchecked_const_iterator<std::_Tree_val<std::_Tree_simple_types<std::pair<Json::Value::CZString const ,Json::Value> > >,std::_Iterator_base0>::operator--
PUBLIC	??0?$vector@V?$basic_string@DU?$char_traits@D@std@@V?$allocator@D@2@@std@@V?$allocator@V?$basic_string@DU?$char_traits@D@std@@V?$allocator@D@2@@std@@@2@@std@@QEAA@$$QEAV01@@Z ; std::vector<std::basic_string<char,std::char_traits<char>,std::allocator<char> >,std::allocator<std::basic_string<char,std::char_traits<char>,std::allocator<char> > > >::vector<std::basic_string<char,std::char_traits<char>,std::allocator<char> >,std::allocator<std::basic_string<char,std::char_traits<char>,std::allocator<char> > > >
PUBLIC	??0?$map@VCZString@Value@Json@@V23@U?$less@VCZString@Value@Json@@@std@@V?$allocator@U?$pair@$$CBVCZString@Value@Json@@V23@@std@@@5@@std@@QEAA@XZ ; std::map<Json::Value::CZString,Json::Value,std::less<Json::Value::CZString>,std::allocator<std::pair<Json::Value::CZString const ,Json::Value> > >::map<Json::Value::CZString,Json::Value,std::less<Json::Value::CZString>,std::allocator<std::pair<Json::Value::CZString const ,Json::Value> > >
PUBLIC	??0?$map@VCZString@Value@Json@@V23@U?$less@VCZString@Value@Json@@@std@@V?$allocator@U?$pair@$$CBVCZString@Value@Json@@V23@@std@@@5@@std@@QEAA@AEBV01@@Z ; std::map<Json::Value::CZString,Json::Value,std::less<Json::Value::CZString>,std::allocator<std::pair<Json::Value::CZString const ,Json::Value> > >::map<Json::Value::CZString,Json::Value,std::less<Json::Value::CZString>,std::allocator<std::pair<Json::Value::CZString const ,Json::Value> > >
PUBLIC	??1?$_Tree@V?$_Tmap_traits@VCZString@Value@Json@@V23@U?$less@VCZString@Value@Json@@@std@@V?$allocator@U?$pair@$$CBVCZString@Value@Json@@V23@@std@@@5@$0A@@std@@@std@@QEAA@XZ ; std::_Tree<std::_Tmap_traits<Json::Value::CZString,Json::Value,std::less<Json::Value::CZString>,std::allocator<std::pair<Json::Value::CZString const ,Json::Value> >,0> >::~_Tree<std::_Tmap_traits<Json::Value::CZString,Json::Value,std::less<Json::Value::CZString>,std::allocator<std::pair<Json::Value::CZString const ,Json::Value> >,0> >
PUBLIC	?begin@?$_Tree@V?$_Tmap_traits@VCZString@Value@Json@@V23@U?$less@VCZString@Value@Json@@@std@@V?$allocator@U?$pair@$$CBVCZString@Value@Json@@V23@@std@@@5@$0A@@std@@@std@@QEAA?AV?$_Tree_iterator@V?$_Tree_val@U?$_Tree_simple_types@U?$pair@$$CBVCZString@Value@Json@@V23@@std@@@std@@@std@@@2@XZ ; std::_Tree<std::_Tmap_traits<Json::Value::CZString,Json::Value,std::less<Json::Value::CZString>,std::allocator<std::pair<Json::Value::CZString const ,Json::Value> >,0> >::begin
PUBLIC	?end@?$_Tree@V?$_Tmap_traits@VCZString@Value@Json@@V23@U?$less@VCZString@Value@Json@@@std@@V?$allocator@U?$pair@$$CBVCZString@Value@Json@@V23@@std@@@5@$0A@@std@@@std@@QEAA?AV?$_Tree_iterator@V?$_Tree_val@U?$_Tree_simple_types@U?$pair@$$CBVCZString@Value@Json@@V23@@std@@@std@@@std@@@2@XZ ; std::_Tree<std::_Tmap_traits<Json::Value::CZString,Json::Value,std::less<Json::Value::CZString>,std::allocator<std::pair<Json::Value::CZString const ,Json::Value> >,0> >::end
PUBLIC	?size@?$_Tree@V?$_Tmap_traits@VCZString@Value@Json@@V23@U?$less@VCZString@Value@Json@@@std@@V?$allocator@U?$pair@$$CBVCZString@Value@Json@@V23@@std@@@5@$0A@@std@@@std@@QEBA_KXZ ; std::_Tree<std::_Tmap_traits<Json::Value::CZString,Json::Value,std::less<Json::Value::CZString>,std::allocator<std::pair<Json::Value::CZString const ,Json::Value> >,0> >::size
PUBLIC	?empty@?$_Tree@V?$_Tmap_traits@VCZString@Value@Json@@V23@U?$less@VCZString@Value@Json@@@std@@V?$allocator@U?$pair@$$CBVCZString@Value@Json@@V23@@std@@@5@$0A@@std@@@std@@QEBA_NXZ ; std::_Tree<std::_Tmap_traits<Json::Value::CZString,Json::Value,std::less<Json::Value::CZString>,std::allocator<std::pair<Json::Value::CZString const ,Json::Value> >,0> >::empty
PUBLIC	?clear@?$_Tree@V?$_Tmap_traits@VCZString@Value@Json@@V23@U?$less@VCZString@Value@Json@@@std@@V?$allocator@U?$pair@$$CBVCZString@Value@Json@@V23@@std@@@5@$0A@@std@@@std@@QEAAXXZ ; std::_Tree<std::_Tmap_traits<Json::Value::CZString,Json::Value,std::less<Json::Value::CZString>,std::allocator<std::pair<Json::Value::CZString const ,Json::Value> >,0> >::clear
PUBLIC	?find@?$_Tree@V?$_Tmap_traits@VCZString@Value@Json@@V23@U?$less@VCZString@Value@Json@@@std@@V?$allocator@U?$pair@$$CBVCZString@Value@Json@@V23@@std@@@5@$0A@@std@@@std@@QEAA?AV?$_Tree_iterator@V?$_Tree_val@U?$_Tree_simple_types@U?$pair@$$CBVCZString@Value@Json@@V23@@std@@@std@@@std@@@2@AEBVCZString@Value@Json@@@Z ; std::_Tree<std::_Tmap_traits<Json::Value::CZString,Json::Value,std::less<Json::Value::CZString>,std::allocator<std::pair<Json::Value::CZString const ,Json::Value> >,0> >::find
PUBLIC	?lower_bound@?$_Tree@V?$_Tmap_traits@VCZString@Value@Json@@V23@U?$less@VCZString@Value@Json@@@std@@V?$allocator@U?$pair@$$CBVCZString@Value@Json@@V23@@std@@@5@$0A@@std@@@std@@QEAA?AV?$_Tree_iterator@V?$_Tree_val@U?$_Tree_simple_types@U?$pair@$$CBVCZString@Value@Json@@V23@@std@@@std@@@std@@@2@AEBVCZString@Value@Json@@@Z ; std::_Tree<std::_Tmap_traits<Json::Value::CZString,Json::Value,std::less<Json::Value::CZString>,std::allocator<std::pair<Json::Value::CZString const ,Json::Value> >,0> >::lower_bound
PUBLIC	??D?$_Tree_iterator@V?$_Tree_val@U?$_Tree_simple_types@U?$pair@$$CBVCZString@Value@Json@@V23@@std@@@std@@@std@@@std@@QEBAAEAU?$pair@$$CBVCZString@Value@Json@@V23@@1@XZ ; std::_Tree_iterator<std::_Tree_val<std::_Tree_simple_types<std::pair<Json::Value::CZString const ,Json::Value> > > >::operator*
PUBLIC	??F?$_Tree_iterator@V?$_Tree_val@U?$_Tree_simple_types@U?$pair@$$CBVCZString@Value@Json@@V23@@std@@@std@@@std@@@std@@QEAAAEAV01@XZ ; std::_Tree_iterator<std::_Tree_val<std::_Tree_simple_types<std::pair<Json::Value::CZString const ,Json::Value> > > >::operator--
PUBLIC	??D?$_Tree_const_iterator@V?$_Tree_val@U?$_Tree_simple_types@U?$pair@$$CBVCZString@Value@Json@@V23@@std@@@std@@@std@@@std@@QEBAAEBU?$pair@$$CBVCZString@Value@Json@@V23@@1@XZ ; std::_Tree_const_iterator<std::_Tree_val<std::_Tree_simple_types<std::pair<Json::Value::CZString const ,Json::Value> > > >::operator*
PUBLIC	??E?$_Tree_const_iterator@V?$_Tree_val@U?$_Tree_simple_types@U?$pair@$$CBVCZString@Value@Json@@V23@@std@@@std@@@std@@@std@@QEAAAEAV01@XZ ; std::_Tree_const_iterator<std::_Tree_val<std::_Tree_simple_types<std::pair<Json::Value::CZString const ,Json::Value> > > >::operator++
PUBLIC	??F?$_Tree_const_iterator@V?$_Tree_val@U?$_Tree_simple_types@U?$pair@$$CBVCZString@Value@Json@@V23@@std@@@std@@@std@@@std@@QEAAAEAV01@XZ ; std::_Tree_const_iterator<std::_Tree_val<std::_Tree_simple_types<std::pair<Json::Value::CZString const ,Json::Value> > > >::operator--
PUBLIC	??8?$_Tree_const_iterator@V?$_Tree_val@U?$_Tree_simple_types@U?$pair@$$CBVCZString@Value@Json@@V23@@std@@@std@@@std@@@std@@QEBA_NAEBV01@@Z ; std::_Tree_const_iterator<std::_Tree_val<std::_Tree_simple_types<std::pair<Json::Value::CZString const ,Json::Value> > > >::operator==
PUBLIC	??9?$_Tree_const_iterator@V?$_Tree_val@U?$_Tree_simple_types@U?$pair@$$CBVCZString@Value@Json@@V23@@std@@@std@@@std@@@std@@QEBA_NAEBV01@@Z ; std::_Tree_const_iterator<std::_Tree_val<std::_Tree_simple_types<std::pair<Json::Value::CZString const ,Json::Value> > > >::operator!=
PUBLIC	?setComment@Value@Json@@QEAAXAEBV?$basic_string@DU?$char_traits@D@std@@V?$allocator@D@2@@std@@W4CommentPlacement@2@@Z ; Json::Value::setComment
PUBLIC	?setComment@Value@Json@@QEAAXPEBDW4CommentPlacement@2@@Z ; Json::Value::setComment
PUBLIC	?isString@Value@Json@@QEBA_NXZ			; Json::Value::isString
PUBLIC	?isDouble@Value@Json@@QEBA_NXZ			; Json::Value::isDouble
PUBLIC	?isInt@Value@Json@@QEBA_NXZ			; Json::Value::isInt
PUBLIC	?isBool@Value@Json@@QEBA_NXZ			; Json::Value::isBool
PUBLIC	?isMember@Value@Json@@QEBA_NAEBV?$basic_string@DU?$char_traits@D@std@@V?$allocator@D@2@@std@@@Z ; Json::Value::isMember
PUBLIC	?isMember@Value@Json@@QEBA_NPEBD@Z		; Json::Value::isMember
PUBLIC	?append@Value@Json@@QEAAAEAV12@AEBV12@@Z	; Json::Value::append
PUBLIC	??AValue@Json@@QEAAAEAV01@AEBV?$basic_string@DU?$char_traits@D@std@@V?$allocator@D@2@@std@@@Z ; Json::Value::operator[]
PUBLIC	??AValue@Json@@QEBAAEBV01@PEBD@Z		; Json::Value::operator[]
PUBLIC	?isValidIndex@Value@Json@@QEBA_NI@Z		; Json::Value::isValidIndex
PUBLIC	?resolveReference@Value@Json@@AEAAAEAV12@PEBD_N@Z ; Json::Value::resolveReference
PUBLIC	??AValue@Json@@QEAAAEAV01@PEBD@Z		; Json::Value::operator[]
PUBLIC	??1?$pair@$$CBVCZString@Value@Json@@V23@@std@@QEAA@XZ ; std::pair<Json::Value::CZString const ,Json::Value>::~pair<Json::Value::CZString const ,Json::Value>
PUBLIC	??AValue@Json@@QEAAAEAV01@I@Z			; Json::Value::operator[]
PUBLIC	?asString@Value@Json@@QEBA?AV?$basic_string@DU?$char_traits@D@std@@V?$allocator@D@2@@std@@XZ ; Json::Value::asString
PUBLIC	?swap@Value@Json@@QEAAXAEAV12@@Z		; Json::Value::swap
PUBLIC	??4Value@Json@@QEAAAEAV01@AEBV01@@Z		; Json::Value::operator=
PUBLIC	??1?$map@VCZString@Value@Json@@V23@U?$less@VCZString@Value@Json@@@std@@V?$allocator@U?$pair@$$CBVCZString@Value@Json@@V23@@std@@@5@@std@@QEAA@XZ ; std::map<Json::Value::CZString,Json::Value,std::less<Json::Value::CZString>,std::allocator<std::pair<Json::Value::CZString const ,Json::Value> > >::~map<Json::Value::CZString,Json::Value,std::less<Json::Value::CZString>,std::allocator<std::pair<Json::Value::CZString const ,Json::Value> > >
PUBLIC	??_G?$map@VCZString@Value@Json@@V23@U?$less@VCZString@Value@Json@@@std@@V?$allocator@U?$pair@$$CBVCZString@Value@Json@@V23@@std@@@5@@std@@QEAAPEAXI@Z ; std::map<Json::Value::CZString,Json::Value,std::less<Json::Value::CZString>,std::allocator<std::pair<Json::Value::CZString const ,Json::Value> > >::`scalar deleting destructor'
PUBLIC	??1Value@Json@@QEAA@XZ				; Json::Value::~Value
PUBLIC	??_ECommentInfo@Value@Json@@QEAAPEAXI@Z		; Json::Value::CommentInfo::`vector deleting destructor'
PUBLIC	??0Value@Json@@QEAA@AEBV01@@Z			; Json::Value::Value
PUBLIC	??0Value@Json@@QEAA@_N@Z			; Json::Value::Value
PUBLIC	??0Value@Json@@QEAA@AEBV?$basic_string@DU?$char_traits@D@std@@V?$allocator@D@2@@std@@@Z ; Json::Value::Value
PUBLIC	??0Value@Json@@QEAA@N@Z				; Json::Value::Value
PUBLIC	??0Value@Json@@QEAA@I@Z				; Json::Value::Value
PUBLIC	??0Value@Json@@QEAA@H@Z				; Json::Value::Value
PUBLIC	??0Value@Json@@QEAA@W4ValueType@1@@Z		; Json::Value::Value
PUBLIC	?c_str@CZString@Value@Json@@QEBAPEBDXZ		; Json::Value::CZString::c_str
PUBLIC	?index@CZString@Value@Json@@QEBAHXZ		; Json::Value::CZString::index
PUBLIC	??8CZString@Value@Json@@QEBA_NAEBV012@@Z	; Json::Value::CZString::operator==
PUBLIC	??MCZString@Value@Json@@QEBA_NAEBV012@@Z	; Json::Value::CZString::operator<
PUBLIC	??1CZString@Value@Json@@QEAA@XZ			; Json::Value::CZString::~CZString
PUBLIC	??0CZString@Value@Json@@QEAA@AEBV012@@Z		; Json::Value::CZString::CZString
PUBLIC	??0CZString@Value@Json@@QEAA@PEBDW4DuplicationPolicy@012@@Z ; Json::Value::CZString::CZString
PUBLIC	??0CZString@Value@Json@@QEAA@H@Z		; Json::Value::CZString::CZString
PUBLIC	?setComment@CommentInfo@Value@Json@@QEAAXPEBD@Z	; Json::Value::CommentInfo::setComment
PUBLIC	??1CommentInfo@Value@Json@@QEAA@XZ		; Json::Value::CommentInfo::~CommentInfo
PUBLIC	??0CommentInfo@Value@Json@@QEAA@XZ		; Json::Value::CommentInfo::CommentInfo
PUBLIC	??0DummyValueAllocatorInitializer@Json@@QEAA@XZ	; Json::DummyValueAllocatorInitializer::DummyValueAllocatorInitializer
PUBLIC	??0ValueAllocator@Json@@QEAA@XZ			; Json::ValueAllocator::ValueAllocator
PUBLIC	??0DefaultValueAllocator@Json@@QEAA@XZ		; Json::DefaultValueAllocator::DefaultValueAllocator
PUBLIC	??_GDefaultValueAllocator@Json@@UEAAPEAXI@Z	; Json::DefaultValueAllocator::`scalar deleting destructor'
PUBLIC	?releaseStringValue@DefaultValueAllocator@Json@@UEAAXPEAD@Z ; Json::DefaultValueAllocator::releaseStringValue
PUBLIC	?duplicateStringValue@DefaultValueAllocator@Json@@UEAAPEADPEBDI@Z ; Json::DefaultValueAllocator::duplicateStringValue
PUBLIC	?releaseMemberName@DefaultValueAllocator@Json@@UEAAXPEAD@Z ; Json::DefaultValueAllocator::releaseMemberName
PUBLIC	?makeMemberName@DefaultValueAllocator@Json@@UEAAPEADPEBD@Z ; Json::DefaultValueAllocator::makeMemberName
PUBLIC	??1DefaultValueAllocator@Json@@UEAA@XZ		; Json::DefaultValueAllocator::~DefaultValueAllocator
PUBLIC	??_GValueAllocator@Json@@UEAAPEAXI@Z		; Json::ValueAllocator::`scalar deleting destructor'
PUBLIC	??1ValueAllocator@Json@@UEAA@XZ			; Json::ValueAllocator::~ValueAllocator
PUBLIC	??0runtime_error@std@@QEAA@AEBV01@@Z		; std::runtime_error::runtime_error
PUBLIC	??1runtime_error@std@@UEAA@XZ			; std::runtime_error::~runtime_error
PUBLIC	??_Gruntime_error@std@@UEAAPEAXI@Z		; std::runtime_error::`scalar deleting destructor'
PUBLIC	??0runtime_error@std@@QEAA@PEBD@Z		; std::runtime_error::runtime_error
PUBLIC	??_Gexception@std@@UEAAPEAXI@Z			; std::exception::`scalar deleting destructor'
PUBLIC	?what@exception@std@@UEBAPEBDXZ			; std::exception::what
PUBLIC	??1exception@std@@UEAA@XZ			; std::exception::~exception
PUBLIC	??0exception@std@@QEAA@AEBV01@@Z		; std::exception::exception
PUBLIC	??0exception@std@@QEAA@QEBD@Z			; std::exception::exception
PUBLIC	?getComment@Value@Json@@QEBA?AV?$basic_string@DU?$char_traits@D@std@@V?$allocator@D@2@@std@@W4CommentPlacement@2@@Z ; Json::Value::getComment
PUBLIC	?hasComment@Value@Json@@QEBA_NW4CommentPlacement@2@@Z ; Json::Value::hasComment
PUBLIC	?getMemberNames@Value@Json@@QEBA?AV?$vector@V?$basic_string@DU?$char_traits@D@std@@V?$allocator@D@2@@std@@V?$allocator@V?$basic_string@DU?$char_traits@D@std@@V?$allocator@D@2@@std@@@2@@std@@XZ ; Json::Value::getMemberNames
PUBLIC	??AValue@Json@@QEBAAEBV01@I@Z			; Json::Value::operator[]
PUBLIC	??AValue@Json@@QEBAAEBV01@AEBV?$basic_string@DU?$char_traits@D@std@@V?$allocator@D@2@@std@@@Z ; Json::Value::operator[]
PUBLIC	?size@Value@Json@@QEBAIXZ			; Json::Value::size
PUBLIC	?isObject@Value@Json@@QEBA_NXZ			; Json::Value::isObject
PUBLIC	?isArray@Value@Json@@QEBA_NXZ			; Json::Value::isArray
PUBLIC	?asBool@Value@Json@@QEBA_NXZ			; Json::Value::asBool
PUBLIC	?asDouble@Value@Json@@QEBANXZ			; Json::Value::asDouble
PUBLIC	?asUInt@Value@Json@@QEBAIXZ			; Json::Value::asUInt
PUBLIC	?asInt@Value@Json@@QEBAHXZ			; Json::Value::asInt
PUBLIC	?asCString@Value@Json@@QEBAPEBDXZ		; Json::Value::asCString
PUBLIC	?type@Value@Json@@QEBA?AW4ValueType@2@XZ	; Json::Value::type
PUBLIC	?null@Value@Json@@2V12@B			; Json::Value::null
EXTRN	??_Eexception@std@@UEAAPEAXI@Z:PROC		; std::exception::`vector deleting destructor'
EXTRN	??_Eruntime_error@std@@UEAAPEAXI@Z:PROC		; std::runtime_error::`vector deleting destructor'
EXTRN	??_EDefaultValueAllocator@Json@@UEAAPEAXI@Z:PROC ; Json::DefaultValueAllocator::`vector deleting destructor'
EXTRN	??_EValueAllocator@Json@@UEAAPEAXI@Z:PROC	; Json::ValueAllocator::`vector deleting destructor'
?dummyValueAllocatorInitializer@Json@@3UDummyValueAllocatorInitializer@1@A DB 01H DUP (?) ; Json::dummyValueAllocatorInitializer
	ALIGN	4

?null@Value@Json@@2V12@B DB 018H DUP (?)		; Json::Value::null
_BSS	ENDS
;	COMDAT ?$TSS0@?1??valueAllocator@Json@@YAAEAPEAVValueAllocator@2@XZ@4HA
_BSS	SEGMENT
?$TSS0@?1??valueAllocator@Json@@YAAEAPEAVValueAllocator@2@XZ@4HA DD 01H DUP (?) ; TSS0<`template-parameter-2',Json::alueAllocator,Json::AAEAPEAVValueAllocator,void,int, ?? &>
_BSS	ENDS
;	COMDAT pdata
pdata	SEGMENT
$pdata$??$?0AEAV?$_Tree_iterator@V?$_Tree_val@U?$_Tree_simple_types@U?$pair@$$CBVCZString@Value@Json@@V23@@std@@@std@@@std@@@std@@_N$0A@@?$pair@V?$_Tree_iterator@V?$_Tree_val@U?$_Tree_simple_types@U?$pair@$$CBVCZString@Value@Json@@V23@@std@@@std@@@std@@@std@@_N@std@@QEAA@AEAV?$_Tree_iterator@V?$_Tree_val@U?$_Tree_simple_types@U?$pair@$$CBVCZString@Value@Json@@V23@@std@@@std@@@std@@@1@$$QEA_N@Z DD imagerel $LN7
	DD	imagerel $LN7+38
	DD	imagerel $unwind$??$?0AEAV?$_Tree_iterator@V?$_Tree_val@U?$_Tree_simple_types@U?$pair@$$CBVCZString@Value@Json@@V23@@std@@@std@@@std@@@std@@_N$0A@@?$pair@V?$_Tree_iterator@V?$_Tree_val@U?$_Tree_simple_types@U?$pair@$$CBVCZString@Value@Json@@V23@@std@@@std@@@std@@@std@@_N@std@@QEAA@AEAV?$_Tree_iterator@V?$_Tree_val@U?$_Tree_simple_types@U?$pair@$$CBVCZString@Value@Json@@V23@@std@@@std@@@std@@@1@$$QEA_N@Z
pdata	ENDS
;	COMDAT pdata
pdata	SEGMENT
$pdata$??$?0V?$_Tree_iterator@V?$_Tree_val@U?$_Tree_simple_types@U?$pair@$$CBVCZString@Value@Json@@V23@@std@@@std@@@std@@@std@@_N$0A@@?$pair@V?$_Tree_iterator@V?$_Tree_val@U?$_Tree_simple_types@U?$pair@$$CBVCZString@Value@Json@@V23@@std@@@std@@@std@@@std@@_N@std@@QEAA@$$QEAV?$_Tree_iterator@V?$_Tree_val@U?$_Tree_simple_types@U?$pair@$$CBVCZString@Value@Json@@V23@@std@@@std@@@std@@@1@$$QEA_N@Z DD imagerel $LN7
	DD	imagerel $LN7+38
	DD	imagerel $unwind$??$?0V?$_Tree_iterator@V?$_Tree_val@U?$_Tree_simple_types@U?$pair@$$CBVCZString@Value@Json@@V23@@std@@@std@@@std@@@std@@_N$0A@@?$pair@V?$_Tree_iterator@V?$_Tree_val@U?$_Tree_simple_types@U?$pair@$$CBVCZString@Value@Json@@V23@@std@@@std@@@std@@@std@@_N@std@@QEAA@$$QEAV?$_Tree_iterator@V?$_Tree_val@U?$_Tree_simple_types@U?$pair@$$CBVCZString@Value@Json@@V23@@std@@@std@@@std@@@1@$$QEA_N@Z
pdata	ENDS
;	COMDAT pdata
pdata	SEGMENT
$pdata$??0?$pair@$$CBVCZString@Value@Json@@V23@@std@@QEAA@AEBU01@@Z DD imagerel $LN15
	DD	imagerel $LN15+117
	DD	imagerel $unwind$??0?$pair@$$CBVCZString@Value@Json@@V23@@std@@QEAA@AEBU01@@Z
pdata	ENDS
;	COMDAT pdata
pdata	SEGMENT
$pdata$??$_Insert_nohint@AEAU?$pair@$$CBVCZString@Value@Json@@V23@@std@@PEAU?$_Tree_node@U?$pair@$$CBVCZString@Value@Json@@V23@@std@@PEAX@2@@?$_Tree@V?$_Tmap_traits@VCZString@Value@Json@@V23@U?$less@VCZString@Value@Json@@@std@@V?$allocator@U?$pair@$$CBVCZString@Value@Json@@V23@@std@@@5@$0A@@std@@@std@@IEAA?AU?$pair@V?$_Tree_iterator@V?$_Tree_val@U?$_Tree_simple_types@U?$pair@$$CBVCZString@Value@Json@@V23@@std@@@std@@@std@@@std@@_N@1@_NAEAU?$pair@$$CBVCZString@Value@Json@@V23@@1@PEAU?$_Tree_node@U?$pair@$$CBVCZString@Value@Json@@V23@@std@@PEAX@1@@Z DD imagerel $LN174
	DD	imagerel $LN174+611
	DD	imagerel $unwind$??$_Insert_nohint@AEAU?$pair@$$CBVCZString@Value@Json@@V23@@std@@PEAU?$_Tree_node@U?$pair@$$CBVCZString@Value@Json@@V23@@std@@PEAX@2@@?$_Tree@V?$_Tmap_traits@VCZString@Value@Json@@V23@U?$less@VCZString@Value@Json@@@std@@V?$allocator@U?$pair@$$CBVCZString@Value@Json@@V23@@std@@@5@$0A@@std@@@std@@IEAA?AU?$pair@V?$_Tree_iterator@V?$_Tree_val@U?$_Tree_simple_types@U?$pair@$$CBVCZString@Value@Json@@V23@@std@@@std@@@std@@@std@@_N@1@_NAEAU?$pair@$$CBVCZString@Value@Json@@V23@@1@PEAU?$_Tree_node@U?$pair@$$CBVCZString@Value@Json@@V23@@std@@PEAX@1@@Z
pdata	ENDS
;	COMDAT pdata
pdata	SEGMENT
$pdata$?catch$0@?0???$_Insert_nohint@AEAU?$pair@$$CBVCZString@Value@Json@@V23@@std@@PEAU?$_Tree_node@U?$pair@$$CBVCZString@Value@Json@@V23@@std@@PEAX@2@@?$_Tree@V?$_Tmap_traits@VCZString@Value@Json@@V23@U?$less@VCZString@Value@Json@@@std@@V?$allocator@U?$pair@$$CBVCZString@Value@Json@@V23@@std@@@5@$0A@@std@@@std@@IEAA?AU?$pair@V?$_Tree_iterator@V?$_Tree_val@U?$_Tree_simple_types@U?$pair@$$CBVCZString@Value@Json@@V23@@std@@@std@@@std@@@std@@_N@1@_NAEAU?$pair@$$CBVCZString@Value@Json@@V23@@1@PEAU?$_Tree_node@U?$pair@$$CBVCZString@Value@Json@@V23@@std@@PEAX@1@@Z@4HA DD imagerel ?catch$0@?0???$_Insert_nohint@AEAU?$pair@$$CBVCZString@Value@Json@@V23@@std@@PEAU?$_Tree_node@U?$pair@$$CBVCZString@Value@Json@@V23@@std@@PEAX@2@@?$_Tree@V?$_Tmap_traits@VCZString@Value@Json@@V23@U?$less@VCZString@Value@Json@@@std@@V?$allocator@U?$pair@$$CBVCZString@Value@Json@@V23@@std@@@5@$0A@@std@@@std@@IEAA?AU?$pair@V?$_Tree_iterator@V?$_Tree_val@U?$_Tree_simple_types@U?$pair@$$CBVCZString@Value@Json@@V23@@std@@@std@@@std@@@std@@_N@1@_NAEAU?$pair@$$CBVCZString@Value@Json@@V23@@1@PEAU?$_Tree_node@U?$pair@$$CBVCZString@Value@Json@@V23@@std@@PEAX@1@@Z@4HA
	DD	imagerel ?catch$0@?0???$_Insert_nohint@AEAU?$pair@$$CBVCZString@Value@Json@@V23@@std@@PEAU?$_Tree_node@U?$pair@$$CBVCZString@Value@Json@@V23@@std@@PEAX@2@@?$_Tree@V?$_Tmap_traits@VCZString@Value@Json@@V23@U?$less@VCZString@Value@Json@@@std@@V?$allocator@U?$pair@$$CBVCZString@Value@Json@@V23@@std@@@5@$0A@@std@@@std@@IEAA?AU?$pair@V?$_Tree_iterator@V?$_Tree_val@U?$_Tree_simple_types@U?$pair@$$CBVCZString@Value@Json@@V23@@std@@@std@@@std@@@std@@_N@1@_NAEAU?$pair@$$CBVCZString@Value@Json@@V23@@1@PEAU?$_Tree_node@U?$pair@$$CBVCZString@Value@Json@@V23@@std@@PEAX@1@@Z@4HA+35
	DD	imagerel $unwind$?catch$0@?0???$_Insert_nohint@AEAU?$pair@$$CBVCZString@Value@Json@@V23@@std@@PEAU?$_Tree_node@U?$pair@$$CBVCZString@Value@Json@@V23@@std@@PEAX@2@@?$_Tree@V?$_Tmap_traits@VCZString@Value@Json@@V23@U?$less@VCZString@Value@Json@@@std@@V?$allocator@U?$pair@$$CBVCZString@Value@Json@@V23@@std@@@5@$0A@@std@@@std@@IEAA?AU?$pair@V?$_Tree_iterator@V?$_Tree_val@U?$_Tree_simple_types@U?$pair@$$CBVCZString@Value@Json@@V23@@std@@@std@@@std@@@std@@_N@1@_NAEAU?$pair@$$CBVCZString@Value@Json@@V23@@1@PEAU?$_Tree_node@U?$pair@$$CBVCZString@Value@Json@@V23@@std@@PEAX@1@@Z@4HA
pdata	ENDS
;	COMDAT pdata
pdata	SEGMENT
$pdata$??$_Insert_at@AEAU?$pair@$$CBVCZString@Value@Json@@V23@@std@@PEAU?$_Tree_node@U?$pair@$$CBVCZString@Value@Json@@V23@@std@@PEAX@2@@?$_Tree@V?$_Tmap_traits@VCZString@Value@Json@@V23@U?$less@VCZString@Value@Json@@@std@@V?$allocator@U?$pair@$$CBVCZString@Value@Json@@V23@@std@@@5@$0A@@std@@@std@@IEAA?AV?$_Tree_iterator@V?$_Tree_val@U?$_Tree_simple_types@U?$pair@$$CBVCZString@Value@Json@@V23@@std@@@std@@@std@@@1@_NPEAU?$_Tree_node@U?$pair@$$CBVCZString@Value@Json@@V23@@std@@PEAX@1@AEAU?$pair@$$CBVCZString@Value@Json@@V23@@1@1@Z DD imagerel $LN104
	DD	imagerel $LN104+686
	DD	imagerel $unwind$??$_Insert_at@AEAU?$pair@$$CBVCZString@Value@Json@@V23@@std@@PEAU?$_Tree_node@U?$pair@$$CBVCZString@Value@Json@@V23@@std@@PEAX@2@@?$_Tree@V?$_Tmap_traits@VCZString@Value@Json@@V23@U?$less@VCZString@Value@Json@@@std@@V?$allocator@U?$pair@$$CBVCZString@Value@Json@@V23@@std@@@5@$0A@@std@@@std@@IEAA?AV?$_Tree_iterator@V?$_Tree_val@U?$_Tree_simple_types@U?$pair@$$CBVCZString@Value@Json@@V23@@std@@@std@@@std@@@1@_NPEAU?$_Tree_node@U?$pair@$$CBVCZString@Value@Json@@V23@@std@@PEAX@1@AEAU?$pair@$$CBVCZString@Value@Json@@V23@@1@1@Z
pdata	ENDS
;	COMDAT pdata
pdata	SEGMENT
$pdata$??$construct@U?$pair@$$CBVCZString@Value@Json@@V23@@std@@AEAU12@@?$_Default_allocator_traits@V?$allocator@U?$_Tree_node@U?$pair@$$CBVCZString@Value@Json@@V23@@std@@PEAX@std@@@std@@@std@@SAXAEAV?$allocator@U?$_Tree_node@U?$pair@$$CBVCZString@Value@Json@@V23@@std@@PEAX@std@@@1@QEAU?$pair@$$CBVCZString@Value@Json@@V23@@1@AEAU31@@Z DD imagerel $LN19
	DD	imagerel $LN19+130
	DD	imagerel $unwind$??$construct@U?$pair@$$CBVCZString@Value@Json@@V23@@std@@AEAU12@@?$_Default_allocator_traits@V?$allocator@U?$_Tree_node@U?$pair@$$CBVCZString@Value@Json@@V23@@std@@PEAX@std@@@std@@@std@@SAXAEAV?$allocator@U?$_Tree_node@U?$pair@$$CBVCZString@Value@Json@@V23@@std@@PEAX@std@@@1@QEAU?$pair@$$CBVCZString@Value@Json@@V23@@1@AEAU31@@Z
pdata	ENDS
;	COMDAT pdata
pdata	SEGMENT
$pdata$?_Destroy_if_node@?$_Tree@V?$_Tmap_traits@VCZString@Value@Json@@V23@U?$less@VCZString@Value@Json@@@std@@V?$allocator@U?$pair@$$CBVCZString@Value@Json@@V23@@std@@@5@$0A@@std@@@std@@IEAAXPEAU?$_Tree_node@U?$pair@$$CBVCZString@Value@Json@@V23@@std@@PEAX@2@@Z DD imagerel $LN42
	DD	imagerel $LN42+80
	DD	imagerel $unwind$?_Destroy_if_node@?$_Tree@V?$_Tmap_traits@VCZString@Value@Json@@V23@U?$less@VCZString@Value@Json@@@std@@V?$allocator@U?$pair@$$CBVCZString@Value@Json@@V23@@std@@@5@$0A@@std@@@std@@IEAAXPEAU?$_Tree_node@U?$pair@$$CBVCZString@Value@Json@@V23@@std@@PEAX@2@@Z
pdata	ENDS
;	COMDAT pdata
pdata	SEGMENT
$pdata$?_Buynode0@?$_Tree_comp_alloc@V?$_Tmap_traits@VCZString@Value@Json@@V23@U?$less@VCZString@Value@Json@@@std@@V?$allocator@U?$pair@$$CBVCZString@Value@Json@@V23@@std@@@5@$0A@@std@@@std@@QEAAPEAU?$_Tree_node@U?$pair@$$CBVCZString@Value@Json@@V23@@std@@PEAX@2@XZ DD imagerel $LN42
	DD	imagerel $LN42+107
	DD	imagerel $unwind$?_Buynode0@?$_Tree_comp_alloc@V?$_Tmap_traits@VCZString@Value@Json@@V23@U?$less@VCZString@Value@Json@@@std@@V?$allocator@U?$pair@$$CBVCZString@Value@Json@@V23@@std@@@5@$0A@@std@@@std@@QEAAPEAU?$_Tree_node@U?$pair@$$CBVCZString@Value@Json@@V23@@std@@PEAX@2@XZ
pdata	ENDS
;	COMDAT pdata
pdata	SEGMENT
$pdata$?_Freenode0@?$_Tree_comp_alloc@V?$_Tmap_traits@VCZString@Value@Json@@V23@U?$less@VCZString@Value@Json@@@std@@V?$allocator@U?$pair@$$CBVCZString@Value@Json@@V23@@std@@@5@$0A@@std@@@std@@QEAAXPEAU?$_Tree_node@U?$pair@$$CBVCZString@Value@Json@@V23@@std@@PEAX@2@@Z DD imagerel $LN28
	DD	imagerel $LN28+32
	DD	imagerel $unwind$?_Freenode0@?$_Tree_comp_alloc@V?$_Tmap_traits@VCZString@Value@Json@@V23@U?$less@VCZString@Value@Json@@@std@@V?$allocator@U?$pair@$$CBVCZString@Value@Json@@V23@@std@@@5@$0A@@std@@@std@@QEAAXPEAU?$_Tree_node@U?$pair@$$CBVCZString@Value@Json@@V23@@std@@PEAX@2@@Z
pdata	ENDS
;	COMDAT pdata
pdata	SEGMENT
$pdata$??$_Copy_nodes@U_Copy_tag@?$_Tree@V?$_Tmap_traits@VCZString@Value@Json@@V23@U?$less@VCZString@Value@Json@@@std@@V?$allocator@U?$pair@$$CBVCZString@Value@Json@@V23@@std@@@5@$0A@@std@@@std@@@?$_Tree@V?$_Tmap_traits@VCZString@Value@Json@@V23@U?$less@VCZString@Value@Json@@@std@@V?$allocator@U?$pair@$$CBVCZString@Value@Json@@V23@@std@@@5@$0A@@std@@@std@@IEAAPEAU?$_Tree_node@U?$pair@$$CBVCZString@Value@Json@@V23@@std@@PEAX@1@PEAU21@0U_Copy_tag@01@@Z DD imagerel $LN20
	DD	imagerel $LN20+155
	DD	imagerel $unwind$??$_Copy_nodes@U_Copy_tag@?$_Tree@V?$_Tmap_traits@VCZString@Value@Json@@V23@U?$less@VCZString@Value@Json@@@std@@V?$allocator@U?$pair@$$CBVCZString@Value@Json@@V23@@std@@@5@$0A@@std@@@std@@@?$_Tree@V?$_Tmap_traits@VCZString@Value@Json@@V23@U?$less@VCZString@Value@Json@@@std@@V?$allocator@U?$pair@$$CBVCZString@Value@Json@@V23@@std@@@5@$0A@@std@@@std@@IEAAPEAU?$_Tree_node@U?$pair@$$CBVCZString@Value@Json@@V23@@std@@PEAX@1@PEAU21@0U_Copy_tag@01@@Z
pdata	ENDS
;	COMDAT pdata
pdata	SEGMENT
$pdata$?catch$0@?0???$_Copy_nodes@U_Copy_tag@?$_Tree@V?$_Tmap_traits@VCZString@Value@Json@@V23@U?$less@VCZString@Value@Json@@@std@@V?$allocator@U?$pair@$$CBVCZString@Value@Json@@V23@@std@@@5@$0A@@std@@@std@@@?$_Tree@V?$_Tmap_traits@VCZString@Value@Json@@V23@U?$less@VCZString@Value@Json@@@std@@V?$allocator@U?$pair@$$CBVCZString@Value@Json@@V23@@std@@@5@$0A@@std@@@std@@IEAAPEAU?$_Tree_node@U?$pair@$$CBVCZString@Value@Json@@V23@@std@@PEAX@1@PEAU21@0U_Copy_tag@01@@Z@4HA DD imagerel ?catch$0@?0???$_Copy_nodes@U_Copy_tag@?$_Tree@V?$_Tmap_traits@VCZString@Value@Json@@V23@U?$less@VCZString@Value@Json@@@std@@V?$allocator@U?$pair@$$CBVCZString@Value@Json@@V23@@std@@@5@$0A@@std@@@std@@@?$_Tree@V?$_Tmap_traits@VCZString@Value@Json@@V23@U?$less@VCZString@Value@Json@@@std@@V?$allocator@U?$pair@$$CBVCZString@Value@Json@@V23@@std@@@5@$0A@@std@@@std@@IEAAPEAU?$_Tree_node@U?$pair@$$CBVCZString@Value@Json@@V23@@std@@PEAX@1@PEAU21@0U_Copy_tag@01@@Z@4HA
	DD	imagerel ?catch$0@?0???$_Copy_nodes@U_Copy_tag@?$_Tree@V?$_Tmap_traits@VCZString@Value@Json@@V23@U?$less@VCZString@Value@Json@@@std@@V?$allocator@U?$pair@$$CBVCZString@Value@Json@@V23@@std@@@5@$0A@@std@@@std@@@?$_Tree@V?$_Tmap_traits@VCZString@Value@Json@@V23@U?$less@VCZString@Value@Json@@@std@@V?$allocator@U?$pair@$$CBVCZString@Value@Json@@V23@@std@@@5@$0A@@std@@@std@@IEAAPEAU?$_Tree_node@U?$pair@$$CBVCZString@Value@Json@@V23@@std@@PEAX@1@PEAU21@0U_Copy_tag@01@@Z@4HA+36
	DD	imagerel $unwind$?catch$0@?0???$_Copy_nodes@U_Copy_tag@?$_Tree@V?$_Tmap_traits@VCZString@Value@Json@@V23@U?$less@VCZString@Value@Json@@@std@@V?$allocator@U?$pair@$$CBVCZString@Value@Json@@V23@@std@@@5@$0A@@std@@@std@@@?$_Tree@V?$_Tmap_traits@VCZString@Value@Json@@V23@U?$less@VCZString@Value@Json@@@std@@V?$allocator@U?$pair@$$CBVCZString@Value@Json@@V23@@std@@@5@$0A@@std@@@std@@IEAAPEAU?$_Tree_node@U?$pair@$$CBVCZString@Value@Json@@V23@@std@@PEAX@1@PEAU21@0U_Copy_tag@01@@Z@4HA
pdata	ENDS
;	COMDAT pdata
pdata	SEGMENT
$pdata$??$_Insert_hint@AEAU?$pair@$$CBVCZString@Value@Json@@V23@@std@@PEAU?$_Tree_node@U?$pair@$$CBVCZString@Value@Json@@V23@@std@@PEAX@2@@?$_Tree@V?$_Tmap_traits@VCZString@Value@Json@@V23@U?$less@VCZString@Value@Json@@@std@@V?$allocator@U?$pair@$$CBVCZString@Value@Json@@V23@@std@@@5@$0A@@std@@@std@@IEAA?AV?$_Tree_iterator@V?$_Tree_val@U?$_Tree_simple_types@U?$pair@$$CBVCZString@Value@Json@@V23@@std@@@std@@@std@@@1@V?$_Tree_const_iterator@V?$_Tree_val@U?$_Tree_simple_types@U?$pair@$$CBVCZString@Value@Json@@V23@@std@@@std@@@std@@@1@AEAU?$pair@$$CBVCZString@Value@Json@@V23@@1@PEAU?$_Tree_node@U?$pair@$$CBVCZString@Value@Json@@V23@@std@@PEAX@1@@Z DD imagerel $LN526
	DD	imagerel $LN526+1037
	DD	imagerel $unwind$??$_Insert_hint@AEAU?$pair@$$CBVCZString@Value@Json@@V23@@std@@PEAU?$_Tree_node@U?$pair@$$CBVCZString@Value@Json@@V23@@std@@PEAX@2@@?$_Tree@V?$_Tmap_traits@VCZString@Value@Json@@V23@U?$less@VCZString@Value@Json@@@std@@V?$allocator@U?$pair@$$CBVCZString@Value@Json@@V23@@std@@@5@$0A@@std@@@std@@IEAA?AV?$_Tree_iterator@V?$_Tree_val@U?$_Tree_simple_types@U?$pair@$$CBVCZString@Value@Json@@V23@@std@@@std@@@std@@@1@V?$_Tree_const_iterator@V?$_Tree_val@U?$_Tree_simple_types@U?$pair@$$CBVCZString@Value@Json@@V23@@std@@@std@@@std@@@1@AEAU?$pair@$$CBVCZString@Value@Json@@V23@@1@PEAU?$_Tree_node@U?$pair@$$CBVCZString@Value@Json@@V23@@std@@PEAX@1@@Z
pdata	ENDS
;	COMDAT pdata
pdata	SEGMENT
$pdata$?catch$0@?0???$_Insert_hint@AEAU?$pair@$$CBVCZString@Value@Json@@V23@@std@@PEAU?$_Tree_node@U?$pair@$$CBVCZString@Value@Json@@V23@@std@@PEAX@2@@?$_Tree@V?$_Tmap_traits@VCZString@Value@Json@@V23@U?$less@VCZString@Value@Json@@@std@@V?$allocator@U?$pair@$$CBVCZString@Value@Json@@V23@@std@@@5@$0A@@std@@@std@@IEAA?AV?$_Tree_iterator@V?$_Tree_val@U?$_Tree_simple_types@U?$pair@$$CBVCZString@Value@Json@@V23@@std@@@std@@@std@@@1@V?$_Tree_const_iterator@V?$_Tree_val@U?$_Tree_simple_types@U?$pair@$$CBVCZString@Value@Json@@V23@@std@@@std@@@std@@@1@AEAU?$pair@$$CBVCZString@Value@Json@@V23@@1@PEAU?$_Tree_node@U?$pair@$$CBVCZString@Value@Json@@V23@@std@@PEAX@1@@Z@4HA DD imagerel ?catch$0@?0???$_Insert_hint@AEAU?$pair@$$CBVCZString@Value@Json@@V23@@std@@PEAU?$_Tree_node@U?$pair@$$CBVCZString@Value@Json@@V23@@std@@PEAX@2@@?$_Tree@V?$_Tmap_traits@VCZString@Value@Json@@V23@U?$less@VCZString@Value@Json@@@std@@V?$allocator@U?$pair@$$CBVCZString@Value@Json@@V23@@std@@@5@$0A@@std@@@std@@IEAA?AV?$_Tree_iterator@V?$_Tree_val@U?$_Tree_simple_types@U?$pair@$$CBVCZString@Value@Json@@V23@@std@@@std@@@std@@@1@V?$_Tree_const_iterator@V?$_Tree_val@U?$_Tree_simple_types@U?$pair@$$CBVCZString@Value@Json@@V23@@std@@@std@@@std@@@1@AEAU?$pair@$$CBVCZString@Value@Json@@V23@@1@PEAU?$_Tree_node@U?$pair@$$CBVCZString@Value@Json@@V23@@std@@PEAX@1@@Z@4HA
	DD	imagerel ?catch$0@?0???$_Insert_hint@AEAU?$pair@$$CBVCZString@Value@Json@@V23@@std@@PEAU?$_Tree_node@U?$pair@$$CBVCZString@Value@Json@@V23@@std@@PEAX@2@@?$_Tree@V?$_Tmap_traits@VCZString@Value@Json@@V23@U?$less@VCZString@Value@Json@@@std@@V?$allocator@U?$pair@$$CBVCZString@Value@Json@@V23@@std@@@5@$0A@@std@@@std@@IEAA?AV?$_Tree_iterator@V?$_Tree_val@U?$_Tree_simple_types@U?$pair@$$CBVCZString@Value@Json@@V23@@std@@@std@@@std@@@1@V?$_Tree_const_iterator@V?$_Tree_val@U?$_Tree_simple_types@U?$pair@$$CBVCZString@Value@Json@@V23@@std@@@std@@@std@@@1@AEAU?$pair@$$CBVCZString@Value@Json@@V23@@1@PEAU?$_Tree_node@U?$pair@$$CBVCZString@Value@Json@@V23@@std@@PEAX@1@@Z@4HA+35
	DD	imagerel $unwind$?catch$0@?0???$_Insert_hint@AEAU?$pair@$$CBVCZString@Value@Json@@V23@@std@@PEAU?$_Tree_node@U?$pair@$$CBVCZString@Value@Json@@V23@@std@@PEAX@2@@?$_Tree@V?$_Tmap_traits@VCZString@Value@Json@@V23@U?$less@VCZString@Value@Json@@@std@@V?$allocator@U?$pair@$$CBVCZString@Value@Json@@V23@@std@@@5@$0A@@std@@@std@@IEAA?AV?$_Tree_iterator@V?$_Tree_val@U?$_Tree_simple_types@U?$pair@$$CBVCZString@Value@Json@@V23@@std@@@std@@@std@@@1@V?$_Tree_const_iterator@V?$_Tree_val@U?$_Tree_simple_types@U?$pair@$$CBVCZString@Value@Json@@V23@@std@@@std@@@std@@@1@AEAU?$pair@$$CBVCZString@Value@Json@@V23@@1@PEAU?$_Tree_node@U?$pair@$$CBVCZString@Value@Json@@V23@@std@@PEAX@1@@Z@4HA
pdata	ENDS
;	COMDAT pdata
pdata	SEGMENT
$pdata$??$_Buynode@AEAU?$pair@$$CBVCZString@Value@Json@@V23@@std@@@?$_Tree_comp_alloc@V?$_Tmap_traits@VCZString@Value@Json@@V23@U?$less@VCZString@Value@Json@@@std@@V?$allocator@U?$pair@$$CBVCZString@Value@Json@@V23@@std@@@5@$0A@@std@@@std@@QEAAPEAU?$_Tree_node@U?$pair@$$CBVCZString@Value@Json@@V23@@std@@PEAX@1@AEAU?$pair@$$CBVCZString@Value@Json@@V23@@1@@Z DD imagerel $LN36
	DD	imagerel $LN36+162
	DD	imagerel $unwind$??$_Buynode@AEAU?$pair@$$CBVCZString@Value@Json@@V23@@std@@@?$_Tree_comp_alloc@V?$_Tmap_traits@VCZString@Value@Json@@V23@U?$less@VCZString@Value@Json@@@std@@V?$allocator@U?$pair@$$CBVCZString@Value@Json@@V23@@std@@@5@$0A@@std@@@std@@QEAAPEAU?$_Tree_node@U?$pair@$$CBVCZString@Value@Json@@V23@@std@@PEAX@1@AEAU?$pair@$$CBVCZString@Value@Json@@V23@@1@@Z
pdata	ENDS
;	COMDAT pdata
pdata	SEGMENT
$pdata$?catch$2@?0???$_Buynode@AEAU?$pair@$$CBVCZString@Value@Json@@V23@@std@@@?$_Tree_comp_alloc@V?$_Tmap_traits@VCZString@Value@Json@@V23@U?$less@VCZString@Value@Json@@@std@@V?$allocator@U?$pair@$$CBVCZString@Value@Json@@V23@@std@@@5@$0A@@std@@@std@@QEAAPEAU?$_Tree_node@U?$pair@$$CBVCZString@Value@Json@@V23@@std@@PEAX@1@AEAU?$pair@$$CBVCZString@Value@Json@@V23@@1@@Z@4HA DD imagerel ?catch$2@?0???$_Buynode@AEAU?$pair@$$CBVCZString@Value@Json@@V23@@std@@@?$_Tree_comp_alloc@V?$_Tmap_traits@VCZString@Value@Json@@V23@U?$less@VCZString@Value@Json@@@std@@V?$allocator@U?$pair@$$CBVCZString@Value@Json@@V23@@std@@@5@$0A@@std@@@std@@QEAAPEAU?$_Tree_node@U?$pair@$$CBVCZString@Value@Json@@V23@@std@@PEAX@1@AEAU?$pair@$$CBVCZString@Value@Json@@V23@@1@@Z@4HA
	DD	imagerel ?catch$2@?0???$_Buynode@AEAU?$pair@$$CBVCZString@Value@Json@@V23@@std@@@?$_Tree_comp_alloc@V?$_Tmap_traits@VCZString@Value@Json@@V23@U?$less@VCZString@Value@Json@@@std@@V?$allocator@U?$pair@$$CBVCZString@Value@Json@@V23@@std@@@5@$0A@@std@@@std@@QEAAPEAU?$_Tree_node@U?$pair@$$CBVCZString@Value@Json@@V23@@std@@PEAX@1@AEAU?$pair@$$CBVCZString@Value@Json@@V23@@1@@Z@4HA+32
	DD	imagerel $unwind$?catch$2@?0???$_Buynode@AEAU?$pair@$$CBVCZString@Value@Json@@V23@@std@@@?$_Tree_comp_alloc@V?$_Tmap_traits@VCZString@Value@Json@@V23@U?$less@VCZString@Value@Json@@@std@@V?$allocator@U?$pair@$$CBVCZString@Value@Json@@V23@@std@@@5@$0A@@std@@@std@@QEAAPEAU?$_Tree_node@U?$pair@$$CBVCZString@Value@Json@@V23@@std@@PEAX@1@AEAU?$pair@$$CBVCZString@Value@Json@@V23@@1@@Z@4HA
pdata	ENDS
;	COMDAT pdata
pdata	SEGMENT
$pdata$??$?0V?$allocator@V?$basic_string@DU?$char_traits@D@std@@V?$allocator@D@2@@std@@@std@@$$V@?$_Compressed_pair@V?$allocator@V?$basic_string@DU?$char_traits@D@std@@V?$allocator@D@2@@std@@@std@@V?$_Vector_val@U?$_Simple_types@V?$basic_string@DU?$char_traits@D@std@@V?$allocator@D@2@@std@@@std@@@2@$00@std@@QEAA@U_One_then_variadic_args_t@1@$$QEAV?$allocator@V?$basic_string@DU?$char_traits@D@std@@V?$allocator@D@2@@std@@@1@@Z DD imagerel $LN7
	DD	imagerel $LN7+23
	DD	imagerel $unwind$??$?0V?$allocator@V?$basic_string@DU?$char_traits@D@std@@V?$allocator@D@2@@std@@@std@@$$V@?$_Compressed_pair@V?$allocator@V?$basic_string@DU?$char_traits@D@std@@V?$allocator@D@2@@std@@@std@@V?$_Vector_val@U?$_Simple_types@V?$basic_string@DU?$char_traits@D@std@@V?$allocator@D@2@@std@@@std@@@2@$00@std@@QEAA@U_One_then_variadic_args_t@1@$$QEAV?$allocator@V?$basic_string@DU?$char_traits@D@std@@V?$allocator@D@2@@std@@@1@@Z
pdata	ENDS
;	COMDAT pdata
pdata	SEGMENT
$pdata$??$_Copy@U_Copy_tag@?$_Tree@V?$_Tmap_traits@VCZString@Value@Json@@V23@U?$less@VCZString@Value@Json@@@std@@V?$allocator@U?$pair@$$CBVCZString@Value@Json@@V23@@std@@@5@$0A@@std@@@std@@@?$_Tree@V?$_Tmap_traits@VCZString@Value@Json@@V23@U?$less@VCZString@Value@Json@@@std@@V?$allocator@U?$pair@$$CBVCZString@Value@Json@@V23@@std@@@5@$0A@@std@@@std@@IEAAXAEBV01@U_Copy_tag@01@@Z DD imagerel $LN61
	DD	imagerel $LN61+174
	DD	imagerel $unwind$??$_Copy@U_Copy_tag@?$_Tree@V?$_Tmap_traits@VCZString@Value@Json@@V23@U?$less@VCZString@Value@Json@@@std@@V?$allocator@U?$pair@$$CBVCZString@Value@Json@@V23@@std@@@5@$0A@@std@@@std@@@?$_Tree@V?$_Tmap_traits@VCZString@Value@Json@@V23@U?$less@VCZString@Value@Json@@@std@@V?$allocator@U?$pair@$$CBVCZString@Value@Json@@V23@@std@@@5@$0A@@std@@@std@@IEAAXAEBV01@U_Copy_tag@01@@Z
pdata	ENDS
;	COMDAT pdata
pdata	SEGMENT
$pdata$??$?0V?$allocator@U?$_Tree_node@U?$pair@$$CBVCZString@Value@Json@@V23@@std@@PEAX@std@@@std@@X@?$_Tree_comp_alloc@V?$_Tmap_traits@VCZString@Value@Json@@V23@U?$less@VCZString@Value@Json@@@std@@V?$allocator@U?$pair@$$CBVCZString@Value@Json@@V23@@std@@@5@$0A@@std@@@std@@QEAA@AEBU?$less@VCZString@Value@Json@@@1@$$QEAV?$allocator@U?$_Tree_node@U?$pair@$$CBVCZString@Value@Json@@V23@@std@@PEAX@std@@@1@@Z DD imagerel $LN29
	DD	imagerel $LN29+35
	DD	imagerel $unwind$??$?0V?$allocator@U?$_Tree_node@U?$pair@$$CBVCZString@Value@Json@@V23@@std@@PEAX@std@@@std@@X@?$_Tree_comp_alloc@V?$_Tmap_traits@VCZString@Value@Json@@V23@U?$less@VCZString@Value@Json@@@std@@V?$allocator@U?$pair@$$CBVCZString@Value@Json@@V23@@std@@@5@$0A@@std@@@std@@QEAA@AEBU?$less@VCZString@Value@Json@@@1@$$QEAV?$allocator@U?$_Tree_node@U?$pair@$$CBVCZString@Value@Json@@V23@@std@@PEAX@std@@@1@@Z
pdata	ENDS
;	COMDAT pdata
pdata	SEGMENT
$pdata$??$emplace_hint@AEAU?$pair@$$CBVCZString@Value@Json@@V23@@std@@@?$_Tree@V?$_Tmap_traits@VCZString@Value@Json@@V23@U?$less@VCZString@Value@Json@@@std@@V?$allocator@U?$pair@$$CBVCZString@Value@Json@@V23@@std@@@5@$0A@@std@@@std@@QEAA?AV?$_Tree_iterator@V?$_Tree_val@U?$_Tree_simple_types@U?$pair@$$CBVCZString@Value@Json@@V23@@std@@@std@@@std@@@1@V?$_Tree_const_iterator@V?$_Tree_val@U?$_Tree_simple_types@U?$pair@$$CBVCZString@Value@Json@@V23@@std@@@std@@@std@@@1@AEAU?$pair@$$CBVCZString@Value@Json@@V23@@1@@Z DD imagerel $LN7
	DD	imagerel $LN7+74
	DD	imagerel $unwind$??$emplace_hint@AEAU?$pair@$$CBVCZString@Value@Json@@V23@@std@@@?$_Tree@V?$_Tmap_traits@VCZString@Value@Json@@V23@U?$less@VCZString@Value@Json@@@std@@V?$allocator@U?$pair@$$CBVCZString@Value@Json@@V23@@std@@@5@$0A@@std@@@std@@QEAA?AV?$_Tree_iterator@V?$_Tree_val@U?$_Tree_simple_types@U?$pair@$$CBVCZString@Value@Json@@V23@@std@@@std@@@std@@@1@V?$_Tree_const_iterator@V?$_Tree_val@U?$_Tree_simple_types@U?$pair@$$CBVCZString@Value@Json@@V23@@std@@@std@@@std@@@1@AEAU?$pair@$$CBVCZString@Value@Json@@V23@@1@@Z
pdata	ENDS
;	COMDAT pdata
pdata	SEGMENT
$pdata$??_G?$pair@$$CBVCZString@Value@Json@@V23@@std@@QEAAPEAXI@Z DD imagerel $LN15
	DD	imagerel $LN15+68
	DD	imagerel $unwind$??_G?$pair@$$CBVCZString@Value@Json@@V23@@std@@QEAAPEAXI@Z
pdata	ENDS
;	COMDAT pdata
pdata	SEGMENT
$pdata$??$construct@PEAU?$_Tree_node@U?$pair@$$CBVCZString@Value@Json@@V23@@std@@PEAX@std@@AEAPEAU12@@?$_Default_allocator_traits@V?$allocator@U?$_Tree_node@U?$pair@$$CBVCZString@Value@Json@@V23@@std@@PEAX@std@@@std@@@std@@SAXAEAV?$allocator@U?$_Tree_node@U?$pair@$$CBVCZString@Value@Json@@V23@@std@@PEAX@std@@@1@QEAPEAU?$_Tree_node@U?$pair@$$CBVCZString@Value@Json@@V23@@std@@PEAX@1@AEAPEAU31@@Z DD imagerel $LN7
	DD	imagerel $LN7+31
	DD	imagerel $unwind$??$construct@PEAU?$_Tree_node@U?$pair@$$CBVCZString@Value@Json@@V23@@std@@PEAX@std@@AEAPEAU12@@?$_Default_allocator_traits@V?$allocator@U?$_Tree_node@U?$pair@$$CBVCZString@Value@Json@@V23@@std@@PEAX@std@@@std@@@std@@SAXAEAV?$allocator@U?$_Tree_node@U?$pair@$$CBVCZString@Value@Json@@V23@@std@@PEAX@std@@@1@QEAPEAU?$_Tree_node@U?$pair@$$CBVCZString@Value@Json@@V23@@std@@PEAX@1@AEAPEAU31@@Z
pdata	ENDS
;	COMDAT pdata
pdata	SEGMENT
$pdata$??$?0AEBU?$less@VCZString@Value@Json@@@std@@U_Zero_then_variadic_args_t@1@@?$_Compressed_pair@U?$less@VCZString@Value@Json@@@std@@V?$_Compressed_pair@V?$allocator@U?$_Tree_node@U?$pair@$$CBVCZString@Value@Json@@V23@@std@@PEAX@std@@@std@@V?$_Tree_val@U?$_Tree_simple_types@U?$pair@$$CBVCZString@Value@Json@@V23@@std@@@std@@@2@$00@2@$00@std@@QEAA@U_One_then_variadic_args_t@1@AEBU?$less@VCZString@Value@Json@@@1@$$QEAU_Zero_then_variadic_args_t@1@@Z DD imagerel $LN13
	DD	imagerel $LN13+35
	DD	imagerel $unwind$??$?0AEBU?$less@VCZString@Value@Json@@@std@@U_Zero_then_variadic_args_t@1@@?$_Compressed_pair@U?$less@VCZString@Value@Json@@@std@@V?$_Compressed_pair@V?$allocator@U?$_Tree_node@U?$pair@$$CBVCZString@Value@Json@@V23@@std@@PEAX@std@@@std@@V?$_Tree_val@U?$_Tree_simple_types@U?$pair@$$CBVCZString@Value@Json@@V23@@std@@@std@@@2@$00@2@$00@std@@QEAA@U_One_then_variadic_args_t@1@AEBU?$less@VCZString@Value@Json@@@1@$$QEAU_Zero_then_variadic_args_t@1@@Z
pdata	ENDS
;	COMDAT pdata
pdata	SEGMENT
$pdata$??$_Freenode0@V?$allocator@U?$_Tree_node@U?$pair@$$CBVCZString@Value@Json@@V23@@std@@PEAX@std@@@std@@@?$_Tree_node@U?$pair@$$CBVCZString@Value@Json@@V23@@std@@PEAX@std@@SAXAEAV?$allocator@U?$_Tree_node@U?$pair@$$CBVCZString@Value@Json@@V23@@std@@PEAX@std@@@1@PEAU01@@Z DD imagerel $LN19
	DD	imagerel $LN19+32
	DD	imagerel $unwind$??$_Freenode0@V?$allocator@U?$_Tree_node@U?$pair@$$CBVCZString@Value@Json@@V23@@std@@PEAX@std@@@std@@@?$_Tree_node@U?$pair@$$CBVCZString@Value@Json@@V23@@std@@PEAX@std@@SAXAEAV?$allocator@U?$_Tree_node@U?$pair@$$CBVCZString@Value@Json@@V23@@std@@PEAX@std@@@1@PEAU01@@Z
pdata	ENDS
;	COMDAT pdata
pdata	SEGMENT
$pdata$??$destroy@U?$pair@$$CBVCZString@Value@Json@@V23@@std@@@?$_Default_allocator_traits@V?$allocator@U?$_Tree_node@U?$pair@$$CBVCZString@Value@Json@@V23@@std@@PEAX@std@@@std@@@std@@SAXAEAV?$allocator@U?$_Tree_node@U?$pair@$$CBVCZString@Value@Json@@V23@@std@@PEAX@std@@@1@QEAU?$pair@$$CBVCZString@Value@Json@@V23@@1@@Z DD imagerel $LN17
	DD	imagerel $LN17+64
	DD	imagerel $unwind$??$destroy@U?$pair@$$CBVCZString@Value@Json@@V23@@std@@@?$_Default_allocator_traits@V?$allocator@U?$_Tree_node@U?$pair@$$CBVCZString@Value@Json@@V23@@std@@PEAX@std@@@std@@@std@@SAXAEAV?$allocator@U?$_Tree_node@U?$pair@$$CBVCZString@Value@Json@@V23@@std@@PEAX@std@@@1@QEAU?$pair@$$CBVCZString@Value@Json@@V23@@1@@Z
pdata	ENDS
;	COMDAT pdata
pdata	SEGMENT
$pdata$??$?0V?$allocator@V?$basic_string@DU?$char_traits@D@std@@V?$allocator@D@2@@std@@@std@@X@?$_Vector_alloc@U?$_Vec_base_types@V?$basic_string@DU?$char_traits@D@std@@V?$allocator@D@2@@std@@V?$allocator@V?$basic_string@DU?$char_traits@D@std@@V?$allocator@D@2@@std@@@2@@std@@@std@@QEAA@$$QEAV?$allocator@V?$basic_string@DU?$char_traits@D@std@@V?$allocator@D@2@@std@@@1@@Z DD imagerel $LN11
	DD	imagerel $LN11+23
	DD	imagerel $unwind$??$?0V?$allocator@V?$basic_string@DU?$char_traits@D@std@@V?$allocator@D@2@@std@@@std@@X@?$_Vector_alloc@U?$_Vec_base_types@V?$basic_string@DU?$char_traits@D@std@@V?$allocator@D@2@@std@@V?$allocator@V?$basic_string@DU?$char_traits@D@std@@V?$allocator@D@2@@std@@@2@@std@@@std@@QEAA@$$QEAV?$allocator@V?$basic_string@DU?$char_traits@D@std@@V?$allocator@D@2@@std@@@1@@Z
pdata	ENDS
;	COMDAT pdata
pdata	SEGMENT
$pdata$??$?0V?$allocator@U?$_Tree_node@U?$pair@$$CBVCZString@Value@Json@@V23@@std@@PEAX@std@@@std@@@?$_Tree@V?$_Tmap_traits@VCZString@Value@Json@@V23@U?$less@VCZString@Value@Json@@@std@@V?$allocator@U?$pair@$$CBVCZString@Value@Json@@V23@@std@@@5@$0A@@std@@@std@@QEAA@AEBV01@$$QEAV?$allocator@U?$_Tree_node@U?$pair@$$CBVCZString@Value@Json@@V23@@std@@PEAX@std@@@1@@Z DD imagerel $LN103
	DD	imagerel $LN103+208
	DD	imagerel $unwind$??$?0V?$allocator@U?$_Tree_node@U?$pair@$$CBVCZString@Value@Json@@V23@@std@@PEAX@std@@@std@@@?$_Tree@V?$_Tmap_traits@VCZString@Value@Json@@V23@U?$less@VCZString@Value@Json@@@std@@V?$allocator@U?$pair@$$CBVCZString@Value@Json@@V23@@std@@@5@$0A@@std@@@std@@QEAA@AEBV01@$$QEAV?$allocator@U?$_Tree_node@U?$pair@$$CBVCZString@Value@Json@@V23@@std@@PEAX@std@@@1@@Z
pdata	ENDS
;	COMDAT pdata
pdata	SEGMENT
$pdata$?catch$1@?0???$?0V?$allocator@U?$_Tree_node@U?$pair@$$CBVCZString@Value@Json@@V23@@std@@PEAX@std@@@std@@@?$_Tree@V?$_Tmap_traits@VCZString@Value@Json@@V23@U?$less@VCZString@Value@Json@@@std@@V?$allocator@U?$pair@$$CBVCZString@Value@Json@@V23@@std@@@5@$0A@@std@@@std@@QEAA@AEBV01@$$QEAV?$allocator@U?$_Tree_node@U?$pair@$$CBVCZString@Value@Json@@V23@@std@@PEAX@std@@@1@@Z@4HA DD imagerel ?catch$1@?0???$?0V?$allocator@U?$_Tree_node@U?$pair@$$CBVCZString@Value@Json@@V23@@std@@PEAX@std@@@std@@@?$_Tree@V?$_Tmap_traits@VCZString@Value@Json@@V23@U?$less@VCZString@Value@Json@@@std@@V?$allocator@U?$pair@$$CBVCZString@Value@Json@@V23@@std@@@5@$0A@@std@@@std@@QEAA@AEBV01@$$QEAV?$allocator@U?$_Tree_node@U?$pair@$$CBVCZString@Value@Json@@V23@@std@@PEAX@std@@@1@@Z@4HA
	DD	imagerel ?catch$1@?0???$?0V?$allocator@U?$_Tree_node@U?$pair@$$CBVCZString@Value@Json@@V23@@std@@PEAX@std@@@std@@@?$_Tree@V?$_Tmap_traits@VCZString@Value@Json@@V23@U?$less@VCZString@Value@Json@@@std@@V?$allocator@U?$pair@$$CBVCZString@Value@Json@@V23@@std@@@5@$0A@@std@@@std@@QEAA@AEBV01@$$QEAV?$allocator@U?$_Tree_node@U?$pair@$$CBVCZString@Value@Json@@V23@@std@@PEAX@std@@@1@@Z@4HA+32
	DD	imagerel $unwind$?catch$1@?0???$?0V?$allocator@U?$_Tree_node@U?$pair@$$CBVCZString@Value@Json@@V23@@std@@PEAX@std@@@std@@@?$_Tree@V?$_Tmap_traits@VCZString@Value@Json@@V23@U?$less@VCZString@Value@Json@@@std@@V?$allocator@U?$pair@$$CBVCZString@Value@Json@@V23@@std@@@5@$0A@@std@@@std@@QEAA@AEBV01@$$QEAV?$allocator@U?$_Tree_node@U?$pair@$$CBVCZString@Value@Json@@V23@@std@@PEAX@std@@@1@@Z@4HA
pdata	ENDS
;	COMDAT pdata
pdata	SEGMENT
$pdata$??$?0PEBDX@?$basic_string@DU?$char_traits@D@std@@V?$allocator@D@2@@std@@QEAA@PEBD0AEBV?$allocator@D@1@@Z DD imagerel $LN14
	DD	imagerel $LN14+95
	DD	imagerel $unwind$??$?0PEBDX@?$basic_string@DU?$char_traits@D@std@@V?$allocator@D@2@@std@@QEAA@PEBD0AEBV?$allocator@D@1@@Z
pdata	ENDS
;	COMDAT pdata
pdata	SEGMENT
$pdata$??$insert@AEAU?$pair@$$CBVCZString@Value@Json@@V23@@std@@X@?$map@VCZString@Value@Json@@V23@U?$less@VCZString@Value@Json@@@std@@V?$allocator@U?$pair@$$CBVCZString@Value@Json@@V23@@std@@@5@@std@@QEAA?AV?$_Tree_iterator@V?$_Tree_val@U?$_Tree_simple_types@U?$pair@$$CBVCZString@Value@Json@@V23@@std@@@std@@@std@@@1@V?$_Tree_const_iterator@V?$_Tree_val@U?$_Tree_simple_types@U?$pair@$$CBVCZString@Value@Json@@V23@@std@@@std@@@std@@@1@AEAU?$pair@$$CBVCZString@Value@Json@@V23@@1@@Z DD imagerel $LN11
	DD	imagerel $LN11+74
	DD	imagerel $unwind$??$insert@AEAU?$pair@$$CBVCZString@Value@Json@@V23@@std@@X@?$map@VCZString@Value@Json@@V23@U?$less@VCZString@Value@Json@@@std@@V?$allocator@U?$pair@$$CBVCZString@Value@Json@@V23@@std@@@5@@std@@QEAA?AV?$_Tree_iterator@V?$_Tree_val@U?$_Tree_simple_types@U?$pair@$$CBVCZString@Value@Json@@V23@@std@@@std@@@std@@@1@V?$_Tree_const_iterator@V?$_Tree_val@U?$_Tree_simple_types@U?$pair@$$CBVCZString@Value@Json@@V23@@std@@@std@@@std@@@1@AEAU?$pair@$$CBVCZString@Value@Json@@V23@@1@@Z
pdata	ENDS
;	COMDAT pdata
pdata	SEGMENT
$pdata$??$?0AEAVCZString@Value@Json@@AEBV12@$0A@@?$pair@$$CBVCZString@Value@Json@@V23@@std@@QEAA@AEAVCZString@Value@Json@@AEBV34@@Z DD imagerel $LN19
	DD	imagerel $LN19+120
	DD	imagerel $unwind$??$?0AEAVCZString@Value@Json@@AEBV12@$0A@@?$pair@$$CBVCZString@Value@Json@@V23@@std@@QEAA@AEAVCZString@Value@Json@@AEBV34@@Z
pdata	ENDS
;	COMDAT pdata
pdata	SEGMENT
$pdata$?allocate@?$allocator@U?$_Tree_node@U?$pair@$$CBVCZString@Value@Json@@V23@@std@@PEAX@std@@@std@@QEAAPEAU?$_Tree_node@U?$pair@$$CBVCZString@Value@Json@@V23@@std@@PEAX@2@_K@Z DD imagerel $LN4
	DD	imagerel $LN4+26
	DD	imagerel $unwind$?allocate@?$allocator@U?$_Tree_node@U?$pair@$$CBVCZString@Value@Json@@V23@@std@@PEAX@std@@@std@@QEAAPEAU?$_Tree_node@U?$pair@$$CBVCZString@Value@Json@@V23@@std@@PEAX@2@_K@Z
pdata	ENDS
;	COMDAT pdata
pdata	SEGMENT
$pdata$?_Buyheadnode@?$_Tree_comp_alloc@V?$_Tmap_traits@VCZString@Value@Json@@V23@U?$less@VCZString@Value@Json@@@std@@V?$allocator@U?$pair@$$CBVCZString@Value@Json@@V23@@std@@@5@$0A@@std@@@std@@QEAAPEAU?$_Tree_node@U?$pair@$$CBVCZString@Value@Json@@V23@@std@@PEAX@2@XZ DD imagerel $LN36
	DD	imagerel $LN36+92
	DD	imagerel $unwind$?_Buyheadnode@?$_Tree_comp_alloc@V?$_Tmap_traits@VCZString@Value@Json@@V23@U?$less@VCZString@Value@Json@@@std@@V?$allocator@U?$pair@$$CBVCZString@Value@Json@@V23@@std@@@5@$0A@@std@@@std@@QEAAPEAU?$_Tree_node@U?$pair@$$CBVCZString@Value@Json@@V23@@std@@PEAX@2@XZ
pdata	ENDS
;	COMDAT pdata
pdata	SEGMENT
$pdata$?_Construct@?$_Tree_comp_alloc@V?$_Tmap_traits@VCZString@Value@Json@@V23@U?$less@VCZString@Value@Json@@@std@@V?$allocator@U?$pair@$$CBVCZString@Value@Json@@V23@@std@@@5@$0A@@std@@@std@@QEAAXXZ DD imagerel $LN11
	DD	imagerel $LN11+23
	DD	imagerel $unwind$?_Construct@?$_Tree_comp_alloc@V?$_Tmap_traits@VCZString@Value@Json@@V23@U?$less@VCZString@Value@Json@@@std@@V?$allocator@U?$pair@$$CBVCZString@Value@Json@@V23@@std@@@5@$0A@@std@@@std@@QEAAXXZ
pdata	ENDS
;	COMDAT pdata
pdata	SEGMENT
$pdata$?_Extract@?$_Tree_val@U?$_Tree_simple_types@U?$pair@$$CBVCZString@Value@Json@@V23@@std@@@std@@@std@@QEAAPEAU?$_Tree_node@U?$pair@$$CBVCZString@Value@Json@@V23@@std@@PEAX@2@V?$_Tree_const_iterator@V?$_Tree_val@U?$_Tree_simple_types@U?$pair@$$CBVCZString@Value@Json@@V23@@std@@@std@@@std@@@2@@Z DD imagerel $LN132
	DD	imagerel $LN132+15
	DD	imagerel $unwind$?_Extract@?$_Tree_val@U?$_Tree_simple_types@U?$pair@$$CBVCZString@Value@Json@@V23@@std@@@std@@@std@@QEAAPEAU?$_Tree_node@U?$pair@$$CBVCZString@Value@Json@@V23@@std@@PEAX@2@V?$_Tree_const_iterator@V?$_Tree_val@U?$_Tree_simple_types@U?$pair@$$CBVCZString@Value@Json@@V23@@std@@@std@@@std@@@2@@Z
pdata	ENDS
;	COMDAT pdata
pdata	SEGMENT
$pdata$1$?_Extract@?$_Tree_val@U?$_Tree_simple_types@U?$pair@$$CBVCZString@Value@Json@@V23@@std@@@std@@@std@@QEAAPEAU?$_Tree_node@U?$pair@$$CBVCZString@Value@Json@@V23@@std@@PEAX@2@V?$_Tree_const_iterator@V?$_Tree_val@U?$_Tree_simple_types@U?$pair@$$CBVCZString@Value@Json@@V23@@std@@@std@@@std@@@2@@Z DD imagerel $LN132+15
	DD	imagerel $LN132+890
	DD	imagerel $chain$1$?_Extract@?$_Tree_val@U?$_Tree_simple_types@U?$pair@$$CBVCZString@Value@Json@@V23@@std@@@std@@@std@@QEAAPEAU?$_Tree_node@U?$pair@$$CBVCZString@Value@Json@@V23@@std@@PEAX@2@V?$_Tree_const_iterator@V?$_Tree_val@U?$_Tree_simple_types@U?$pair@$$CBVCZString@Value@Json@@V23@@std@@@std@@@std@@@2@@Z
pdata	ENDS
;	COMDAT pdata
pdata	SEGMENT
$pdata$2$?_Extract@?$_Tree_val@U?$_Tree_simple_types@U?$pair@$$CBVCZString@Value@Json@@V23@@std@@@std@@@std@@QEAAPEAU?$_Tree_node@U?$pair@$$CBVCZString@Value@Json@@V23@@std@@PEAX@2@V?$_Tree_const_iterator@V?$_Tree_val@U?$_Tree_simple_types@U?$pair@$$CBVCZString@Value@Json@@V23@@std@@@std@@@std@@@2@@Z DD imagerel $LN132+890
	DD	imagerel $LN132+909
	DD	imagerel $chain$2$?_Extract@?$_Tree_val@U?$_Tree_simple_types@U?$pair@$$CBVCZString@Value@Json@@V23@@std@@@std@@@std@@QEAAPEAU?$_Tree_node@U?$pair@$$CBVCZString@Value@Json@@V23@@std@@PEAX@2@V?$_Tree_const_iterator@V?$_Tree_val@U?$_Tree_simple_types@U?$pair@$$CBVCZString@Value@Json@@V23@@std@@@std@@@std@@@2@@Z
pdata	ENDS
;	COMDAT pdata
pdata	SEGMENT
$pdata$??0?$_Tree_unchecked_const_iterator@V?$_Tree_val@U?$_Tree_simple_types@U?$pair@$$CBVCZString@Value@Json@@V23@@std@@@std@@@std@@U_Iterator_base0@2@@std@@QEAA@PEAU?$_Tree_node@U?$pair@$$CBVCZString@Value@Json@@V23@@std@@PEAX@1@PEBV?$_Tree_val@U?$_Tree_simple_types@U?$pair@$$CBVCZString@Value@Json@@V23@@std@@@std@@@1@@Z DD imagerel $LN4
	DD	imagerel $LN4+29
	DD	imagerel $unwind$??0?$_Tree_unchecked_const_iterator@V?$_Tree_val@U?$_Tree_simple_types@U?$pair@$$CBVCZString@Value@Json@@V23@@std@@@std@@@std@@U_Iterator_base0@2@@std@@QEAA@PEAU?$_Tree_node@U?$pair@$$CBVCZString@Value@Json@@V23@@std@@PEAX@1@PEBV?$_Tree_val@U?$_Tree_simple_types@U?$pair@$$CBVCZString@Value@Json@@V23@@std@@@std@@@1@@Z
pdata	ENDS
;	COMDAT pdata
pdata	SEGMENT
$pdata$?erase@?$_Tree@V?$_Tmap_traits@VCZString@Value@Json@@V23@U?$less@VCZString@Value@Json@@@std@@V?$allocator@U?$pair@$$CBVCZString@Value@Json@@V23@@std@@@5@$0A@@std@@@std@@QEAA?AV?$_Tree_iterator@V?$_Tree_val@U?$_Tree_simple_types@U?$pair@$$CBVCZString@Value@Json@@V23@@std@@@std@@@std@@@2@V?$_Tree_const_iterator@V?$_Tree_val@U?$_Tree_simple_types@U?$pair@$$CBVCZString@Value@Json@@V23@@std@@@std@@@std@@@2@@Z DD imagerel $LN77
	DD	imagerel $LN77+219
	DD	imagerel $unwind$?erase@?$_Tree@V?$_Tmap_traits@VCZString@Value@Json@@V23@U?$less@VCZString@Value@Json@@@std@@V?$allocator@U?$pair@$$CBVCZString@Value@Json@@V23@@std@@@5@$0A@@std@@@std@@QEAA?AV?$_Tree_iterator@V?$_Tree_val@U?$_Tree_simple_types@U?$pair@$$CBVCZString@Value@Json@@V23@@std@@@std@@@std@@@2@V?$_Tree_const_iterator@V?$_Tree_val@U?$_Tree_simple_types@U?$pair@$$CBVCZString@Value@Json@@V23@@std@@@std@@@std@@@2@@Z
pdata	ENDS
;	COMDAT pdata
pdata	SEGMENT
$pdata$??0?$_Tree_comp_alloc@V?$_Tmap_traits@VCZString@Value@Json@@V23@U?$less@VCZString@Value@Json@@@std@@V?$allocator@U?$pair@$$CBVCZString@Value@Json@@V23@@std@@@5@$0A@@std@@@std@@QEAA@AEBU?$less@VCZString@Value@Json@@@1@@Z DD imagerel $LN23
	DD	imagerel $LN23+49
	DD	imagerel $unwind$??0?$_Tree_comp_alloc@V?$_Tmap_traits@VCZString@Value@Json@@V23@U?$less@VCZString@Value@Json@@@std@@V?$allocator@U?$pair@$$CBVCZString@Value@Json@@V23@@std@@@5@$0A@@std@@@std@@QEAA@AEBU?$less@VCZString@Value@Json@@@1@@Z
pdata	ENDS
;	COMDAT pdata
pdata	SEGMENT
$pdata$?_Freeheadnode@?$_Tree_comp_alloc@V?$_Tmap_traits@VCZString@Value@Json@@V23@U?$less@VCZString@Value@Json@@@std@@V?$allocator@U?$pair@$$CBVCZString@Value@Json@@V23@@std@@@5@$0A@@std@@@std@@QEAAXPEAU?$_Tree_node@U?$pair@$$CBVCZString@Value@Json@@V23@@std@@PEAX@2@@Z DD imagerel $LN28
	DD	imagerel $LN28+32
	DD	imagerel $unwind$?_Freeheadnode@?$_Tree_comp_alloc@V?$_Tmap_traits@VCZString@Value@Json@@V23@U?$less@VCZString@Value@Json@@@std@@V?$allocator@U?$pair@$$CBVCZString@Value@Json@@V23@@std@@@5@$0A@@std@@@std@@QEAAXPEAU?$_Tree_node@U?$pair@$$CBVCZString@Value@Json@@V23@@std@@PEAX@2@@Z
pdata	ENDS
;	COMDAT pdata
pdata	SEGMENT
$pdata$??0?$_Tree_const_iterator@V?$_Tree_val@U?$_Tree_simple_types@U?$pair@$$CBVCZString@Value@Json@@V23@@std@@@std@@@std@@@std@@QEAA@PEAU?$_Tree_node@U?$pair@$$CBVCZString@Value@Json@@V23@@std@@PEAX@1@PEBV?$_Tree_val@U?$_Tree_simple_types@U?$pair@$$CBVCZString@Value@Json@@V23@@std@@@std@@@1@@Z DD imagerel $LN6
	DD	imagerel $LN6+29
	DD	imagerel $unwind$??0?$_Tree_const_iterator@V?$_Tree_val@U?$_Tree_simple_types@U?$pair@$$CBVCZString@Value@Json@@V23@@std@@@std@@@std@@@std@@QEAA@PEAU?$_Tree_node@U?$pair@$$CBVCZString@Value@Json@@V23@@std@@PEAX@1@PEBV?$_Tree_val@U?$_Tree_simple_types@U?$pair@$$CBVCZString@Value@Json@@V23@@std@@@std@@@1@@Z
pdata	ENDS
;	COMDAT pdata
pdata	SEGMENT
$pdata$?_Swap_all@?$_Vector_alloc@U?$_Vec_base_types@V?$basic_string@DU?$char_traits@D@std@@V?$allocator@D@2@@std@@V?$allocator@V?$basic_string@DU?$char_traits@D@std@@V?$allocator@D@2@@std@@@2@@std@@@std@@QEAAXAEAV12@@Z DD imagerel $LN4
	DD	imagerel $LN4+53
	DD	imagerel $unwind$?_Swap_all@?$_Vector_alloc@U?$_Vec_base_types@V?$basic_string@DU?$char_traits@D@std@@V?$allocator@D@2@@std@@V?$allocator@V?$basic_string@DU?$char_traits@D@std@@V?$allocator@D@2@@std@@@2@@std@@@std@@QEAAXAEAV12@@Z
pdata	ENDS
;	COMDAT pdata
pdata	SEGMENT
$pdata$?_Move_from@?$vector@V?$basic_string@DU?$char_traits@D@std@@V?$allocator@D@2@@std@@V?$allocator@V?$basic_string@DU?$char_traits@D@std@@V?$allocator@D@2@@std@@@2@@std@@AEAAX$$QEAV12@U?$integral_constant@_N$00@2@@Z DD imagerel $LN7
	DD	imagerel $LN7+177
	DD	imagerel $unwind$?_Move_from@?$vector@V?$basic_string@DU?$char_traits@D@std@@V?$allocator@D@2@@std@@V?$allocator@V?$basic_string@DU?$char_traits@D@std@@V?$allocator@D@2@@std@@@2@@std@@AEAAX$$QEAV12@U?$integral_constant@_N$00@2@@Z
pdata	ENDS
;	COMDAT pdata
pdata	SEGMENT
$pdata$??0?$_Tree@V?$_Tmap_traits@VCZString@Value@Json@@V23@U?$less@VCZString@Value@Json@@@std@@V?$allocator@U?$pair@$$CBVCZString@Value@Json@@V23@@std@@@5@$0A@@std@@@std@@QEAA@AEBU?$less@VCZString@Value@Json@@@1@@Z DD imagerel $LN26
	DD	imagerel $LN26+49
	DD	imagerel $unwind$??0?$_Tree@V?$_Tmap_traits@VCZString@Value@Json@@V23@U?$less@VCZString@Value@Json@@@std@@V?$allocator@U?$pair@$$CBVCZString@Value@Json@@V23@@std@@@5@$0A@@std@@@std@@QEAA@AEBU?$less@VCZString@Value@Json@@@1@@Z
pdata	ENDS
;	COMDAT pdata
pdata	SEGMENT
$pdata$?erase@?$_Tree@V?$_Tmap_traits@VCZString@Value@Json@@V23@U?$less@VCZString@Value@Json@@@std@@V?$allocator@U?$pair@$$CBVCZString@Value@Json@@V23@@std@@@5@$0A@@std@@@std@@QEAA?AV?$_Tree_iterator@V?$_Tree_val@U?$_Tree_simple_types@U?$pair@$$CBVCZString@Value@Json@@V23@@std@@@std@@@std@@@2@V?$_Tree_const_iterator@V?$_Tree_val@U?$_Tree_simple_types@U?$pair@$$CBVCZString@Value@Json@@V23@@std@@@std@@@std@@@2@0@Z DD imagerel $LN128
	DD	imagerel $LN128+296
	DD	imagerel $unwind$?erase@?$_Tree@V?$_Tmap_traits@VCZString@Value@Json@@V23@U?$less@VCZString@Value@Json@@@std@@V?$allocator@U?$pair@$$CBVCZString@Value@Json@@V23@@std@@@5@$0A@@std@@@std@@QEAA?AV?$_Tree_iterator@V?$_Tree_val@U?$_Tree_simple_types@U?$pair@$$CBVCZString@Value@Json@@V23@@std@@@std@@@std@@@2@V?$_Tree_const_iterator@V?$_Tree_val@U?$_Tree_simple_types@U?$pair@$$CBVCZString@Value@Json@@V23@@std@@@std@@@std@@@2@0@Z
pdata	ENDS
;	COMDAT pdata
pdata	SEGMENT
$pdata$?_Erase@?$_Tree@V?$_Tmap_traits@VCZString@Value@Json@@V23@U?$less@VCZString@Value@Json@@@std@@V?$allocator@U?$pair@$$CBVCZString@Value@Json@@V23@@std@@@5@$0A@@std@@@std@@IEAAXPEAU?$_Tree_node@U?$pair@$$CBVCZString@Value@Json@@V23@@std@@PEAX@2@@Z DD imagerel $LN49
	DD	imagerel $LN49+144
	DD	imagerel $unwind$?_Erase@?$_Tree@V?$_Tmap_traits@VCZString@Value@Json@@V23@U?$less@VCZString@Value@Json@@@std@@V?$allocator@U?$pair@$$CBVCZString@Value@Json@@V23@@std@@@5@$0A@@std@@@std@@IEAAXPEAU?$_Tree_node@U?$pair@$$CBVCZString@Value@Json@@V23@@std@@PEAX@2@@Z
pdata	ENDS
;	COMDAT pdata
pdata	SEGMENT
$pdata$?_Tidy@?$_Tree@V?$_Tmap_traits@VCZString@Value@Json@@V23@U?$less@VCZString@Value@Json@@@std@@V?$allocator@U?$pair@$$CBVCZString@Value@Json@@V23@@std@@@5@$0A@@std@@@std@@IEAAXXZ DD imagerel $LN39
	DD	imagerel $LN39+95
	DD	imagerel $unwind$?_Tidy@?$_Tree@V?$_Tmap_traits@VCZString@Value@Json@@V23@U?$less@VCZString@Value@Json@@@std@@V?$allocator@U?$pair@$$CBVCZString@Value@Json@@V23@@std@@@5@$0A@@std@@@std@@IEAAXXZ
pdata	ENDS
;	COMDAT pdata
pdata	SEGMENT
$pdata$??1?$_Tree_comp_alloc@V?$_Tmap_traits@VCZString@Value@Json@@V23@U?$less@VCZString@Value@Json@@@std@@V?$allocator@U?$pair@$$CBVCZString@Value@Json@@V23@@std@@@5@$0A@@std@@@std@@QEAA@XZ DD imagerel $LN36
	DD	imagerel $LN36+32
	DD	imagerel $unwind$??1?$_Tree_comp_alloc@V?$_Tmap_traits@VCZString@Value@Json@@V23@U?$less@VCZString@Value@Json@@@std@@V?$allocator@U?$pair@$$CBVCZString@Value@Json@@V23@@std@@@5@$0A@@std@@@std@@QEAA@XZ
pdata	ENDS
;	COMDAT pdata
pdata	SEGMENT
$pdata$??0?$_Tree_iterator@V?$_Tree_val@U?$_Tree_simple_types@U?$pair@$$CBVCZString@Value@Json@@V23@@std@@@std@@@std@@@std@@QEAA@PEAU?$_Tree_node@U?$pair@$$CBVCZString@Value@Json@@V23@@std@@PEAX@1@PEBV?$_Tree_val@U?$_Tree_simple_types@U?$pair@$$CBVCZString@Value@Json@@V23@@std@@@std@@@1@@Z DD imagerel $LN8
	DD	imagerel $LN8+29
	DD	imagerel $unwind$??0?$_Tree_iterator@V?$_Tree_val@U?$_Tree_simple_types@U?$pair@$$CBVCZString@Value@Json@@V23@@std@@@std@@@std@@@std@@QEAA@PEAU?$_Tree_node@U?$pair@$$CBVCZString@Value@Json@@V23@@std@@PEAX@1@PEBV?$_Tree_val@U?$_Tree_simple_types@U?$pair@$$CBVCZString@Value@Json@@V23@@std@@@std@@@1@@Z
pdata	ENDS
;	COMDAT pdata
pdata	SEGMENT
$pdata$??0?$vector@V?$basic_string@DU?$char_traits@D@std@@V?$allocator@D@2@@std@@V?$allocator@V?$basic_string@DU?$char_traits@D@std@@V?$allocator@D@2@@std@@@2@@std@@QEAA@$$QEAV01@@Z DD imagerel $LN21
	DD	imagerel $LN21+220
	DD	imagerel $unwind$??0?$vector@V?$basic_string@DU?$char_traits@D@std@@V?$allocator@D@2@@std@@V?$allocator@V?$basic_string@DU?$char_traits@D@std@@V?$allocator@D@2@@std@@@2@@std@@QEAA@$$QEAV01@@Z
pdata	ENDS
;	COMDAT pdata
pdata	SEGMENT
$pdata$??0?$map@VCZString@Value@Json@@V23@U?$less@VCZString@Value@Json@@@std@@V?$allocator@U?$pair@$$CBVCZString@Value@Json@@V23@@std@@@5@@std@@QEAA@XZ DD imagerel $LN29
	DD	imagerel $LN29+49
	DD	imagerel $unwind$??0?$map@VCZString@Value@Json@@V23@U?$less@VCZString@Value@Json@@@std@@V?$allocator@U?$pair@$$CBVCZString@Value@Json@@V23@@std@@@5@@std@@QEAA@XZ
pdata	ENDS
;	COMDAT pdata
pdata	SEGMENT
$pdata$??0?$map@VCZString@Value@Json@@V23@U?$less@VCZString@Value@Json@@@std@@V?$allocator@U?$pair@$$CBVCZString@Value@Json@@V23@@std@@@5@@std@@QEAA@AEBV01@@Z DD imagerel $LN14
	DD	imagerel $LN14+23
	DD	imagerel $unwind$??0?$map@VCZString@Value@Json@@V23@U?$less@VCZString@Value@Json@@@std@@V?$allocator@U?$pair@$$CBVCZString@Value@Json@@V23@@std@@@5@@std@@QEAA@AEBV01@@Z
pdata	ENDS
;	COMDAT pdata
pdata	SEGMENT
$pdata$??1?$_Tree@V?$_Tmap_traits@VCZString@Value@Json@@V23@U?$less@VCZString@Value@Json@@@std@@V?$allocator@U?$pair@$$CBVCZString@Value@Json@@V23@@std@@@5@$0A@@std@@@std@@QEAA@XZ DD imagerel $LN74
	DD	imagerel $LN74+122
	DD	imagerel $unwind$??1?$_Tree@V?$_Tmap_traits@VCZString@Value@Json@@V23@U?$less@VCZString@Value@Json@@@std@@V?$allocator@U?$pair@$$CBVCZString@Value@Json@@V23@@std@@@5@$0A@@std@@@std@@QEAA@XZ
pdata	ENDS
;	COMDAT pdata
pdata	SEGMENT
$pdata$?begin@?$_Tree@V?$_Tmap_traits@VCZString@Value@Json@@V23@U?$less@VCZString@Value@Json@@@std@@V?$allocator@U?$pair@$$CBVCZString@Value@Json@@V23@@std@@@5@$0A@@std@@@std@@QEAA?AV?$_Tree_iterator@V?$_Tree_val@U?$_Tree_simple_types@U?$pair@$$CBVCZString@Value@Json@@V23@@std@@@std@@@std@@@2@XZ DD imagerel $LN21
	DD	imagerel $LN21+38
	DD	imagerel $unwind$?begin@?$_Tree@V?$_Tmap_traits@VCZString@Value@Json@@V23@U?$less@VCZString@Value@Json@@@std@@V?$allocator@U?$pair@$$CBVCZString@Value@Json@@V23@@std@@@5@$0A@@std@@@std@@QEAA?AV?$_Tree_iterator@V?$_Tree_val@U?$_Tree_simple_types@U?$pair@$$CBVCZString@Value@Json@@V23@@std@@@std@@@std@@@2@XZ
pdata	ENDS
;	COMDAT pdata
pdata	SEGMENT
$pdata$?end@?$_Tree@V?$_Tmap_traits@VCZString@Value@Json@@V23@U?$less@VCZString@Value@Json@@@std@@V?$allocator@U?$pair@$$CBVCZString@Value@Json@@V23@@std@@@5@$0A@@std@@@std@@QEAA?AV?$_Tree_iterator@V?$_Tree_val@U?$_Tree_simple_types@U?$pair@$$CBVCZString@Value@Json@@V23@@std@@@std@@@std@@@2@XZ DD imagerel $LN19
	DD	imagerel $LN19+35
	DD	imagerel $unwind$?end@?$_Tree@V?$_Tmap_traits@VCZString@Value@Json@@V23@U?$less@VCZString@Value@Json@@@std@@V?$allocator@U?$pair@$$CBVCZString@Value@Json@@V23@@std@@@5@$0A@@std@@@std@@QEAA?AV?$_Tree_iterator@V?$_Tree_val@U?$_Tree_simple_types@U?$pair@$$CBVCZString@Value@Json@@V23@@std@@@std@@@std@@@2@XZ
pdata	ENDS
;	COMDAT pdata
pdata	SEGMENT
$pdata$?clear@?$_Tree@V?$_Tmap_traits@VCZString@Value@Json@@V23@U?$less@VCZString@Value@Json@@@std@@V?$allocator@U?$pair@$$CBVCZString@Value@Json@@V23@@std@@@5@$0A@@std@@@std@@QEAAXXZ DD imagerel $LN19
	DD	imagerel $LN19+75
	DD	imagerel $unwind$?clear@?$_Tree@V?$_Tmap_traits@VCZString@Value@Json@@V23@U?$less@VCZString@Value@Json@@@std@@V?$allocator@U?$pair@$$CBVCZString@Value@Json@@V23@@std@@@5@$0A@@std@@@std@@QEAAXXZ
pdata	ENDS
;	COMDAT pdata
pdata	SEGMENT
$pdata$?find@?$_Tree@V?$_Tmap_traits@VCZString@Value@Json@@V23@U?$less@VCZString@Value@Json@@@std@@V?$allocator@U?$pair@$$CBVCZString@Value@Json@@V23@@std@@@5@$0A@@std@@@std@@QEAA?AV?$_Tree_iterator@V?$_Tree_val@U?$_Tree_simple_types@U?$pair@$$CBVCZString@Value@Json@@V23@@std@@@std@@@std@@@2@AEBVCZString@Value@Json@@@Z DD imagerel $LN111
	DD	imagerel $LN111+272
	DD	imagerel $unwind$?find@?$_Tree@V?$_Tmap_traits@VCZString@Value@Json@@V23@U?$less@VCZString@Value@Json@@@std@@V?$allocator@U?$pair@$$CBVCZString@Value@Json@@V23@@std@@@5@$0A@@std@@@std@@QEAA?AV?$_Tree_iterator@V?$_Tree_val@U?$_Tree_simple_types@U?$pair@$$CBVCZString@Value@Json@@V23@@std@@@std@@@std@@@2@AEBVCZString@Value@Json@@@Z
pdata	ENDS
;	COMDAT pdata
pdata	SEGMENT
$pdata$?lower_bound@?$_Tree@V?$_Tmap_traits@VCZString@Value@Json@@V23@U?$less@VCZString@Value@Json@@@std@@V?$allocator@U?$pair@$$CBVCZString@Value@Json@@V23@@std@@@5@$0A@@std@@@std@@QEAA?AV?$_Tree_iterator@V?$_Tree_val@U?$_Tree_simple_types@U?$pair@$$CBVCZString@Value@Json@@V23@@std@@@std@@@std@@@2@AEBVCZString@Value@Json@@@Z DD imagerel $LN54
	DD	imagerel $LN54+137
	DD	imagerel $unwind$?lower_bound@?$_Tree@V?$_Tmap_traits@VCZString@Value@Json@@V23@U?$less@VCZString@Value@Json@@@std@@V?$allocator@U?$pair@$$CBVCZString@Value@Json@@V23@@std@@@5@$0A@@std@@@std@@QEAA?AV?$_Tree_iterator@V?$_Tree_val@U?$_Tree_simple_types@U?$pair@$$CBVCZString@Value@Json@@V23@@std@@@std@@@std@@@2@AEBVCZString@Value@Json@@@Z
pdata	ENDS
;	COMDAT pdata
pdata	SEGMENT
$pdata$?setComment@Value@Json@@QEAAXAEBV?$basic_string@DU?$char_traits@D@std@@V?$allocator@D@2@@std@@W4CommentPlacement@2@@Z DD imagerel $LN11
	DD	imagerel $LN11+161
	DD	imagerel $unwind$?setComment@Value@Json@@QEAAXAEBV?$basic_string@DU?$char_traits@D@std@@V?$allocator@D@2@@std@@W4CommentPlacement@2@@Z
pdata	ENDS
;	COMDAT pdata
pdata	SEGMENT
$pdata$?dtor$0@?0??setComment@Value@Json@@QEAAXAEBV?$basic_string@DU?$char_traits@D@std@@V?$allocator@D@2@@std@@W4CommentPlacement@2@@Z@4HA DD imagerel ?dtor$0@?0??setComment@Value@Json@@QEAAXAEBV?$basic_string@DU?$char_traits@D@std@@V?$allocator@D@2@@std@@W4CommentPlacement@2@@Z@4HA
	DD	imagerel ?dtor$0@?0??setComment@Value@Json@@QEAAXAEBV?$basic_string@DU?$char_traits@D@std@@V?$allocator@D@2@@std@@W4CommentPlacement@2@@Z@4HA+29
	DD	imagerel $unwind$?dtor$0@?0??setComment@Value@Json@@QEAAXAEBV?$basic_string@DU?$char_traits@D@std@@V?$allocator@D@2@@std@@W4CommentPlacement@2@@Z@4HA
pdata	ENDS
;	COMDAT pdata
pdata	SEGMENT
$pdata$?setComment@Value@Json@@QEAAXPEBDW4CommentPlacement@2@@Z DD imagerel $LN9
	DD	imagerel $LN9+153
	DD	imagerel $unwind$?setComment@Value@Json@@QEAAXPEBDW4CommentPlacement@2@@Z
pdata	ENDS
;	COMDAT pdata
pdata	SEGMENT
$pdata$?dtor$0@?0??setComment@Value@Json@@QEAAXPEBDW4CommentPlacement@2@@Z@4HA DD imagerel ?dtor$0@?0??setComment@Value@Json@@QEAAXPEBDW4CommentPlacement@2@@Z@4HA
	DD	imagerel ?dtor$0@?0??setComment@Value@Json@@QEAAXPEBDW4CommentPlacement@2@@Z@4HA+29
	DD	imagerel $unwind$?dtor$0@?0??setComment@Value@Json@@QEAAXPEBDW4CommentPlacement@2@@Z@4HA
pdata	ENDS
;	COMDAT pdata
pdata	SEGMENT
$pdata$?isMember@Value@Json@@QEBA_NAEBV?$basic_string@DU?$char_traits@D@std@@V?$allocator@D@2@@std@@@Z DD imagerel $LN6
	DD	imagerel $LN6+47
	DD	imagerel $unwind$?isMember@Value@Json@@QEBA_NAEBV?$basic_string@DU?$char_traits@D@std@@V?$allocator@D@2@@std@@@Z
pdata	ENDS
;	COMDAT pdata
pdata	SEGMENT
$pdata$?isMember@Value@Json@@QEBA_NPEBD@Z DD imagerel $LN4
	DD	imagerel $LN4+27
	DD	imagerel $unwind$?isMember@Value@Json@@QEBA_NPEBD@Z
pdata	ENDS
;	COMDAT pdata
pdata	SEGMENT
$pdata$?append@Value@Json@@QEAAAEAV12@AEBV12@@Z DD imagerel $LN4
	DD	imagerel $LN4+52
	DD	imagerel $unwind$?append@Value@Json@@QEAAAEAV12@AEBV12@@Z
pdata	ENDS
;	COMDAT pdata
pdata	SEGMENT
$pdata$??AValue@Json@@QEAAAEAV01@AEBV?$basic_string@DU?$char_traits@D@std@@V?$allocator@D@2@@std@@@Z DD imagerel $LN6
	DD	imagerel $LN6+33
	DD	imagerel $unwind$??AValue@Json@@QEAAAEAV01@AEBV?$basic_string@DU?$char_traits@D@std@@V?$allocator@D@2@@std@@@Z
pdata	ENDS
;	COMDAT pdata
pdata	SEGMENT
$pdata$??AValue@Json@@QEBAAEBV01@PEBD@Z DD imagerel $LN41
	DD	imagerel $LN41+131
	DD	imagerel $unwind$??AValue@Json@@QEBAAEBV01@PEBD@Z
pdata	ENDS
;	COMDAT pdata
pdata	SEGMENT
$pdata$?isValidIndex@Value@Json@@QEBA_NI@Z DD imagerel $LN4
	DD	imagerel $LN4+24
	DD	imagerel $unwind$?isValidIndex@Value@Json@@QEBA_NI@Z
pdata	ENDS
;	COMDAT pdata
pdata	SEGMENT
$pdata$?resolveReference@Value@Json@@AEAAAEAV12@PEBD_N@Z DD imagerel $LN181
	DD	imagerel $LN181+522
	DD	imagerel $unwind$?resolveReference@Value@Json@@AEAAAEAV12@PEBD_N@Z
pdata	ENDS
;	COMDAT pdata
pdata	SEGMENT
$pdata$?dtor$3@?0??resolveReference@Value@Json@@AEAAAEAV12@PEBD_N@Z@4HA DD imagerel ?dtor$3@?0??resolveReference@Value@Json@@AEAAAEAV12@PEBD_N@Z@4HA
	DD	imagerel ?dtor$3@?0??resolveReference@Value@Json@@AEAAAEAV12@PEBD_N@Z@4HA+32
	DD	imagerel $unwind$?dtor$3@?0??resolveReference@Value@Json@@AEAAAEAV12@PEBD_N@Z@4HA
pdata	ENDS
;	COMDAT pdata
pdata	SEGMENT
$pdata$??1?$pair@$$CBVCZString@Value@Json@@V23@@std@@QEAA@XZ DD imagerel $LN11
	DD	imagerel $LN11+65
	DD	imagerel $unwind$??1?$pair@$$CBVCZString@Value@Json@@V23@@std@@QEAA@XZ
pdata	ENDS
;	COMDAT pdata
pdata	SEGMENT
$pdata$??AValue@Json@@QEAAAEAV01@I@Z DD imagerel $LN179
	DD	imagerel $LN179+469
	DD	imagerel $unwind$??AValue@Json@@QEAAAEAV01@I@Z
pdata	ENDS
;	COMDAT pdata
pdata	SEGMENT
$pdata$?dtor$3@?0???AValue@Json@@QEAAAEAV01@I@Z@4HA DD imagerel ?dtor$3@?0???AValue@Json@@QEAAAEAV01@I@Z@4HA
	DD	imagerel ?dtor$3@?0???AValue@Json@@QEAAAEAV01@I@Z@4HA+32
	DD	imagerel $unwind$?dtor$3@?0???AValue@Json@@QEAAAEAV01@I@Z@4HA
pdata	ENDS
;	COMDAT pdata
pdata	SEGMENT
$pdata$?asString@Value@Json@@QEBA?AV?$basic_string@DU?$char_traits@D@std@@V?$allocator@D@2@@std@@XZ DD imagerel $LN20
	DD	imagerel $LN20+204
	DD	imagerel $unwind$?asString@Value@Json@@QEBA?AV?$basic_string@DU?$char_traits@D@std@@V?$allocator@D@2@@std@@XZ
pdata	ENDS
;	COMDAT pdata
pdata	SEGMENT
$pdata$??4Value@Json@@QEAAAEAV01@AEBV01@@Z DD imagerel $LN16
	DD	imagerel $LN16+113
	DD	imagerel $unwind$??4Value@Json@@QEAAAEAV01@AEBV01@@Z
pdata	ENDS
;	COMDAT pdata
pdata	SEGMENT
$pdata$??1?$map@VCZString@Value@Json@@V23@U?$less@VCZString@Value@Json@@@std@@V?$allocator@U?$pair@$$CBVCZString@Value@Json@@V23@@std@@@5@@std@@QEAA@XZ DD imagerel $LN77
	DD	imagerel $LN77+122
	DD	imagerel $unwind$??1?$map@VCZString@Value@Json@@V23@U?$less@VCZString@Value@Json@@@std@@V?$allocator@U?$pair@$$CBVCZString@Value@Json@@V23@@std@@@5@@std@@QEAA@XZ
pdata	ENDS
;	COMDAT pdata
pdata	SEGMENT
$pdata$??_G?$map@VCZString@Value@Json@@V23@U?$less@VCZString@Value@Json@@@std@@V?$allocator@U?$pair@$$CBVCZString@Value@Json@@V23@@std@@@5@@std@@QEAAPEAXI@Z DD imagerel $LN81
	DD	imagerel $LN81+139
	DD	imagerel $unwind$??_G?$map@VCZString@Value@Json@@V23@U?$less@VCZString@Value@Json@@@std@@V?$allocator@U?$pair@$$CBVCZString@Value@Json@@V23@@std@@@5@@std@@QEAAPEAXI@Z
pdata	ENDS
;	COMDAT pdata
pdata	SEGMENT
$pdata$??1Value@Json@@QEAA@XZ DD imagerel $LN106
	DD	imagerel $LN106+244
	DD	imagerel $unwind$??1Value@Json@@QEAA@XZ
pdata	ENDS
;	COMDAT pdata
pdata	SEGMENT
$pdata$??_ECommentInfo@Value@Json@@QEAAPEAXI@Z DD imagerel $LN12
	DD	imagerel $LN12+69
	DD	imagerel $unwind$??_ECommentInfo@Value@Json@@QEAAPEAXI@Z
pdata	ENDS
;	COMDAT pdata
pdata	SEGMENT
$pdata$??0Value@Json@@QEAA@AEBV01@@Z DD imagerel $LN41
	DD	imagerel $LN41+336
	DD	imagerel $unwind$??0Value@Json@@QEAA@AEBV01@@Z
pdata	ENDS
;	COMDAT pdata
pdata	SEGMENT
$pdata$?dtor$0@?0???0Value@Json@@QEAA@AEBV01@@Z@4HA DD imagerel ?dtor$0@?0???0Value@Json@@QEAA@AEBV01@@Z@4HA
	DD	imagerel ?dtor$0@?0???0Value@Json@@QEAA@AEBV01@@Z@4HA+29
	DD	imagerel $unwind$?dtor$0@?0???0Value@Json@@QEAA@AEBV01@@Z@4HA
pdata	ENDS
;	COMDAT pdata
pdata	SEGMENT
$pdata$?dtor$1@?0???0Value@Json@@QEAA@AEBV01@@Z@4HA DD imagerel ?dtor$1@?0???0Value@Json@@QEAA@AEBV01@@Z@4HA
	DD	imagerel ?dtor$1@?0???0Value@Json@@QEAA@AEBV01@@Z@4HA+29
	DD	imagerel $unwind$?dtor$1@?0???0Value@Json@@QEAA@AEBV01@@Z@4HA
pdata	ENDS
;	COMDAT pdata
pdata	SEGMENT
$pdata$??0Value@Json@@QEAA@AEBV?$basic_string@DU?$char_traits@D@std@@V?$allocator@D@2@@std@@@Z DD imagerel $LN4
	DD	imagerel $LN4+126
	DD	imagerel $unwind$??0Value@Json@@QEAA@AEBV?$basic_string@DU?$char_traits@D@std@@V?$allocator@D@2@@std@@@Z
pdata	ENDS
;	COMDAT pdata
pdata	SEGMENT
$pdata$??0Value@Json@@QEAA@W4ValueType@1@@Z DD imagerel $LN44
	DD	imagerel $LN44+236
	DD	imagerel $unwind$??0Value@Json@@QEAA@W4ValueType@1@@Z
pdata	ENDS
;	COMDAT pdata
pdata	SEGMENT
$pdata$?dtor$0@?0???0Value@Json@@QEAA@W4ValueType@1@@Z@4HA DD imagerel ?dtor$0@?0???0Value@Json@@QEAA@W4ValueType@1@@Z@4HA
	DD	imagerel ?dtor$0@?0???0Value@Json@@QEAA@W4ValueType@1@@Z@4HA+29
	DD	imagerel $unwind$?dtor$0@?0???0Value@Json@@QEAA@W4ValueType@1@@Z@4HA
pdata	ENDS
;	COMDAT pdata
pdata	SEGMENT
$pdata$??1CZString@Value@Json@@QEAA@XZ DD imagerel $LN6
	DD	imagerel $LN6+55
	DD	imagerel $unwind$??1CZString@Value@Json@@QEAA@XZ
pdata	ENDS
;	COMDAT pdata
pdata	SEGMENT
$pdata$??0CZString@Value@Json@@QEAA@AEBV012@@Z DD imagerel $LN11
	DD	imagerel $LN11+103
	DD	imagerel $unwind$??0CZString@Value@Json@@QEAA@AEBV012@@Z
pdata	ENDS
;	COMDAT pdata
pdata	SEGMENT
$pdata$??0CZString@Value@Json@@QEAA@PEBDW4DuplicationPolicy@012@@Z DD imagerel $LN6
	DD	imagerel $LN6+75
	DD	imagerel $unwind$??0CZString@Value@Json@@QEAA@PEBDW4DuplicationPolicy@012@@Z
pdata	ENDS
;	COMDAT pdata
pdata	SEGMENT
$pdata$?setComment@CommentInfo@Value@Json@@QEAAXPEBD@Z DD imagerel $LN8
	DD	imagerel $LN8+122
	DD	imagerel $unwind$?setComment@CommentInfo@Value@Json@@QEAAXPEBD@Z
pdata	ENDS
;	COMDAT pdata
pdata	SEGMENT
$pdata$??1CommentInfo@Value@Json@@QEAA@XZ DD imagerel $LN6
	DD	imagerel $LN6+49
	DD	imagerel $unwind$??1CommentInfo@Value@Json@@QEAA@XZ
pdata	ENDS
;	COMDAT pdata
pdata	SEGMENT
$pdata$??0DummyValueAllocatorInitializer@Json@@QEAA@XZ DD imagerel $LN4
	DD	imagerel $LN4+21
	DD	imagerel $unwind$??0DummyValueAllocatorInitializer@Json@@QEAA@XZ
pdata	ENDS
;	COMDAT pdata
pdata	SEGMENT
$pdata$?valueAllocator@Json@@YAAEAPEAVValueAllocator@1@XZ DD imagerel ?valueAllocator@Json@@YAAEAPEAVValueAllocator@1@XZ
	DD	imagerel ?valueAllocator@Json@@YAAEAPEAVValueAllocator@1@XZ+103
	DD	imagerel $unwind$?valueAllocator@Json@@YAAEAPEAVValueAllocator@1@XZ
pdata	ENDS
;	COMDAT pdata
pdata	SEGMENT
$pdata$??_GDefaultValueAllocator@Json@@UEAAPEAXI@Z DD imagerel $LN12
	DD	imagerel $LN12+43
	DD	imagerel $unwind$??_GDefaultValueAllocator@Json@@UEAAPEAXI@Z
pdata	ENDS
;	COMDAT pdata
pdata	SEGMENT
$pdata$?duplicateStringValue@DefaultValueAllocator@Json@@UEAAPEADPEBDI@Z DD imagerel $LN6
	DD	imagerel $LN6+94
	DD	imagerel $unwind$?duplicateStringValue@DefaultValueAllocator@Json@@UEAAPEADPEBDI@Z
pdata	ENDS
;	COMDAT pdata
pdata	SEGMENT
$pdata$??_GValueAllocator@Json@@UEAAPEAXI@Z DD imagerel $LN9
	DD	imagerel $LN9+43
	DD	imagerel $unwind$??_GValueAllocator@Json@@UEAAPEAXI@Z
pdata	ENDS
;	COMDAT pdata
pdata	SEGMENT
$pdata$??0runtime_error@std@@QEAA@AEBV01@@Z DD imagerel $LN7
	DD	imagerel $LN7+63
	DD	imagerel $unwind$??0runtime_error@std@@QEAA@AEBV01@@Z
pdata	ENDS
;	COMDAT pdata
pdata	SEGMENT
$pdata$??_Gruntime_error@std@@UEAAPEAXI@Z DD imagerel $LN12
	DD	imagerel $LN12+66
	DD	imagerel $unwind$??_Gruntime_error@std@@UEAAPEAXI@Z
pdata	ENDS
;	COMDAT pdata
pdata	SEGMENT
$pdata$??0runtime_error@std@@QEAA@PEBD@Z DD imagerel $LN7
	DD	imagerel $LN7+74
	DD	imagerel $unwind$??0runtime_error@std@@QEAA@PEBD@Z
pdata	ENDS
;	COMDAT pdata
pdata	SEGMENT
$pdata$??_Gexception@std@@UEAAPEAXI@Z DD imagerel $LN9
	DD	imagerel $LN9+66
	DD	imagerel $unwind$??_Gexception@std@@UEAAPEAXI@Z
pdata	ENDS
;	COMDAT pdata
pdata	SEGMENT
$pdata$??0exception@std@@QEAA@AEBV01@@Z DD imagerel $LN5
	DD	imagerel $LN5+53
	DD	imagerel $unwind$??0exception@std@@QEAA@AEBV01@@Z
pdata	ENDS
;	COMDAT pdata
pdata	SEGMENT
$pdata$??0exception@std@@QEAA@QEBD@Z DD imagerel $LN5
	DD	imagerel $LN5+64
	DD	imagerel $unwind$??0exception@std@@QEAA@QEBD@Z
pdata	ENDS
;	COMDAT pdata
pdata	SEGMENT
$pdata$?getComment@Value@Json@@QEBA?AV?$basic_string@DU?$char_traits@D@std@@V?$allocator@D@2@@std@@W4CommentPlacement@2@@Z DD imagerel $LN15
	DD	imagerel $LN15+54
	DD	imagerel $unwind$?getComment@Value@Json@@QEBA?AV?$basic_string@DU?$char_traits@D@std@@V?$allocator@D@2@@std@@W4CommentPlacement@2@@Z
pdata	ENDS
;	COMDAT pdata
pdata	SEGMENT
$pdata$?getMemberNames@Value@Json@@QEBA?AV?$vector@V?$basic_string@DU?$char_traits@D@std@@V?$allocator@D@2@@std@@V?$allocator@V?$basic_string@DU?$char_traits@D@std@@V?$allocator@D@2@@std@@@2@@std@@XZ DD imagerel $LN115
	DD	imagerel $LN115+569
	DD	imagerel $unwind$?getMemberNames@Value@Json@@QEBA?AV?$vector@V?$basic_string@DU?$char_traits@D@std@@V?$allocator@D@2@@std@@V?$allocator@V?$basic_string@DU?$char_traits@D@std@@V?$allocator@D@2@@std@@@2@@std@@XZ
pdata	ENDS
;	COMDAT pdata
pdata	SEGMENT
$pdata$??AValue@Json@@QEBAAEBV01@I@Z DD imagerel $LN38
	DD	imagerel $LN38+131
	DD	imagerel $unwind$??AValue@Json@@QEBAAEBV01@I@Z
pdata	ENDS
;	COMDAT pdata
pdata	SEGMENT
$pdata$??AValue@Json@@QEBAAEBV01@AEBV?$basic_string@DU?$char_traits@D@std@@V?$allocator@D@2@@std@@@Z DD imagerel $LN4
	DD	imagerel $LN4+33
	DD	imagerel $unwind$??AValue@Json@@QEBAAEBV01@AEBV?$basic_string@DU?$char_traits@D@std@@V?$allocator@D@2@@std@@@Z
pdata	ENDS
;	COMDAT pdata
pdata	SEGMENT
$pdata$?size@Value@Json@@QEBAIXZ DD imagerel $LN75
	DD	imagerel $LN75+190
	DD	imagerel $unwind$?size@Value@Json@@QEBAIXZ
pdata	ENDS
;	COMDAT pdata
pdata	SEGMENT
$pdata$?asDouble@Value@Json@@QEBANXZ DD imagerel $LN18
	DD	imagerel $LN18+164
	DD	imagerel $unwind$?asDouble@Value@Json@@QEBANXZ
pdata	ENDS
;	COMDAT pdata
pdata	SEGMENT
$pdata$?asUInt@Value@Json@@QEBAIXZ DD imagerel $LN20
	DD	imagerel $LN20+244
	DD	imagerel $unwind$?asUInt@Value@Json@@QEBAIXZ
pdata	ENDS
;	COMDAT pdata
pdata	SEGMENT
$pdata$?asInt@Value@Json@@QEBAHXZ DD imagerel $LN20
	DD	imagerel $LN20+248
	DD	imagerel $unwind$?asInt@Value@Json@@QEBAHXZ
pdata	ENDS
CRT$XCU	SEGMENT
??null$initializer$@Value@Json@@2P6AXXZEA@@3P6AXXZEA DQ FLAT:??__E?null@Value@Json@@2V12@B@@YAXXZ ; ??null$initializer$@Value@Json@@2P6AXXZEA@@3P6AXXZEA
;	COMDAT xdata
xdata	SEGMENT
$unwind$?asInt@Value@Json@@QEBAHXZ DD 010401H
	DD	08204H
xdata	ENDS
;	COMDAT xdata
xdata	SEGMENT
$unwind$?asUInt@Value@Json@@QEBAIXZ DD 010401H
	DD	08204H
xdata	ENDS
;	COMDAT xdata
xdata	SEGMENT
$unwind$?asDouble@Value@Json@@QEBANXZ DD 010401H
	DD	08204H
xdata	ENDS
;	COMDAT xdata
xdata	SEGMENT
$unwind$?size@Value@Json@@QEBAIXZ DD 010401H
	DD	04204H
xdata	ENDS
;	COMDAT xdata
xdata	SEGMENT
$unwind$??AValue@Json@@QEBAAEBV01@AEBV?$basic_string@DU?$char_traits@D@std@@V?$allocator@D@2@@std@@@Z DD 020601H
	DD	030023206H
xdata	ENDS
;	COMDAT xdata
xdata	SEGMENT
$stateUnwindMap$??AValue@Json@@QEBAAEBV01@I@Z DD 0ffffffffH
	DD	00H
	DD	0ffffffffH
	DD	imagerel __imp___std_terminate
xdata	ENDS
;	COMDAT CONST
CONST	SEGMENT
$cppxdata$??AValue@Json@@QEBAAEBV01@I@Z DD 019930522H
	DD	02H
	DD	imagerel $stateUnwindMap$??AValue@Json@@QEBAAEBV01@I@Z
	DD	00H
	DD	00H
	DD	2 DUP(00H)
	DD	020H
	DD	00H
	DD	01H
CONST	ENDS
;	COMDAT xdata
xdata	SEGMENT
$unwind$??AValue@Json@@QEBAAEBV01@I@Z DD 041411H
	DD	0b3414H
	DD	070027206H
	DD	imagerel __CxxFrameHandler3
	DD	imagerel $cppxdata$??AValue@Json@@QEBAAEBV01@I@Z
xdata	ENDS
;	COMDAT xdata
xdata	SEGMENT
$ip2state$?getMemberNames@Value@Json@@QEBA?AV?$vector@V?$basic_string@DU?$char_traits@D@std@@V?$allocator@D@2@@std@@V?$allocator@V?$basic_string@DU?$char_traits@D@std@@V?$allocator@D@2@@std@@@2@@std@@XZ DD imagerel ?getMemberNames@Value@Json@@QEBA?AV?$vector@V?$basic_string@DU?$char_traits@D@std@@V?$allocator@D@2@@std@@V?$allocator@V?$basic_string@DU?$char_traits@D@std@@V?$allocator@D@2@@std@@@2@@std@@XZ+132
	DD	00H
	DD	imagerel ?getMemberNames@Value@Json@@QEBA?AV?$vector@V?$basic_string@DU?$char_traits@D@std@@V?$allocator@D@2@@std@@V?$allocator@V?$basic_string@DU?$char_traits@D@std@@V?$allocator@D@2@@std@@@2@@std@@XZ+223
	DD	01H
	DD	imagerel ?getMemberNames@Value@Json@@QEBA?AV?$vector@V?$basic_string@DU?$char_traits@D@std@@V?$allocator@D@2@@std@@V?$allocator@V?$basic_string@DU?$char_traits@D@std@@V?$allocator@D@2@@std@@@2@@std@@XZ+237
	DD	00H
	DD	imagerel ?getMemberNames@Value@Json@@QEBA?AV?$vector@V?$basic_string@DU?$char_traits@D@std@@V?$allocator@D@2@@std@@V?$allocator@V?$basic_string@DU?$char_traits@D@std@@V?$allocator@D@2@@std@@@2@@std@@XZ+357
	DD	02H
	DD	imagerel ?getMemberNames@Value@Json@@QEBA?AV?$vector@V?$basic_string@DU?$char_traits@D@std@@V?$allocator@D@2@@std@@V?$allocator@V?$basic_string@DU?$char_traits@D@std@@V?$allocator@D@2@@std@@@2@@std@@XZ+537
	DD	0ffffffffH
	DD	imagerel ?getMemberNames@Value@Json@@QEBA?AV?$vector@V?$basic_string@DU?$char_traits@D@std@@V?$allocator@D@2@@std@@V?$allocator@V?$basic_string@DU?$char_traits@D@std@@V?$allocator@D@2@@std@@@2@@std@@XZ+563
	DD	00H
xdata	ENDS
;	COMDAT xdata
xdata	SEGMENT
$stateUnwindMap$?getMemberNames@Value@Json@@QEBA?AV?$vector@V?$basic_string@DU?$char_traits@D@std@@V?$allocator@D@2@@std@@V?$allocator@V?$basic_string@DU?$char_traits@D@std@@V?$allocator@D@2@@std@@@2@@std@@XZ DD 0ffffffffH
	DD	imagerel ?dtor$1@?0??getMemberNames@Value@Json@@QEBA?AV?$vector@V?$basic_string@DU?$char_traits@D@std@@V?$allocator@D@2@@std@@V?$allocator@V?$basic_string@DU?$char_traits@D@std@@V?$allocator@D@2@@std@@@2@@std@@XZ@4HA
	DD	00H
	DD	imagerel ?dtor$2@?0??getMemberNames@Value@Json@@QEBA?AV?$vector@V?$basic_string@DU?$char_traits@D@std@@V?$allocator@D@2@@std@@V?$allocator@V?$basic_string@DU?$char_traits@D@std@@V?$allocator@D@2@@std@@@2@@std@@XZ@4HA
	DD	00H
	DD	imagerel __imp___std_terminate
xdata	ENDS
;	COMDAT CONST
CONST	SEGMENT
$cppxdata$?getMemberNames@Value@Json@@QEBA?AV?$vector@V?$basic_string@DU?$char_traits@D@std@@V?$allocator@D@2@@std@@V?$allocator@V?$basic_string@DU?$char_traits@D@std@@V?$allocator@D@2@@std@@@2@@std@@XZ DD 019930522H
	DD	03H
	DD	imagerel $stateUnwindMap$?getMemberNames@Value@Json@@QEBA?AV?$vector@V?$basic_string@DU?$char_traits@D@std@@V?$allocator@D@2@@std@@V?$allocator@V?$basic_string@DU?$char_traits@D@std@@V?$allocator@D@2@@std@@@2@@std@@XZ
	DD	00H
	DD	00H
	DD	06H
	DD	imagerel $ip2state$?getMemberNames@Value@Json@@QEBA?AV?$vector@V?$basic_string@DU?$char_traits@D@std@@V?$allocator@D@2@@std@@V?$allocator@V?$basic_string@DU?$char_traits@D@std@@V?$allocator@D@2@@std@@@2@@std@@XZ
	DD	048H
	DD	00H
	DD	01H
CONST	ENDS
;	COMDAT xdata
xdata	SEGMENT
$unwind$?getMemberNames@Value@Json@@QEBA?AV?$vector@V?$basic_string@DU?$char_traits@D@std@@V?$allocator@D@2@@std@@V?$allocator@V?$basic_string@DU?$char_traits@D@std@@V?$allocator@D@2@@std@@@2@@std@@XZ DD 062a19H
	DD	015641bH
	DD	0143417H
	DD	07004f20bH
	DD	imagerel __GSHandlerCheck_EH
	DD	imagerel $cppxdata$?getMemberNames@Value@Json@@QEBA?AV?$vector@V?$basic_string@DU?$char_traits@D@std@@V?$allocator@D@2@@std@@V?$allocator@V?$basic_string@DU?$char_traits@D@std@@V?$allocator@D@2@@std@@@2@@std@@XZ
	DD	072H
xdata	ENDS
;	COMDAT xdata
xdata	SEGMENT
$unwind$?getComment@Value@Json@@QEBA?AV?$basic_string@DU?$char_traits@D@std@@V?$allocator@D@2@@std@@W4CommentPlacement@2@@Z DD 020601H
	DD	030023206H
xdata	ENDS
;	COMDAT xdata
xdata	SEGMENT
$unwind$??0exception@std@@QEAA@QEBD@Z DD 020601H
	DD	030025206H
xdata	ENDS
;	COMDAT xdata
xdata	SEGMENT
$unwind$??0exception@std@@QEAA@AEBV01@@Z DD 020601H
	DD	030023206H
xdata	ENDS
;	COMDAT xdata
xdata	SEGMENT
$unwind$??_Gexception@std@@UEAAPEAXI@Z DD 040a01H
	DD	06340aH
	DD	07006320aH
xdata	ENDS
;	COMDAT xdata
xdata	SEGMENT
$unwind$??0runtime_error@std@@QEAA@PEBD@Z DD 020601H
	DD	030025206H
xdata	ENDS
;	COMDAT xdata
xdata	SEGMENT
$unwind$??_Gruntime_error@std@@UEAAPEAXI@Z DD 040a01H
	DD	06340aH
	DD	07006320aH
xdata	ENDS
;	COMDAT xdata
xdata	SEGMENT
$unwind$??0runtime_error@std@@QEAA@AEBV01@@Z DD 020601H
	DD	030023206H
xdata	ENDS
;	COMDAT xdata
xdata	SEGMENT
$unwind$??_GValueAllocator@Json@@UEAAPEAXI@Z DD 020601H
	DD	030023206H
xdata	ENDS
;	COMDAT xdata
xdata	SEGMENT
$unwind$?duplicateStringValue@DefaultValueAllocator@Json@@UEAAPEADPEBDI@Z DD 060f01H
	DD	07640fH
	DD	06340fH
	DD	0700b320fH
xdata	ENDS
;	COMDAT xdata
xdata	SEGMENT
$unwind$??_GDefaultValueAllocator@Json@@UEAAPEAXI@Z DD 020601H
	DD	030023206H
xdata	ENDS
;	COMDAT xdata
xdata	SEGMENT
$unwind$?valueAllocator@Json@@YAAEAPEAVValueAllocator@1@XZ DD 010401H
	DD	04204H
xdata	ENDS
;	COMDAT xdata
xdata	SEGMENT
$unwind$??0DummyValueAllocatorInitializer@Json@@QEAA@XZ DD 010401H
	DD	04204H
xdata	ENDS
;	COMDAT xdata
xdata	SEGMENT
$ip2state$??1CommentInfo@Value@Json@@QEAA@XZ DD imagerel ??1CommentInfo@Value@Json@@QEAA@XZ+39
	DD	0ffffffffH
xdata	ENDS
;	COMDAT CONST
CONST	SEGMENT
$cppxdata$??1CommentInfo@Value@Json@@QEAA@XZ DD 019930522H
	DD	00H
	DD	00H
	DD	00H
	DD	00H
	DD	01H
	DD	imagerel $ip2state$??1CommentInfo@Value@Json@@QEAA@XZ
	DD	020H
	DD	00H
	DD	05H
CONST	ENDS
;	COMDAT xdata
xdata	SEGMENT
$unwind$??1CommentInfo@Value@Json@@QEAA@XZ DD 020f19H
	DD	030025206H
	DD	imagerel __CxxFrameHandler3
	DD	imagerel $cppxdata$??1CommentInfo@Value@Json@@QEAA@XZ
xdata	ENDS
;	COMDAT xdata
xdata	SEGMENT
$unwind$?setComment@CommentInfo@Value@Json@@QEAAXPEBD@Z DD 040a01H
	DD	0a340aH
	DD	07006720aH
xdata	ENDS
;	COMDAT xdata
xdata	SEGMENT
$unwind$??0CZString@Value@Json@@QEAA@PEBDW4DuplicationPolicy@012@@Z DD 060f01H
	DD	07640fH
	DD	06340fH
	DD	0700b320fH
xdata	ENDS
;	COMDAT xdata
xdata	SEGMENT
$unwind$??0CZString@Value@Json@@QEAA@AEBV012@@Z DD 040a01H
	DD	06340aH
	DD	07006320aH
xdata	ENDS
;	COMDAT xdata
xdata	SEGMENT
$ip2state$??1CZString@Value@Json@@QEAA@XZ DD imagerel ??1CZString@Value@Json@@QEAA@XZ+45
	DD	0ffffffffH
xdata	ENDS
;	COMDAT CONST
CONST	SEGMENT
$cppxdata$??1CZString@Value@Json@@QEAA@XZ DD 019930522H
	DD	00H
	DD	00H
	DD	00H
	DD	00H
	DD	01H
	DD	imagerel $ip2state$??1CZString@Value@Json@@QEAA@XZ
	DD	020H
	DD	00H
	DD	05H
CONST	ENDS
;	COMDAT xdata
xdata	SEGMENT
$unwind$??1CZString@Value@Json@@QEAA@XZ DD 020f19H
	DD	030025206H
	DD	imagerel __CxxFrameHandler3
	DD	imagerel $cppxdata$??1CZString@Value@Json@@QEAA@XZ
xdata	ENDS
;	COMDAT xdata
xdata	SEGMENT
$unwind$?dtor$0@?0???0Value@Json@@QEAA@W4ValueType@1@@Z@4HA DD 020601H
	DD	050023206H
xdata	ENDS
;	COMDAT xdata
xdata	SEGMENT
$ip2state$??0Value@Json@@QEAA@W4ValueType@1@@Z DD imagerel ??0Value@Json@@QEAA@W4ValueType@1@@Z+125
	DD	0ffffffffH
	DD	imagerel ??0Value@Json@@QEAA@W4ValueType@1@@Z+155
	DD	00H
xdata	ENDS
;	COMDAT xdata
xdata	SEGMENT
$stateUnwindMap$??0Value@Json@@QEAA@W4ValueType@1@@Z DD 0ffffffffH
	DD	imagerel ?dtor$0@?0???0Value@Json@@QEAA@W4ValueType@1@@Z@4HA
xdata	ENDS
;	COMDAT CONST
CONST	SEGMENT
$cppxdata$??0Value@Json@@QEAA@W4ValueType@1@@Z DD 019930522H
	DD	01H
	DD	imagerel $stateUnwindMap$??0Value@Json@@QEAA@W4ValueType@1@@Z
	DD	00H
	DD	00H
	DD	02H
	DD	imagerel $ip2state$??0Value@Json@@QEAA@W4ValueType@1@@Z
	DD	020H
	DD	00H
	DD	01H
CONST	ENDS
;	COMDAT xdata
xdata	SEGMENT
$unwind$??0Value@Json@@QEAA@W4ValueType@1@@Z DD 061911H
	DD	0b6419H
	DD	0a3414H
	DD	070025206H
	DD	imagerel __CxxFrameHandler3
	DD	imagerel $cppxdata$??0Value@Json@@QEAA@W4ValueType@1@@Z
xdata	ENDS
;	COMDAT xdata
xdata	SEGMENT
$unwind$??0Value@Json@@QEAA@AEBV?$basic_string@DU?$char_traits@D@std@@V?$allocator@D@2@@std@@@Z DD 0a1a01H
	DD	09741aH
	DD	08641aH
	DD	07541aH
	DD	06341aH
	DD	0e016321aH
xdata	ENDS
;	COMDAT xdata
xdata	SEGMENT
$unwind$?dtor$1@?0???0Value@Json@@QEAA@AEBV01@@Z@4HA DD 020601H
	DD	050023206H
xdata	ENDS
;	COMDAT xdata
xdata	SEGMENT
$unwind$?dtor$0@?0???0Value@Json@@QEAA@AEBV01@@Z@4HA DD 020601H
	DD	050023206H
xdata	ENDS
;	COMDAT xdata
xdata	SEGMENT
$ip2state$??0Value@Json@@QEAA@AEBV01@@Z DD imagerel ??0Value@Json@@QEAA@AEBV01@@Z+105
	DD	0ffffffffH
	DD	imagerel ??0Value@Json@@QEAA@AEBV01@@Z+143
	DD	00H
	DD	imagerel ??0Value@Json@@QEAA@AEBV01@@Z+155
	DD	0ffffffffH
	DD	imagerel ??0Value@Json@@QEAA@AEBV01@@Z+180
	DD	01H
	DD	imagerel ??0Value@Json@@QEAA@AEBV01@@Z+235
	DD	0ffffffffH
	DD	imagerel ??0Value@Json@@QEAA@AEBV01@@Z+304
	DD	00H
xdata	ENDS
;	COMDAT xdata
xdata	SEGMENT
$stateUnwindMap$??0Value@Json@@QEAA@AEBV01@@Z DD 0ffffffffH
	DD	imagerel ?dtor$0@?0???0Value@Json@@QEAA@AEBV01@@Z@4HA
	DD	0ffffffffH
	DD	imagerel ?dtor$1@?0???0Value@Json@@QEAA@AEBV01@@Z@4HA
xdata	ENDS
;	COMDAT CONST
CONST	SEGMENT
$cppxdata$??0Value@Json@@QEAA@AEBV01@@Z DD 019930522H
	DD	02H
	DD	imagerel $stateUnwindMap$??0Value@Json@@QEAA@AEBV01@@Z
	DD	00H
	DD	00H
	DD	06H
	DD	imagerel $ip2state$??0Value@Json@@QEAA@AEBV01@@Z
	DD	030H
	DD	00H
	DD	01H
CONST	ENDS
;	COMDAT xdata
xdata	SEGMENT
$unwind$??0Value@Json@@QEAA@AEBV01@@Z DD 081c11H
	DD	0e541cH
	DD	0d3417H
	DD	0e0057209H
	DD	060027003H
	DD	imagerel __CxxFrameHandler3
	DD	imagerel $cppxdata$??0Value@Json@@QEAA@AEBV01@@Z
xdata	ENDS
;	COMDAT xdata
xdata	SEGMENT
$ip2state$??_ECommentInfo@Value@Json@@QEAAPEAXI@Z DD imagerel ??_ECommentInfo@Value@Json@@QEAAPEAXI@Z+34
	DD	0ffffffffH
xdata	ENDS
;	COMDAT xdata
xdata	SEGMENT
$stateUnwindMap$??_ECommentInfo@Value@Json@@QEAAPEAXI@Z DD 0ffffffffH
	DD	00H
xdata	ENDS
;	COMDAT CONST
CONST	SEGMENT
$cppxdata$??_ECommentInfo@Value@Json@@QEAAPEAXI@Z DD 019930522H
	DD	01H
	DD	imagerel $stateUnwindMap$??_ECommentInfo@Value@Json@@QEAAPEAXI@Z
	DD	00H
	DD	00H
	DD	01H
	DD	imagerel $ip2state$??_ECommentInfo@Value@Json@@QEAAPEAXI@Z
	DD	020H
	DD	00H
	DD	05H
CONST	ENDS
;	COMDAT xdata
xdata	SEGMENT
$unwind$??_ECommentInfo@Value@Json@@QEAAPEAXI@Z DD 020f19H
	DD	030025206H
	DD	imagerel __CxxFrameHandler3
	DD	imagerel $cppxdata$??_ECommentInfo@Value@Json@@QEAAPEAXI@Z
xdata	ENDS
;	COMDAT xdata
xdata	SEGMENT
$ip2state$??1Value@Json@@QEAA@XZ DD imagerel ??1Value@Json@@QEAA@XZ+132
	DD	00H
	DD	imagerel ??1Value@Json@@QEAA@XZ+178
	DD	0ffffffffH
	DD	imagerel ??1Value@Json@@QEAA@XZ+210
	DD	00H
xdata	ENDS
;	COMDAT xdata
xdata	SEGMENT
$stateUnwindMap$??1Value@Json@@QEAA@XZ DD 0ffffffffH
	DD	imagerel __imp___std_terminate
	DD	00H
	DD	00H
xdata	ENDS
;	COMDAT CONST
CONST	SEGMENT
$cppxdata$??1Value@Json@@QEAA@XZ DD 019930522H
	DD	02H
	DD	imagerel $stateUnwindMap$??1Value@Json@@QEAA@XZ
	DD	00H
	DD	00H
	DD	03H
	DD	imagerel $ip2state$??1Value@Json@@QEAA@XZ
	DD	020H
	DD	00H
	DD	05H
CONST	ENDS
;	COMDAT xdata
xdata	SEGMENT
$unwind$??1Value@Json@@QEAA@XZ DD 041119H
	DD	070045208H
	DD	030026003H
	DD	imagerel __CxxFrameHandler3
	DD	imagerel $cppxdata$??1Value@Json@@QEAA@XZ
xdata	ENDS
;	COMDAT xdata
xdata	SEGMENT
$ip2state$??_G?$map@VCZString@Value@Json@@V23@U?$less@VCZString@Value@Json@@@std@@V?$allocator@U?$pair@$$CBVCZString@Value@Json@@V23@@std@@@5@@std@@QEAAPEAXI@Z DD imagerel ??_G?$map@VCZString@Value@Json@@V23@U?$less@VCZString@Value@Json@@@std@@V?$allocator@U?$pair@$$CBVCZString@Value@Json@@V23@@std@@@5@@std@@QEAAPEAXI@Z+105
	DD	00H
xdata	ENDS
;	COMDAT xdata
xdata	SEGMENT
$stateUnwindMap$??_G?$map@VCZString@Value@Json@@V23@U?$less@VCZString@Value@Json@@@std@@V?$allocator@U?$pair@$$CBVCZString@Value@Json@@V23@@std@@@5@@std@@QEAAPEAXI@Z DD 0ffffffffH
	DD	imagerel __imp___std_terminate
xdata	ENDS
;	COMDAT CONST
CONST	SEGMENT
$cppxdata$??_G?$map@VCZString@Value@Json@@V23@U?$less@VCZString@Value@Json@@@std@@V?$allocator@U?$pair@$$CBVCZString@Value@Json@@V23@@std@@@5@@std@@QEAAPEAXI@Z DD 019930522H
	DD	01H
	DD	imagerel $stateUnwindMap$??_G?$map@VCZString@Value@Json@@V23@U?$less@VCZString@Value@Json@@@std@@V?$allocator@U?$pair@$$CBVCZString@Value@Json@@V23@@std@@@5@@std@@QEAAPEAXI@Z
	DD	00H
	DD	00H
	DD	01H
	DD	imagerel $ip2state$??_G?$map@VCZString@Value@Json@@V23@U?$less@VCZString@Value@Json@@@std@@V?$allocator@U?$pair@$$CBVCZString@Value@Json@@V23@@std@@@5@@std@@QEAAPEAXI@Z
	DD	020H
	DD	00H
	DD	05H
CONST	ENDS
;	COMDAT xdata
xdata	SEGMENT
$unwind$??_G?$map@VCZString@Value@Json@@V23@U?$less@VCZString@Value@Json@@@std@@V?$allocator@U?$pair@$$CBVCZString@Value@Json@@V23@@std@@@5@@std@@QEAAPEAXI@Z DD 041419H
	DD	093414H
	DD	070025206H
	DD	imagerel __CxxFrameHandler3
	DD	imagerel $cppxdata$??_G?$map@VCZString@Value@Json@@V23@U?$less@VCZString@Value@Json@@@std@@V?$allocator@U?$pair@$$CBVCZString@Value@Json@@V23@@std@@@5@@std@@QEAAPEAXI@Z
xdata	ENDS
;	COMDAT xdata
xdata	SEGMENT
$ip2state$??1?$map@VCZString@Value@Json@@V23@U?$less@VCZString@Value@Json@@@std@@V?$allocator@U?$pair@$$CBVCZString@Value@Json@@V23@@std@@@5@@std@@QEAA@XZ DD imagerel ??1?$map@VCZString@Value@Json@@V23@U?$less@VCZString@Value@Json@@@std@@V?$allocator@U?$pair@$$CBVCZString@Value@Json@@V23@@std@@@5@@std@@QEAA@XZ+105
	DD	00H
xdata	ENDS
;	COMDAT xdata
xdata	SEGMENT
$stateUnwindMap$??1?$map@VCZString@Value@Json@@V23@U?$less@VCZString@Value@Json@@@std@@V?$allocator@U?$pair@$$CBVCZString@Value@Json@@V23@@std@@@5@@std@@QEAA@XZ DD 0ffffffffH
	DD	imagerel __imp___std_terminate
xdata	ENDS
;	COMDAT CONST
CONST	SEGMENT
$cppxdata$??1?$map@VCZString@Value@Json@@V23@U?$less@VCZString@Value@Json@@@std@@V?$allocator@U?$pair@$$CBVCZString@Value@Json@@V23@@std@@@5@@std@@QEAA@XZ DD 019930522H
	DD	01H
	DD	imagerel $stateUnwindMap$??1?$map@VCZString@Value@Json@@V23@U?$less@VCZString@Value@Json@@@std@@V?$allocator@U?$pair@$$CBVCZString@Value@Json@@V23@@std@@@5@@std@@QEAA@XZ
	DD	00H
	DD	00H
	DD	01H
	DD	imagerel $ip2state$??1?$map@VCZString@Value@Json@@V23@U?$less@VCZString@Value@Json@@@std@@V?$allocator@U?$pair@$$CBVCZString@Value@Json@@V23@@std@@@5@@std@@QEAA@XZ
	DD	020H
	DD	00H
	DD	05H
CONST	ENDS
;	COMDAT xdata
xdata	SEGMENT
$unwind$??1?$map@VCZString@Value@Json@@V23@U?$less@VCZString@Value@Json@@@std@@V?$allocator@U?$pair@$$CBVCZString@Value@Json@@V23@@std@@@5@@std@@QEAA@XZ DD 041419H
	DD	0b3414H
	DD	070025206H
	DD	imagerel __CxxFrameHandler3
	DD	imagerel $cppxdata$??1?$map@VCZString@Value@Json@@V23@U?$less@VCZString@Value@Json@@@std@@V?$allocator@U?$pair@$$CBVCZString@Value@Json@@V23@@std@@@5@@std@@QEAA@XZ
xdata	ENDS
;	COMDAT xdata
xdata	SEGMENT
$unwind$??4Value@Json@@QEAAAEAV01@AEBV01@@Z DD 020601H
	DD	030027206H
xdata	ENDS
;	COMDAT xdata
xdata	SEGMENT
$unwind$?asString@Value@Json@@QEBA?AV?$basic_string@DU?$char_traits@D@std@@V?$allocator@D@2@@std@@XZ DD 020601H
	DD	030027206H
xdata	ENDS
;	COMDAT xdata
xdata	SEGMENT
$unwind$?dtor$3@?0???AValue@Json@@QEAAAEAV01@I@Z@4HA DD 020601H
	DD	050023206H
xdata	ENDS
;	COMDAT xdata
xdata	SEGMENT
$ip2state$??AValue@Json@@QEAAAEAV01@I@Z DD imagerel ??AValue@Json@@QEAAAEAV01@I@Z+61
	DD	0ffffffffH
	DD	imagerel ??AValue@Json@@QEAAAEAV01@I@Z+89
	DD	00H
	DD	imagerel ??AValue@Json@@QEAAAEAV01@I@Z+108
	DD	01H
	DD	imagerel ??AValue@Json@@QEAAAEAV01@I@Z+348
	DD	04H
	DD	imagerel ??AValue@Json@@QEAAAEAV01@I@Z+368
	DD	05H
	DD	imagerel ??AValue@Json@@QEAAAEAV01@I@Z+409
	DD	02H
	DD	imagerel ??AValue@Json@@QEAAAEAV01@I@Z+447
	DD	06H
xdata	ENDS
;	COMDAT xdata
xdata	SEGMENT
$stateUnwindMap$??AValue@Json@@QEAAAEAV01@I@Z DD 0ffffffffH
	DD	imagerel ?dtor$3@?0???AValue@Json@@QEAAAEAV01@I@Z@4HA
	DD	0ffffffffH
	DD	imagerel ?dtor$0@?0???AValue@Json@@QEAAAEAV01@I@Z@4HA
	DD	0ffffffffH
	DD	imagerel ?dtor$1@?0???AValue@Json@@QEAAAEAV01@I@Z@4HA
	DD	0ffffffffH
	DD	00H
	DD	02H
	DD	imagerel ?dtor$7@?0???AValue@Json@@QEAAAEAV01@I@Z@4HA
	DD	02H
	DD	imagerel ?dtor$2@?0???AValue@Json@@QEAAAEAV01@I@Z@4HA
	DD	02H
	DD	imagerel __imp___std_terminate
	DD	0ffffffffH
	DD	imagerel __imp___std_terminate
xdata	ENDS
;	COMDAT CONST
CONST	SEGMENT
$cppxdata$??AValue@Json@@QEAAAEAV01@I@Z DD 019930522H
	DD	08H
	DD	imagerel $stateUnwindMap$??AValue@Json@@QEAAAEAV01@I@Z
	DD	00H
	DD	00H
	DD	07H
	DD	imagerel $ip2state$??AValue@Json@@QEAAAEAV01@I@Z
	DD	030H
	DD	00H
	DD	01H
CONST	ENDS
;	COMDAT xdata
xdata	SEGMENT
$unwind$??AValue@Json@@QEAAAEAV01@I@Z DD 061911H
	DD	0e007f211H
	DD	060047005H
	DD	050023003H
	DD	imagerel __CxxFrameHandler3
	DD	imagerel $cppxdata$??AValue@Json@@QEAAAEAV01@I@Z
xdata	ENDS
;	COMDAT xdata
xdata	SEGMENT
$ip2state$??1?$pair@$$CBVCZString@Value@Json@@V23@@std@@QEAA@XZ DD imagerel ??1?$pair@$$CBVCZString@Value@Json@@V23@@std@@QEAA@XZ+55
	DD	00H
xdata	ENDS
;	COMDAT xdata
xdata	SEGMENT
$stateUnwindMap$??1?$pair@$$CBVCZString@Value@Json@@V23@@std@@QEAA@XZ DD 0ffffffffH
	DD	imagerel __imp___std_terminate
xdata	ENDS
;	COMDAT CONST
CONST	SEGMENT
$cppxdata$??1?$pair@$$CBVCZString@Value@Json@@V23@@std@@QEAA@XZ DD 019930522H
	DD	01H
	DD	imagerel $stateUnwindMap$??1?$pair@$$CBVCZString@Value@Json@@V23@@std@@QEAA@XZ
	DD	00H
	DD	00H
	DD	01H
	DD	imagerel $ip2state$??1?$pair@$$CBVCZString@Value@Json@@V23@@std@@QEAA@XZ
	DD	020H
	DD	00H
	DD	05H
CONST	ENDS
;	COMDAT xdata
xdata	SEGMENT
$unwind$??1?$pair@$$CBVCZString@Value@Json@@V23@@std@@QEAA@XZ DD 020f19H
	DD	030025206H
	DD	imagerel __CxxFrameHandler3
	DD	imagerel $cppxdata$??1?$pair@$$CBVCZString@Value@Json@@V23@@std@@QEAA@XZ
xdata	ENDS
;	COMDAT xdata
xdata	SEGMENT
$unwind$?dtor$3@?0??resolveReference@Value@Json@@AEAAAEAV12@PEBD_N@Z@4HA DD 020601H
	DD	050023206H
xdata	ENDS
;	COMDAT xdata
xdata	SEGMENT
$ip2state$?resolveReference@Value@Json@@AEAAAEAV12@PEBD_N@Z DD imagerel ?resolveReference@Value@Json@@AEAAAEAV12@PEBD_N@Z+64
	DD	0ffffffffH
	DD	imagerel ?resolveReference@Value@Json@@AEAAAEAV12@PEBD_N@Z+92
	DD	00H
	DD	imagerel ?resolveReference@Value@Json@@AEAAAEAV12@PEBD_N@Z+111
	DD	01H
	DD	imagerel ?resolveReference@Value@Json@@AEAAAEAV12@PEBD_N@Z+369
	DD	02H
	DD	imagerel ?resolveReference@Value@Json@@AEAAAEAV12@PEBD_N@Z+401
	DD	04H
	DD	imagerel ?resolveReference@Value@Json@@AEAAAEAV12@PEBD_N@Z+421
	DD	05H
	DD	imagerel ?resolveReference@Value@Json@@AEAAAEAV12@PEBD_N@Z+462
	DD	02H
	DD	imagerel ?resolveReference@Value@Json@@AEAAAEAV12@PEBD_N@Z+500
	DD	06H
xdata	ENDS
;	COMDAT xdata
xdata	SEGMENT
$stateUnwindMap$?resolveReference@Value@Json@@AEAAAEAV12@PEBD_N@Z DD 0ffffffffH
	DD	imagerel ?dtor$3@?0??resolveReference@Value@Json@@AEAAAEAV12@PEBD_N@Z@4HA
	DD	0ffffffffH
	DD	imagerel ?dtor$0@?0??resolveReference@Value@Json@@AEAAAEAV12@PEBD_N@Z@4HA
	DD	0ffffffffH
	DD	imagerel ?dtor$1@?0??resolveReference@Value@Json@@AEAAAEAV12@PEBD_N@Z@4HA
	DD	0ffffffffH
	DD	00H
	DD	02H
	DD	imagerel ?dtor$7@?0??resolveReference@Value@Json@@AEAAAEAV12@PEBD_N@Z@4HA
	DD	02H
	DD	imagerel ?dtor$2@?0??resolveReference@Value@Json@@AEAAAEAV12@PEBD_N@Z@4HA
	DD	02H
	DD	imagerel __imp___std_terminate
	DD	0ffffffffH
	DD	imagerel __imp___std_terminate
xdata	ENDS
;	COMDAT CONST
CONST	SEGMENT
$cppxdata$?resolveReference@Value@Json@@AEAAAEAV12@PEBD_N@Z DD 019930522H
	DD	08H
	DD	imagerel $stateUnwindMap$?resolveReference@Value@Json@@AEAAAEAV12@PEBD_N@Z
	DD	00H
	DD	00H
	DD	08H
	DD	imagerel $ip2state$?resolveReference@Value@Json@@AEAAAEAV12@PEBD_N@Z
	DD	030H
	DD	00H
	DD	01H
CONST	ENDS
;	COMDAT xdata
xdata	SEGMENT
$unwind$?resolveReference@Value@Json@@AEAAAEAV12@PEBD_N@Z DD 061d11H
	DD	0e00bf215H
	DD	060087009H
	DD	050063007H
	DD	imagerel __CxxFrameHandler3
	DD	imagerel $cppxdata$?resolveReference@Value@Json@@AEAAAEAV12@PEBD_N@Z
xdata	ENDS
;	COMDAT xdata
xdata	SEGMENT
$unwind$?isValidIndex@Value@Json@@QEBA_NI@Z DD 020601H
	DD	030023206H
xdata	ENDS
;	COMDAT xdata
xdata	SEGMENT
$stateUnwindMap$??AValue@Json@@QEBAAEBV01@PEBD@Z DD 0ffffffffH
	DD	00H
	DD	0ffffffffH
	DD	imagerel __imp___std_terminate
xdata	ENDS
;	COMDAT CONST
CONST	SEGMENT
$cppxdata$??AValue@Json@@QEBAAEBV01@PEBD@Z DD 019930522H
	DD	02H
	DD	imagerel $stateUnwindMap$??AValue@Json@@QEBAAEBV01@PEBD@Z
	DD	00H
	DD	00H
	DD	2 DUP(00H)
	DD	020H
	DD	00H
	DD	01H
CONST	ENDS
;	COMDAT xdata
xdata	SEGMENT
$unwind$??AValue@Json@@QEBAAEBV01@PEBD@Z DD 041411H
	DD	0b3414H
	DD	070027206H
	DD	imagerel __CxxFrameHandler3
	DD	imagerel $cppxdata$??AValue@Json@@QEBAAEBV01@PEBD@Z
xdata	ENDS
;	COMDAT xdata
xdata	SEGMENT
$unwind$??AValue@Json@@QEAAAEAV01@AEBV?$basic_string@DU?$char_traits@D@std@@V?$allocator@D@2@@std@@@Z DD 020601H
	DD	030023206H
xdata	ENDS
;	COMDAT xdata
xdata	SEGMENT
$unwind$?append@Value@Json@@QEAAAEAV12@AEBV12@@Z DD 040a01H
	DD	06340aH
	DD	07006320aH
xdata	ENDS
;	COMDAT xdata
xdata	SEGMENT
$unwind$?isMember@Value@Json@@QEBA_NPEBD@Z DD 010401H
	DD	04204H
xdata	ENDS
;	COMDAT xdata
xdata	SEGMENT
$unwind$?isMember@Value@Json@@QEBA_NAEBV?$basic_string@DU?$char_traits@D@std@@V?$allocator@D@2@@std@@@Z DD 020601H
	DD	030023206H
xdata	ENDS
;	COMDAT xdata
xdata	SEGMENT
$unwind$?dtor$0@?0??setComment@Value@Json@@QEAAXPEBDW4CommentPlacement@2@@Z@4HA DD 020601H
	DD	050023206H
xdata	ENDS
;	COMDAT xdata
xdata	SEGMENT
$ip2state$?setComment@Value@Json@@QEAAXPEBDW4CommentPlacement@2@@Z DD imagerel ?setComment@Value@Json@@QEAAXPEBDW4CommentPlacement@2@@Z+51
	DD	0ffffffffH
	DD	imagerel ?setComment@Value@Json@@QEAAXPEBDW4CommentPlacement@2@@Z+108
	DD	00H
xdata	ENDS
;	COMDAT xdata
xdata	SEGMENT
$stateUnwindMap$?setComment@Value@Json@@QEAAXPEBDW4CommentPlacement@2@@Z DD 0ffffffffH
	DD	imagerel ?dtor$0@?0??setComment@Value@Json@@QEAAXPEBDW4CommentPlacement@2@@Z@4HA
xdata	ENDS
;	COMDAT CONST
CONST	SEGMENT
$cppxdata$?setComment@Value@Json@@QEAAXPEBDW4CommentPlacement@2@@Z DD 019930522H
	DD	01H
	DD	imagerel $stateUnwindMap$?setComment@Value@Json@@QEAAXPEBDW4CommentPlacement@2@@Z
	DD	00H
	DD	00H
	DD	02H
	DD	imagerel $ip2state$?setComment@Value@Json@@QEAAXPEBDW4CommentPlacement@2@@Z
	DD	030H
	DD	00H
	DD	01H
CONST	ENDS
;	COMDAT xdata
xdata	SEGMENT
$unwind$?setComment@Value@Json@@QEAAXPEBDW4CommentPlacement@2@@Z DD 081e11H
	DD	0d641eH
	DD	0c5419H
	DD	0b3414H
	DD	070027206H
	DD	imagerel __CxxFrameHandler3
	DD	imagerel $cppxdata$?setComment@Value@Json@@QEAAXPEBDW4CommentPlacement@2@@Z
xdata	ENDS
;	COMDAT xdata
xdata	SEGMENT
$unwind$?dtor$0@?0??setComment@Value@Json@@QEAAXAEBV?$basic_string@DU?$char_traits@D@std@@V?$allocator@D@2@@std@@W4CommentPlacement@2@@Z@4HA DD 020601H
	DD	050023206H
xdata	ENDS
;	COMDAT xdata
xdata	SEGMENT
$ip2state$?setComment@Value@Json@@QEAAXAEBV?$basic_string@DU?$char_traits@D@std@@V?$allocator@D@2@@std@@W4CommentPlacement@2@@Z DD imagerel ?setComment@Value@Json@@QEAAXAEBV?$basic_string@DU?$char_traits@D@std@@V?$allocator@D@2@@std@@W4CommentPlacement@2@@Z+59
	DD	0ffffffffH
	DD	imagerel ?setComment@Value@Json@@QEAAXAEBV?$basic_string@DU?$char_traits@D@std@@V?$allocator@D@2@@std@@W4CommentPlacement@2@@Z+116
	DD	00H
xdata	ENDS
;	COMDAT xdata
xdata	SEGMENT
$stateUnwindMap$?setComment@Value@Json@@QEAAXAEBV?$basic_string@DU?$char_traits@D@std@@V?$allocator@D@2@@std@@W4CommentPlacement@2@@Z DD 0ffffffffH
	DD	imagerel ?dtor$0@?0??setComment@Value@Json@@QEAAXAEBV?$basic_string@DU?$char_traits@D@std@@V?$allocator@D@2@@std@@W4CommentPlacement@2@@Z@4HA
xdata	ENDS
;	COMDAT CONST
CONST	SEGMENT
$cppxdata$?setComment@Value@Json@@QEAAXAEBV?$basic_string@DU?$char_traits@D@std@@V?$allocator@D@2@@std@@W4CommentPlacement@2@@Z DD 019930522H
	DD	01H
	DD	imagerel $stateUnwindMap$?setComment@Value@Json@@QEAAXAEBV?$basic_string@DU?$char_traits@D@std@@V?$allocator@D@2@@std@@W4CommentPlacement@2@@Z
	DD	00H
	DD	00H
	DD	02H
	DD	imagerel $ip2state$?setComment@Value@Json@@QEAAXAEBV?$basic_string@DU?$char_traits@D@std@@V?$allocator@D@2@@std@@W4CommentPlacement@2@@Z
	DD	030H
	DD	00H
	DD	01H
CONST	ENDS
;	COMDAT xdata
xdata	SEGMENT
$unwind$?setComment@Value@Json@@QEAAXAEBV?$basic_string@DU?$char_traits@D@std@@V?$allocator@D@2@@std@@W4CommentPlacement@2@@Z DD 081e11H
	DD	0d641eH
	DD	0c5419H
	DD	0b3414H
	DD	070027206H
	DD	imagerel __CxxFrameHandler3
	DD	imagerel $cppxdata$?setComment@Value@Json@@QEAAXAEBV?$basic_string@DU?$char_traits@D@std@@V?$allocator@D@2@@std@@W4CommentPlacement@2@@Z
xdata	ENDS
;	COMDAT xdata
xdata	SEGMENT
$unwind$?lower_bound@?$_Tree@V?$_Tmap_traits@VCZString@Value@Json@@V23@U?$less@VCZString@Value@Json@@@std@@V?$allocator@U?$pair@$$CBVCZString@Value@Json@@V23@@std@@@5@$0A@@std@@@std@@QEAA?AV?$_Tree_iterator@V?$_Tree_val@U?$_Tree_simple_types@U?$pair@$$CBVCZString@Value@Json@@V23@@std@@@std@@@std@@@2@AEBVCZString@Value@Json@@@Z DD 020601H
	DD	030023206H
xdata	ENDS
;	COMDAT xdata
xdata	SEGMENT
$unwind$?find@?$_Tree@V?$_Tmap_traits@VCZString@Value@Json@@V23@U?$less@VCZString@Value@Json@@@std@@V?$allocator@U?$pair@$$CBVCZString@Value@Json@@V23@@std@@@5@$0A@@std@@@std@@QEAA?AV?$_Tree_iterator@V?$_Tree_val@U?$_Tree_simple_types@U?$pair@$$CBVCZString@Value@Json@@V23@@std@@@std@@@std@@@2@AEBVCZString@Value@Json@@@Z DD 060d01H
	DD	0a340dH
	DD	0e009320dH
	DD	060067007H
xdata	ENDS
;	COMDAT xdata
xdata	SEGMENT
$ip2state$?clear@?$_Tree@V?$_Tmap_traits@VCZString@Value@Json@@V23@U?$less@VCZString@Value@Json@@@std@@V?$allocator@U?$pair@$$CBVCZString@Value@Json@@V23@@std@@@5@$0A@@std@@@std@@QEAAXXZ DD imagerel ?clear@?$_Tree@V?$_Tmap_traits@VCZString@Value@Json@@V23@U?$less@VCZString@Value@Json@@@std@@V?$allocator@U?$pair@$$CBVCZString@Value@Json@@V23@@std@@@5@$0A@@std@@@std@@QEAAXXZ+30
	DD	0ffffffffH
xdata	ENDS
;	COMDAT CONST
CONST	SEGMENT
$cppxdata$?clear@?$_Tree@V?$_Tmap_traits@VCZString@Value@Json@@V23@U?$less@VCZString@Value@Json@@@std@@V?$allocator@U?$pair@$$CBVCZString@Value@Json@@V23@@std@@@5@$0A@@std@@@std@@QEAAXXZ DD 019930522H
	DD	00H
	DD	00H
	DD	00H
	DD	00H
	DD	01H
	DD	imagerel $ip2state$?clear@?$_Tree@V?$_Tmap_traits@VCZString@Value@Json@@V23@U?$less@VCZString@Value@Json@@@std@@V?$allocator@U?$pair@$$CBVCZString@Value@Json@@V23@@std@@@5@$0A@@std@@@std@@QEAAXXZ
	DD	020H
	DD	00H
	DD	05H
CONST	ENDS
;	COMDAT xdata
xdata	SEGMENT
$unwind$?clear@?$_Tree@V?$_Tmap_traits@VCZString@Value@Json@@V23@U?$less@VCZString@Value@Json@@@std@@V?$allocator@U?$pair@$$CBVCZString@Value@Json@@V23@@std@@@5@$0A@@std@@@std@@QEAAXXZ DD 041419H
	DD	083414H
	DD	070025206H
	DD	imagerel __CxxFrameHandler3
	DD	imagerel $cppxdata$?clear@?$_Tree@V?$_Tmap_traits@VCZString@Value@Json@@V23@U?$less@VCZString@Value@Json@@@std@@V?$allocator@U?$pair@$$CBVCZString@Value@Json@@V23@@std@@@5@$0A@@std@@@std@@QEAAXXZ
xdata	ENDS
;	COMDAT xdata
xdata	SEGMENT
$unwind$?end@?$_Tree@V?$_Tmap_traits@VCZString@Value@Json@@V23@U?$less@VCZString@Value@Json@@@std@@V?$allocator@U?$pair@$$CBVCZString@Value@Json@@V23@@std@@@5@$0A@@std@@@std@@QEAA?AV?$_Tree_iterator@V?$_Tree_val@U?$_Tree_simple_types@U?$pair@$$CBVCZString@Value@Json@@V23@@std@@@std@@@std@@@2@XZ DD 020601H
	DD	030023206H
xdata	ENDS
;	COMDAT xdata
xdata	SEGMENT
$unwind$?begin@?$_Tree@V?$_Tmap_traits@VCZString@Value@Json@@V23@U?$less@VCZString@Value@Json@@@std@@V?$allocator@U?$pair@$$CBVCZString@Value@Json@@V23@@std@@@5@$0A@@std@@@std@@QEAA?AV?$_Tree_iterator@V?$_Tree_val@U?$_Tree_simple_types@U?$pair@$$CBVCZString@Value@Json@@V23@@std@@@std@@@std@@@2@XZ DD 020601H
	DD	030023206H
xdata	ENDS
;	COMDAT xdata
xdata	SEGMENT
$ip2state$??1?$_Tree@V?$_Tmap_traits@VCZString@Value@Json@@V23@U?$less@VCZString@Value@Json@@@std@@V?$allocator@U?$pair@$$CBVCZString@Value@Json@@V23@@std@@@5@$0A@@std@@@std@@QEAA@XZ DD imagerel ??1?$_Tree@V?$_Tmap_traits@VCZString@Value@Json@@V23@U?$less@VCZString@Value@Json@@@std@@V?$allocator@U?$pair@$$CBVCZString@Value@Json@@V23@@std@@@5@$0A@@std@@@std@@QEAA@XZ+105
	DD	00H
xdata	ENDS
;	COMDAT xdata
xdata	SEGMENT
$stateUnwindMap$??1?$_Tree@V?$_Tmap_traits@VCZString@Value@Json@@V23@U?$less@VCZString@Value@Json@@@std@@V?$allocator@U?$pair@$$CBVCZString@Value@Json@@V23@@std@@@5@$0A@@std@@@std@@QEAA@XZ DD 0ffffffffH
	DD	imagerel __imp___std_terminate
xdata	ENDS
;	COMDAT CONST
CONST	SEGMENT
$cppxdata$??1?$_Tree@V?$_Tmap_traits@VCZString@Value@Json@@V23@U?$less@VCZString@Value@Json@@@std@@V?$allocator@U?$pair@$$CBVCZString@Value@Json@@V23@@std@@@5@$0A@@std@@@std@@QEAA@XZ DD 019930522H
	DD	01H
	DD	imagerel $stateUnwindMap$??1?$_Tree@V?$_Tmap_traits@VCZString@Value@Json@@V23@U?$less@VCZString@Value@Json@@@std@@V?$allocator@U?$pair@$$CBVCZString@Value@Json@@V23@@std@@@5@$0A@@std@@@std@@QEAA@XZ
	DD	00H
	DD	00H
	DD	01H
	DD	imagerel $ip2state$??1?$_Tree@V?$_Tmap_traits@VCZString@Value@Json@@V23@U?$less@VCZString@Value@Json@@@std@@V?$allocator@U?$pair@$$CBVCZString@Value@Json@@V23@@std@@@5@$0A@@std@@@std@@QEAA@XZ
	DD	020H
	DD	00H
	DD	05H
CONST	ENDS
;	COMDAT xdata
xdata	SEGMENT
$unwind$??1?$_Tree@V?$_Tmap_traits@VCZString@Value@Json@@V23@U?$less@VCZString@Value@Json@@@std@@V?$allocator@U?$pair@$$CBVCZString@Value@Json@@V23@@std@@@5@$0A@@std@@@std@@QEAA@XZ DD 041419H
	DD	0b3414H
	DD	070025206H
	DD	imagerel __CxxFrameHandler3
	DD	imagerel $cppxdata$??1?$_Tree@V?$_Tmap_traits@VCZString@Value@Json@@V23@U?$less@VCZString@Value@Json@@@std@@V?$allocator@U?$pair@$$CBVCZString@Value@Json@@V23@@std@@@5@$0A@@std@@@std@@QEAA@XZ
xdata	ENDS
;	COMDAT xdata
xdata	SEGMENT
$unwind$??0?$map@VCZString@Value@Json@@V23@U?$less@VCZString@Value@Json@@@std@@V?$allocator@U?$pair@$$CBVCZString@Value@Json@@V23@@std@@@5@@std@@QEAA@AEBV01@@Z DD 020601H
	DD	030023206H
xdata	ENDS
;	COMDAT xdata
xdata	SEGMENT
$unwind$??0?$map@VCZString@Value@Json@@V23@U?$less@VCZString@Value@Json@@@std@@V?$allocator@U?$pair@$$CBVCZString@Value@Json@@V23@@std@@@5@@std@@QEAA@XZ DD 020a01H
	DD	03006320aH
xdata	ENDS
;	COMDAT xdata
xdata	SEGMENT
$ip2state$??0?$vector@V?$basic_string@DU?$char_traits@D@std@@V?$allocator@D@2@@std@@V?$allocator@V?$basic_string@DU?$char_traits@D@std@@V?$allocator@D@2@@std@@@2@@std@@QEAA@$$QEAV01@@Z DD imagerel ??0?$vector@V?$basic_string@DU?$char_traits@D@std@@V?$allocator@D@2@@std@@V?$allocator@V?$basic_string@DU?$char_traits@D@std@@V?$allocator@D@2@@std@@@2@@std@@QEAA@$$QEAV01@@Z+43
	DD	0ffffffffH
xdata	ENDS
;	COMDAT CONST
CONST	SEGMENT
$cppxdata$??0?$vector@V?$basic_string@DU?$char_traits@D@std@@V?$allocator@D@2@@std@@V?$allocator@V?$basic_string@DU?$char_traits@D@std@@V?$allocator@D@2@@std@@@2@@std@@QEAA@$$QEAV01@@Z DD 019930522H
	DD	00H
	DD	00H
	DD	00H
	DD	00H
	DD	01H
	DD	imagerel $ip2state$??0?$vector@V?$basic_string@DU?$char_traits@D@std@@V?$allocator@D@2@@std@@V?$allocator@V?$basic_string@DU?$char_traits@D@std@@V?$allocator@D@2@@std@@@2@@std@@QEAA@$$QEAV01@@Z
	DD	020H
	DD	00H
	DD	05H
CONST	ENDS
;	COMDAT xdata
xdata	SEGMENT
$unwind$??0?$vector@V?$basic_string@DU?$char_traits@D@std@@V?$allocator@D@2@@std@@V?$allocator@V?$basic_string@DU?$char_traits@D@std@@V?$allocator@D@2@@std@@@2@@std@@QEAA@$$QEAV01@@Z DD 061919H
	DD	096419H
	DD	083414H
	DD	070025206H
	DD	imagerel __CxxFrameHandler3
	DD	imagerel $cppxdata$??0?$vector@V?$basic_string@DU?$char_traits@D@std@@V?$allocator@D@2@@std@@V?$allocator@V?$basic_string@DU?$char_traits@D@std@@V?$allocator@D@2@@std@@@2@@std@@QEAA@$$QEAV01@@Z
xdata	ENDS
;	COMDAT xdata
xdata	SEGMENT
$unwind$??0?$_Tree_iterator@V?$_Tree_val@U?$_Tree_simple_types@U?$pair@$$CBVCZString@Value@Json@@V23@@std@@@std@@@std@@@std@@QEAA@PEAU?$_Tree_node@U?$pair@$$CBVCZString@Value@Json@@V23@@std@@PEAX@1@PEBV?$_Tree_val@U?$_Tree_simple_types@U?$pair@$$CBVCZString@Value@Json@@V23@@std@@@std@@@1@@Z DD 020601H
	DD	030023206H
xdata	ENDS
;	COMDAT xdata
xdata	SEGMENT
$ip2state$??1?$_Tree_comp_alloc@V?$_Tmap_traits@VCZString@Value@Json@@V23@U?$less@VCZString@Value@Json@@@std@@V?$allocator@U?$pair@$$CBVCZString@Value@Json@@V23@@std@@@5@$0A@@std@@@std@@QEAA@XZ DD imagerel ??1?$_Tree_comp_alloc@V?$_Tmap_traits@VCZString@Value@Json@@V23@U?$less@VCZString@Value@Json@@@std@@V?$allocator@U?$pair@$$CBVCZString@Value@Json@@V23@@std@@@5@$0A@@std@@@std@@QEAA@XZ+21
	DD	00H
xdata	ENDS
;	COMDAT xdata
xdata	SEGMENT
$stateUnwindMap$??1?$_Tree_comp_alloc@V?$_Tmap_traits@VCZString@Value@Json@@V23@U?$less@VCZString@Value@Json@@@std@@V?$allocator@U?$pair@$$CBVCZString@Value@Json@@V23@@std@@@5@$0A@@std@@@std@@QEAA@XZ DD 0ffffffffH
	DD	imagerel __imp___std_terminate
xdata	ENDS
;	COMDAT CONST
CONST	SEGMENT
$cppxdata$??1?$_Tree_comp_alloc@V?$_Tmap_traits@VCZString@Value@Json@@V23@U?$less@VCZString@Value@Json@@@std@@V?$allocator@U?$pair@$$CBVCZString@Value@Json@@V23@@std@@@5@$0A@@std@@@std@@QEAA@XZ DD 019930522H
	DD	01H
	DD	imagerel $stateUnwindMap$??1?$_Tree_comp_alloc@V?$_Tmap_traits@VCZString@Value@Json@@V23@U?$less@VCZString@Value@Json@@@std@@V?$allocator@U?$pair@$$CBVCZString@Value@Json@@V23@@std@@@5@$0A@@std@@@std@@QEAA@XZ
	DD	00H
	DD	00H
	DD	01H
	DD	imagerel $ip2state$??1?$_Tree_comp_alloc@V?$_Tmap_traits@VCZString@Value@Json@@V23@U?$less@VCZString@Value@Json@@@std@@V?$allocator@U?$pair@$$CBVCZString@Value@Json@@V23@@std@@@5@$0A@@std@@@std@@QEAA@XZ
	DD	020H
	DD	00H
	DD	05H
CONST	ENDS
;	COMDAT xdata
xdata	SEGMENT
$unwind$??1?$_Tree_comp_alloc@V?$_Tmap_traits@VCZString@Value@Json@@V23@U?$less@VCZString@Value@Json@@@std@@V?$allocator@U?$pair@$$CBVCZString@Value@Json@@V23@@std@@@5@$0A@@std@@@std@@QEAA@XZ DD 010d19H
	DD	06204H
	DD	imagerel __CxxFrameHandler3
	DD	imagerel $cppxdata$??1?$_Tree_comp_alloc@V?$_Tmap_traits@VCZString@Value@Json@@V23@U?$less@VCZString@Value@Json@@@std@@V?$allocator@U?$pair@$$CBVCZString@Value@Json@@V23@@std@@@5@$0A@@std@@@std@@QEAA@XZ
xdata	ENDS
;	COMDAT xdata
xdata	SEGMENT
$unwind$?_Tidy@?$_Tree@V?$_Tmap_traits@VCZString@Value@Json@@V23@U?$less@VCZString@Value@Json@@@std@@V?$allocator@U?$pair@$$CBVCZString@Value@Json@@V23@@std@@@5@$0A@@std@@@std@@IEAAXXZ DD 040a01H
	DD	09340aH
	DD	07006320aH
xdata	ENDS
;	COMDAT xdata
xdata	SEGMENT
$ip2state$?_Erase@?$_Tree@V?$_Tmap_traits@VCZString@Value@Json@@V23@U?$less@VCZString@Value@Json@@@std@@V?$allocator@U?$pair@$$CBVCZString@Value@Json@@V23@@std@@@5@$0A@@std@@@std@@IEAAXPEAU?$_Tree_node@U?$pair@$$CBVCZString@Value@Json@@V23@@std@@PEAX@2@@Z DD imagerel ?_Erase@?$_Tree@V?$_Tmap_traits@VCZString@Value@Json@@V23@U?$less@VCZString@Value@Json@@@std@@V?$allocator@U?$pair@$$CBVCZString@Value@Json@@V23@@std@@@5@$0A@@std@@@std@@IEAAXPEAU?$_Tree_node@U?$pair@$$CBVCZString@Value@Json@@V23@@std@@PEAX@2@@Z+55
	DD	0ffffffffH
	DD	imagerel ?_Erase@?$_Tree@V?$_Tmap_traits@VCZString@Value@Json@@V23@U?$less@VCZString@Value@Json@@@std@@V?$allocator@U?$pair@$$CBVCZString@Value@Json@@V23@@std@@@5@$0A@@std@@@std@@IEAAXPEAU?$_Tree_node@U?$pair@$$CBVCZString@Value@Json@@V23@@std@@PEAX@2@@Z+101
	DD	00H
	DD	imagerel ?_Erase@?$_Tree@V?$_Tmap_traits@VCZString@Value@Json@@V23@U?$less@VCZString@Value@Json@@@std@@V?$allocator@U?$pair@$$CBVCZString@Value@Json@@V23@@std@@@5@$0A@@std@@@std@@IEAAXPEAU?$_Tree_node@U?$pair@$$CBVCZString@Value@Json@@V23@@std@@PEAX@2@@Z+119
	DD	0ffffffffH
xdata	ENDS
;	COMDAT xdata
xdata	SEGMENT
$stateUnwindMap$?_Erase@?$_Tree@V?$_Tmap_traits@VCZString@Value@Json@@V23@U?$less@VCZString@Value@Json@@@std@@V?$allocator@U?$pair@$$CBVCZString@Value@Json@@V23@@std@@@5@$0A@@std@@@std@@IEAAXPEAU?$_Tree_node@U?$pair@$$CBVCZString@Value@Json@@V23@@std@@PEAX@2@@Z DD 0ffffffffH
	DD	imagerel __imp___std_terminate
xdata	ENDS
;	COMDAT CONST
CONST	SEGMENT
$cppxdata$?_Erase@?$_Tree@V?$_Tmap_traits@VCZString@Value@Json@@V23@U?$less@VCZString@Value@Json@@@std@@V?$allocator@U?$pair@$$CBVCZString@Value@Json@@V23@@std@@@5@$0A@@std@@@std@@IEAAXPEAU?$_Tree_node@U?$pair@$$CBVCZString@Value@Json@@V23@@std@@PEAX@2@@Z DD 019930522H
	DD	01H
	DD	imagerel $stateUnwindMap$?_Erase@?$_Tree@V?$_Tmap_traits@VCZString@Value@Json@@V23@U?$less@VCZString@Value@Json@@@std@@V?$allocator@U?$pair@$$CBVCZString@Value@Json@@V23@@std@@@5@$0A@@std@@@std@@IEAAXPEAU?$_Tree_node@U?$pair@$$CBVCZString@Value@Json@@V23@@std@@PEAX@2@@Z
	DD	00H
	DD	00H
	DD	03H
	DD	imagerel $ip2state$?_Erase@?$_Tree@V?$_Tmap_traits@VCZString@Value@Json@@V23@U?$less@VCZString@Value@Json@@@std@@V?$allocator@U?$pair@$$CBVCZString@Value@Json@@V23@@std@@@5@$0A@@std@@@std@@IEAAXPEAU?$_Tree_node@U?$pair@$$CBVCZString@Value@Json@@V23@@std@@PEAX@2@@Z
	DD	020H
	DD	00H
	DD	01H
CONST	ENDS
;	COMDAT xdata
xdata	SEGMENT
$unwind$?_Erase@?$_Tree@V?$_Tmap_traits@VCZString@Value@Json@@V23@U?$less@VCZString@Value@Json@@@std@@V?$allocator@U?$pair@$$CBVCZString@Value@Json@@V23@@std@@@5@$0A@@std@@@std@@IEAAXPEAU?$_Tree_node@U?$pair@$$CBVCZString@Value@Json@@V23@@std@@PEAX@2@@Z DD 061911H
	DD	096419H
	DD	083414H
	DD	070025206H
	DD	imagerel __CxxFrameHandler3
	DD	imagerel $cppxdata$?_Erase@?$_Tree@V?$_Tmap_traits@VCZString@Value@Json@@V23@U?$less@VCZString@Value@Json@@@std@@V?$allocator@U?$pair@$$CBVCZString@Value@Json@@V23@@std@@@5@$0A@@std@@@std@@IEAAXPEAU?$_Tree_node@U?$pair@$$CBVCZString@Value@Json@@V23@@std@@PEAX@2@@Z
xdata	ENDS
;	COMDAT xdata
xdata	SEGMENT
$ip2state$?erase@?$_Tree@V?$_Tmap_traits@VCZString@Value@Json@@V23@U?$less@VCZString@Value@Json@@@std@@V?$allocator@U?$pair@$$CBVCZString@Value@Json@@V23@@std@@@5@$0A@@std@@@std@@QEAA?AV?$_Tree_iterator@V?$_Tree_val@U?$_Tree_simple_types@U?$pair@$$CBVCZString@Value@Json@@V23@@std@@@std@@@std@@@2@V?$_Tree_const_iterator@V?$_Tree_val@U?$_Tree_simple_types@U?$pair@$$CBVCZString@Value@Json@@V23@@std@@@std@@@std@@@2@0@Z DD imagerel ?erase@?$_Tree@V?$_Tmap_traits@VCZString@Value@Json@@V23@U?$less@VCZString@Value@Json@@@std@@V?$allocator@U?$pair@$$CBVCZString@Value@Json@@V23@@std@@@5@$0A@@std@@@std@@QEAA?AV?$_Tree_iterator@V?$_Tree_val@U?$_Tree_simple_types@U?$pair@$$CBVCZString@Value@Json@@V23@@std@@@std@@@std@@@2@V?$_Tree_const_iterator@V?$_Tree_val@U?$_Tree_simple_types@U?$pair@$$CBVCZString@Value@Json@@V23@@std@@@std@@@std@@@2@0@Z+111
	DD	00H
xdata	ENDS
;	COMDAT xdata
xdata	SEGMENT
$stateUnwindMap$?erase@?$_Tree@V?$_Tmap_traits@VCZString@Value@Json@@V23@U?$less@VCZString@Value@Json@@@std@@V?$allocator@U?$pair@$$CBVCZString@Value@Json@@V23@@std@@@5@$0A@@std@@@std@@QEAA?AV?$_Tree_iterator@V?$_Tree_val@U?$_Tree_simple_types@U?$pair@$$CBVCZString@Value@Json@@V23@@std@@@std@@@std@@@2@V?$_Tree_const_iterator@V?$_Tree_val@U?$_Tree_simple_types@U?$pair@$$CBVCZString@Value@Json@@V23@@std@@@std@@@std@@@2@0@Z DD 0ffffffffH
	DD	imagerel __imp___std_terminate
xdata	ENDS
;	COMDAT CONST
CONST	SEGMENT
$cppxdata$?erase@?$_Tree@V?$_Tmap_traits@VCZString@Value@Json@@V23@U?$less@VCZString@Value@Json@@@std@@V?$allocator@U?$pair@$$CBVCZString@Value@Json@@V23@@std@@@5@$0A@@std@@@std@@QEAA?AV?$_Tree_iterator@V?$_Tree_val@U?$_Tree_simple_types@U?$pair@$$CBVCZString@Value@Json@@V23@@std@@@std@@@std@@@2@V?$_Tree_const_iterator@V?$_Tree_val@U?$_Tree_simple_types@U?$pair@$$CBVCZString@Value@Json@@V23@@std@@@std@@@std@@@2@0@Z DD 019930522H
	DD	01H
	DD	imagerel $stateUnwindMap$?erase@?$_Tree@V?$_Tmap_traits@VCZString@Value@Json@@V23@U?$less@VCZString@Value@Json@@@std@@V?$allocator@U?$pair@$$CBVCZString@Value@Json@@V23@@std@@@5@$0A@@std@@@std@@QEAA?AV?$_Tree_iterator@V?$_Tree_val@U?$_Tree_simple_types@U?$pair@$$CBVCZString@Value@Json@@V23@@std@@@std@@@std@@@2@V?$_Tree_const_iterator@V?$_Tree_val@U?$_Tree_simple_types@U?$pair@$$CBVCZString@Value@Json@@V23@@std@@@std@@@std@@@2@0@Z
	DD	00H
	DD	00H
	DD	01H
	DD	imagerel $ip2state$?erase@?$_Tree@V?$_Tmap_traits@VCZString@Value@Json@@V23@U?$less@VCZString@Value@Json@@@std@@V?$allocator@U?$pair@$$CBVCZString@Value@Json@@V23@@std@@@5@$0A@@std@@@std@@QEAA?AV?$_Tree_iterator@V?$_Tree_val@U?$_Tree_simple_types@U?$pair@$$CBVCZString@Value@Json@@V23@@std@@@std@@@std@@@2@V?$_Tree_const_iterator@V?$_Tree_val@U?$_Tree_simple_types@U?$pair@$$CBVCZString@Value@Json@@V23@@std@@@std@@@std@@@2@0@Z
	DD	020H
	DD	00H
	DD	01H
CONST	ENDS
;	COMDAT xdata
xdata	SEGMENT
$unwind$?erase@?$_Tree@V?$_Tmap_traits@VCZString@Value@Json@@V23@U?$less@VCZString@Value@Json@@@std@@V?$allocator@U?$pair@$$CBVCZString@Value@Json@@V23@@std@@@5@$0A@@std@@@std@@QEAA?AV?$_Tree_iterator@V?$_Tree_val@U?$_Tree_simple_types@U?$pair@$$CBVCZString@Value@Json@@V23@@std@@@std@@@std@@@2@V?$_Tree_const_iterator@V?$_Tree_val@U?$_Tree_simple_types@U?$pair@$$CBVCZString@Value@Json@@V23@@std@@@std@@@std@@@2@0@Z DD 081e11H
	DD	0b741eH
	DD	0a6419H
	DD	093414H
	DD	0e0025206H
	DD	imagerel __CxxFrameHandler3
	DD	imagerel $cppxdata$?erase@?$_Tree@V?$_Tmap_traits@VCZString@Value@Json@@V23@U?$less@VCZString@Value@Json@@@std@@V?$allocator@U?$pair@$$CBVCZString@Value@Json@@V23@@std@@@5@$0A@@std@@@std@@QEAA?AV?$_Tree_iterator@V?$_Tree_val@U?$_Tree_simple_types@U?$pair@$$CBVCZString@Value@Json@@V23@@std@@@std@@@std@@@2@V?$_Tree_const_iterator@V?$_Tree_val@U?$_Tree_simple_types@U?$pair@$$CBVCZString@Value@Json@@V23@@std@@@std@@@std@@@2@0@Z
xdata	ENDS
;	COMDAT xdata
xdata	SEGMENT
$unwind$??0?$_Tree@V?$_Tmap_traits@VCZString@Value@Json@@V23@U?$less@VCZString@Value@Json@@@std@@V?$allocator@U?$pair@$$CBVCZString@Value@Json@@V23@@std@@@5@$0A@@std@@@std@@QEAA@AEBU?$less@VCZString@Value@Json@@@1@@Z DD 020a01H
	DD	03006320aH
xdata	ENDS
;	COMDAT xdata
xdata	SEGMENT
$unwind$?_Move_from@?$vector@V?$basic_string@DU?$char_traits@D@std@@V?$allocator@D@2@@std@@V?$allocator@V?$basic_string@DU?$char_traits@D@std@@V?$allocator@D@2@@std@@@2@@std@@AEAAX$$QEAV12@U?$integral_constant@_N$00@2@@Z DD 060f01H
	DD	07640fH
	DD	06340fH
	DD	0700b320fH
xdata	ENDS
;	COMDAT xdata
xdata	SEGMENT
$unwind$?_Swap_all@?$_Vector_alloc@U?$_Vec_base_types@V?$basic_string@DU?$char_traits@D@std@@V?$allocator@D@2@@std@@V?$allocator@V?$basic_string@DU?$char_traits@D@std@@V?$allocator@D@2@@std@@@2@@std@@@std@@QEAAXAEAV12@@Z DD 040a01H
	DD	06340aH
	DD	07006320aH
xdata	ENDS
;	COMDAT xdata
xdata	SEGMENT
$unwind$??0?$_Tree_const_iterator@V?$_Tree_val@U?$_Tree_simple_types@U?$pair@$$CBVCZString@Value@Json@@V23@@std@@@std@@@std@@@std@@QEAA@PEAU?$_Tree_node@U?$pair@$$CBVCZString@Value@Json@@V23@@std@@PEAX@1@PEBV?$_Tree_val@U?$_Tree_simple_types@U?$pair@$$CBVCZString@Value@Json@@V23@@std@@@std@@@1@@Z DD 020601H
	DD	030023206H
xdata	ENDS
;	COMDAT xdata
xdata	SEGMENT
$ip2state$?_Freeheadnode@?$_Tree_comp_alloc@V?$_Tmap_traits@VCZString@Value@Json@@V23@U?$less@VCZString@Value@Json@@@std@@V?$allocator@U?$pair@$$CBVCZString@Value@Json@@V23@@std@@@5@$0A@@std@@@std@@QEAAXPEAU?$_Tree_node@U?$pair@$$CBVCZString@Value@Json@@V23@@std@@PEAX@2@@Z DD imagerel ?_Freeheadnode@?$_Tree_comp_alloc@V?$_Tmap_traits@VCZString@Value@Json@@V23@U?$less@VCZString@Value@Json@@@std@@V?$allocator@U?$pair@$$CBVCZString@Value@Json@@V23@@std@@@5@$0A@@std@@@std@@QEAAXPEAU?$_Tree_node@U?$pair@$$CBVCZString@Value@Json@@V23@@std@@PEAX@2@@Z+21
	DD	00H
xdata	ENDS
;	COMDAT xdata
xdata	SEGMENT
$stateUnwindMap$?_Freeheadnode@?$_Tree_comp_alloc@V?$_Tmap_traits@VCZString@Value@Json@@V23@U?$less@VCZString@Value@Json@@@std@@V?$allocator@U?$pair@$$CBVCZString@Value@Json@@V23@@std@@@5@$0A@@std@@@std@@QEAAXPEAU?$_Tree_node@U?$pair@$$CBVCZString@Value@Json@@V23@@std@@PEAX@2@@Z DD 0ffffffffH
	DD	imagerel __imp___std_terminate
xdata	ENDS
;	COMDAT CONST
CONST	SEGMENT
$cppxdata$?_Freeheadnode@?$_Tree_comp_alloc@V?$_Tmap_traits@VCZString@Value@Json@@V23@U?$less@VCZString@Value@Json@@@std@@V?$allocator@U?$pair@$$CBVCZString@Value@Json@@V23@@std@@@5@$0A@@std@@@std@@QEAAXPEAU?$_Tree_node@U?$pair@$$CBVCZString@Value@Json@@V23@@std@@PEAX@2@@Z DD 019930522H
	DD	01H
	DD	imagerel $stateUnwindMap$?_Freeheadnode@?$_Tree_comp_alloc@V?$_Tmap_traits@VCZString@Value@Json@@V23@U?$less@VCZString@Value@Json@@@std@@V?$allocator@U?$pair@$$CBVCZString@Value@Json@@V23@@std@@@5@$0A@@std@@@std@@QEAAXPEAU?$_Tree_node@U?$pair@$$CBVCZString@Value@Json@@V23@@std@@PEAX@2@@Z
	DD	00H
	DD	00H
	DD	01H
	DD	imagerel $ip2state$?_Freeheadnode@?$_Tree_comp_alloc@V?$_Tmap_traits@VCZString@Value@Json@@V23@U?$less@VCZString@Value@Json@@@std@@V?$allocator@U?$pair@$$CBVCZString@Value@Json@@V23@@std@@@5@$0A@@std@@@std@@QEAAXPEAU?$_Tree_node@U?$pair@$$CBVCZString@Value@Json@@V23@@std@@PEAX@2@@Z
	DD	020H
	DD	00H
	DD	01H
CONST	ENDS
;	COMDAT xdata
xdata	SEGMENT
$unwind$?_Freeheadnode@?$_Tree_comp_alloc@V?$_Tmap_traits@VCZString@Value@Json@@V23@U?$less@VCZString@Value@Json@@@std@@V?$allocator@U?$pair@$$CBVCZString@Value@Json@@V23@@std@@@5@$0A@@std@@@std@@QEAAXPEAU?$_Tree_node@U?$pair@$$CBVCZString@Value@Json@@V23@@std@@PEAX@2@@Z DD 010d11H
	DD	06204H
	DD	imagerel __CxxFrameHandler3
	DD	imagerel $cppxdata$?_Freeheadnode@?$_Tree_comp_alloc@V?$_Tmap_traits@VCZString@Value@Json@@V23@U?$less@VCZString@Value@Json@@@std@@V?$allocator@U?$pair@$$CBVCZString@Value@Json@@V23@@std@@@5@$0A@@std@@@std@@QEAAXPEAU?$_Tree_node@U?$pair@$$CBVCZString@Value@Json@@V23@@std@@PEAX@2@@Z
xdata	ENDS
;	COMDAT xdata
xdata	SEGMENT
$unwind$??0?$_Tree_comp_alloc@V?$_Tmap_traits@VCZString@Value@Json@@V23@U?$less@VCZString@Value@Json@@@std@@V?$allocator@U?$pair@$$CBVCZString@Value@Json@@V23@@std@@@5@$0A@@std@@@std@@QEAA@AEBU?$less@VCZString@Value@Json@@@1@@Z DD 020a01H
	DD	03006320aH
xdata	ENDS
;	COMDAT xdata
xdata	SEGMENT
$ip2state$?erase@?$_Tree@V?$_Tmap_traits@VCZString@Value@Json@@V23@U?$less@VCZString@Value@Json@@@std@@V?$allocator@U?$pair@$$CBVCZString@Value@Json@@V23@@std@@@5@$0A@@std@@@std@@QEAA?AV?$_Tree_iterator@V?$_Tree_val@U?$_Tree_simple_types@U?$pair@$$CBVCZString@Value@Json@@V23@@std@@@std@@@std@@@2@V?$_Tree_const_iterator@V?$_Tree_val@U?$_Tree_simple_types@U?$pair@$$CBVCZString@Value@Json@@V23@@std@@@std@@@std@@@2@@Z DD imagerel ?erase@?$_Tree@V?$_Tmap_traits@VCZString@Value@Json@@V23@U?$less@VCZString@Value@Json@@@std@@V?$allocator@U?$pair@$$CBVCZString@Value@Json@@V23@@std@@@5@$0A@@std@@@std@@QEAA?AV?$_Tree_iterator@V?$_Tree_val@U?$_Tree_simple_types@U?$pair@$$CBVCZString@Value@Json@@V23@@std@@@std@@@std@@@2@V?$_Tree_const_iterator@V?$_Tree_val@U?$_Tree_simple_types@U?$pair@$$CBVCZString@Value@Json@@V23@@std@@@std@@@std@@@2@@Z+163
	DD	00H
	DD	imagerel ?erase@?$_Tree@V?$_Tmap_traits@VCZString@Value@Json@@V23@U?$less@VCZString@Value@Json@@@std@@V?$allocator@U?$pair@$$CBVCZString@Value@Json@@V23@@std@@@5@$0A@@std@@@std@@QEAA?AV?$_Tree_iterator@V?$_Tree_val@U?$_Tree_simple_types@U?$pair@$$CBVCZString@Value@Json@@V23@@std@@@std@@@std@@@2@V?$_Tree_const_iterator@V?$_Tree_val@U?$_Tree_simple_types@U?$pair@$$CBVCZString@Value@Json@@V23@@std@@@std@@@std@@@2@@Z+181
	DD	0ffffffffH
xdata	ENDS
;	COMDAT xdata
xdata	SEGMENT
$stateUnwindMap$?erase@?$_Tree@V?$_Tmap_traits@VCZString@Value@Json@@V23@U?$less@VCZString@Value@Json@@@std@@V?$allocator@U?$pair@$$CBVCZString@Value@Json@@V23@@std@@@5@$0A@@std@@@std@@QEAA?AV?$_Tree_iterator@V?$_Tree_val@U?$_Tree_simple_types@U?$pair@$$CBVCZString@Value@Json@@V23@@std@@@std@@@std@@@2@V?$_Tree_const_iterator@V?$_Tree_val@U?$_Tree_simple_types@U?$pair@$$CBVCZString@Value@Json@@V23@@std@@@std@@@std@@@2@@Z DD 0ffffffffH
	DD	imagerel __imp___std_terminate
xdata	ENDS
;	COMDAT CONST
CONST	SEGMENT
$cppxdata$?erase@?$_Tree@V?$_Tmap_traits@VCZString@Value@Json@@V23@U?$less@VCZString@Value@Json@@@std@@V?$allocator@U?$pair@$$CBVCZString@Value@Json@@V23@@std@@@5@$0A@@std@@@std@@QEAA?AV?$_Tree_iterator@V?$_Tree_val@U?$_Tree_simple_types@U?$pair@$$CBVCZString@Value@Json@@V23@@std@@@std@@@std@@@2@V?$_Tree_const_iterator@V?$_Tree_val@U?$_Tree_simple_types@U?$pair@$$CBVCZString@Value@Json@@V23@@std@@@std@@@std@@@2@@Z DD 019930522H
	DD	01H
	DD	imagerel $stateUnwindMap$?erase@?$_Tree@V?$_Tmap_traits@VCZString@Value@Json@@V23@U?$less@VCZString@Value@Json@@@std@@V?$allocator@U?$pair@$$CBVCZString@Value@Json@@V23@@std@@@5@$0A@@std@@@std@@QEAA?AV?$_Tree_iterator@V?$_Tree_val@U?$_Tree_simple_types@U?$pair@$$CBVCZString@Value@Json@@V23@@std@@@std@@@std@@@2@V?$_Tree_const_iterator@V?$_Tree_val@U?$_Tree_simple_types@U?$pair@$$CBVCZString@Value@Json@@V23@@std@@@std@@@std@@@2@@Z
	DD	00H
	DD	00H
	DD	02H
	DD	imagerel $ip2state$?erase@?$_Tree@V?$_Tmap_traits@VCZString@Value@Json@@V23@U?$less@VCZString@Value@Json@@@std@@V?$allocator@U?$pair@$$CBVCZString@Value@Json@@V23@@std@@@5@$0A@@std@@@std@@QEAA?AV?$_Tree_iterator@V?$_Tree_val@U?$_Tree_simple_types@U?$pair@$$CBVCZString@Value@Json@@V23@@std@@@std@@@std@@@2@V?$_Tree_const_iterator@V?$_Tree_val@U?$_Tree_simple_types@U?$pair@$$CBVCZString@Value@Json@@V23@@std@@@std@@@std@@@2@@Z
	DD	020H
	DD	00H
	DD	01H
CONST	ENDS
;	COMDAT xdata
xdata	SEGMENT
$unwind$?erase@?$_Tree@V?$_Tmap_traits@VCZString@Value@Json@@V23@U?$less@VCZString@Value@Json@@@std@@V?$allocator@U?$pair@$$CBVCZString@Value@Json@@V23@@std@@@5@$0A@@std@@@std@@QEAA?AV?$_Tree_iterator@V?$_Tree_val@U?$_Tree_simple_types@U?$pair@$$CBVCZString@Value@Json@@V23@@std@@@std@@@std@@@2@V?$_Tree_const_iterator@V?$_Tree_val@U?$_Tree_simple_types@U?$pair@$$CBVCZString@Value@Json@@V23@@std@@@std@@@std@@@2@@Z DD 081e11H
	DD	0a641eH
	DD	095419H
	DD	083414H
	DD	070025206H
	DD	imagerel __CxxFrameHandler3
	DD	imagerel $cppxdata$?erase@?$_Tree@V?$_Tmap_traits@VCZString@Value@Json@@V23@U?$less@VCZString@Value@Json@@@std@@V?$allocator@U?$pair@$$CBVCZString@Value@Json@@V23@@std@@@5@$0A@@std@@@std@@QEAA?AV?$_Tree_iterator@V?$_Tree_val@U?$_Tree_simple_types@U?$pair@$$CBVCZString@Value@Json@@V23@@std@@@std@@@std@@@2@V?$_Tree_const_iterator@V?$_Tree_val@U?$_Tree_simple_types@U?$pair@$$CBVCZString@Value@Json@@V23@@std@@@std@@@std@@@2@@Z
xdata	ENDS
;	COMDAT xdata
xdata	SEGMENT
$unwind$??0?$_Tree_unchecked_const_iterator@V?$_Tree_val@U?$_Tree_simple_types@U?$pair@$$CBVCZString@Value@Json@@V23@@std@@@std@@@std@@U_Iterator_base0@2@@std@@QEAA@PEAU?$_Tree_node@U?$pair@$$CBVCZString@Value@Json@@V23@@std@@PEAX@1@PEBV?$_Tree_val@U?$_Tree_simple_types@U?$pair@$$CBVCZString@Value@Json@@V23@@std@@@std@@@1@@Z DD 020601H
	DD	030023206H
xdata	ENDS
;	COMDAT xdata
xdata	SEGMENT
$chain$2$?_Extract@?$_Tree_val@U?$_Tree_simple_types@U?$pair@$$CBVCZString@Value@Json@@V23@@std@@@std@@@std@@QEAAPEAU?$_Tree_node@U?$pair@$$CBVCZString@Value@Json@@V23@@std@@PEAX@2@V?$_Tree_const_iterator@V?$_Tree_val@U?$_Tree_simple_types@U?$pair@$$CBVCZString@Value@Json@@V23@@std@@@std@@@std@@@2@@Z DD 021H
	DD	imagerel $LN132
	DD	imagerel $LN132+15
	DD	imagerel $unwind$?_Extract@?$_Tree_val@U?$_Tree_simple_types@U?$pair@$$CBVCZString@Value@Json@@V23@@std@@@std@@@std@@QEAAPEAU?$_Tree_node@U?$pair@$$CBVCZString@Value@Json@@V23@@std@@PEAX@2@V?$_Tree_const_iterator@V?$_Tree_val@U?$_Tree_simple_types@U?$pair@$$CBVCZString@Value@Json@@V23@@std@@@std@@@std@@@2@@Z
xdata	ENDS
;	COMDAT xdata
xdata	SEGMENT
$chain$1$?_Extract@?$_Tree_val@U?$_Tree_simple_types@U?$pair@$$CBVCZString@Value@Json@@V23@@std@@@std@@@std@@QEAAPEAU?$_Tree_node@U?$pair@$$CBVCZString@Value@Json@@V23@@std@@PEAX@2@V?$_Tree_const_iterator@V?$_Tree_val@U?$_Tree_simple_types@U?$pair@$$CBVCZString@Value@Json@@V23@@std@@@std@@@std@@@2@@Z DD 045b21H
	DD	06345bH
	DD	077405H
	DD	imagerel $LN132
	DD	imagerel $LN132+15
	DD	imagerel $unwind$?_Extract@?$_Tree_val@U?$_Tree_simple_types@U?$pair@$$CBVCZString@Value@Json@@V23@@std@@@std@@@std@@QEAAPEAU?$_Tree_node@U?$pair@$$CBVCZString@Value@Json@@V23@@std@@PEAX@2@V?$_Tree_const_iterator@V?$_Tree_val@U?$_Tree_simple_types@U?$pair@$$CBVCZString@Value@Json@@V23@@std@@@std@@@std@@@2@@Z
xdata	ENDS
;	COMDAT xdata
xdata	SEGMENT
$unwind$?_Extract@?$_Tree_val@U?$_Tree_simple_types@U?$pair@$$CBVCZString@Value@Json@@V23@@std@@@std@@@std@@QEAAPEAU?$_Tree_node@U?$pair@$$CBVCZString@Value@Json@@V23@@std@@PEAX@2@V?$_Tree_const_iterator@V?$_Tree_val@U?$_Tree_simple_types@U?$pair@$$CBVCZString@Value@Json@@V23@@std@@@std@@@std@@@2@@Z DD 040b01H
	DD	08640bH
	DD	0e007320bH
xdata	ENDS
;	COMDAT xdata
xdata	SEGMENT
$unwind$?_Construct@?$_Tree_comp_alloc@V?$_Tmap_traits@VCZString@Value@Json@@V23@U?$less@VCZString@Value@Json@@@std@@V?$allocator@U?$pair@$$CBVCZString@Value@Json@@V23@@std@@@5@$0A@@std@@@std@@QEAAXXZ DD 020601H
	DD	030023206H
xdata	ENDS
;	COMDAT xdata
xdata	SEGMENT
$unwind$?_Buyheadnode@?$_Tree_comp_alloc@V?$_Tmap_traits@VCZString@Value@Json@@V23@U?$less@VCZString@Value@Json@@@std@@V?$allocator@U?$pair@$$CBVCZString@Value@Json@@V23@@std@@@5@$0A@@std@@@std@@QEAAPEAU?$_Tree_node@U?$pair@$$CBVCZString@Value@Json@@V23@@std@@PEAX@2@XZ DD 020601H
	DD	030023206H
xdata	ENDS
;	COMDAT xdata
xdata	SEGMENT
$unwind$?allocate@?$allocator@U?$_Tree_node@U?$pair@$$CBVCZString@Value@Json@@V23@@std@@PEAX@std@@@std@@QEAAPEAU?$_Tree_node@U?$pair@$$CBVCZString@Value@Json@@V23@@std@@PEAX@2@_K@Z DD 010401H
	DD	04204H
xdata	ENDS
;	COMDAT xdata
xdata	SEGMENT
$ip2state$??$?0AEAVCZString@Value@Json@@AEBV12@$0A@@?$pair@$$CBVCZString@Value@Json@@V23@@std@@QEAA@AEAVCZString@Value@Json@@AEBV34@@Z DD imagerel ??$?0AEAVCZString@Value@Json@@AEBV12@$0A@@?$pair@$$CBVCZString@Value@Json@@V23@@std@@QEAA@AEAVCZString@Value@Json@@AEBV34@@Z+56
	DD	0ffffffffH
	DD	imagerel ??$?0AEAVCZString@Value@Json@@AEBV12@$0A@@?$pair@$$CBVCZString@Value@Json@@V23@@std@@QEAA@AEAVCZString@Value@Json@@AEBV34@@Z+100
	DD	00H
xdata	ENDS
;	COMDAT xdata
xdata	SEGMENT
$stateUnwindMap$??$?0AEAVCZString@Value@Json@@AEBV12@$0A@@?$pair@$$CBVCZString@Value@Json@@V23@@std@@QEAA@AEAVCZString@Value@Json@@AEBV34@@Z DD 0ffffffffH
	DD	imagerel ?dtor$0@?0???$?0AEAVCZString@Value@Json@@AEBV12@$0A@@?$pair@$$CBVCZString@Value@Json@@V23@@std@@QEAA@AEAVCZString@Value@Json@@AEBV34@@Z@4HA
xdata	ENDS
;	COMDAT CONST
CONST	SEGMENT
$cppxdata$??$?0AEAVCZString@Value@Json@@AEBV12@$0A@@?$pair@$$CBVCZString@Value@Json@@V23@@std@@QEAA@AEAVCZString@Value@Json@@AEBV34@@Z DD 019930522H
	DD	01H
	DD	imagerel $stateUnwindMap$??$?0AEAVCZString@Value@Json@@AEBV12@$0A@@?$pair@$$CBVCZString@Value@Json@@V23@@std@@QEAA@AEAVCZString@Value@Json@@AEBV34@@Z
	DD	00H
	DD	00H
	DD	02H
	DD	imagerel $ip2state$??$?0AEAVCZString@Value@Json@@AEBV12@$0A@@?$pair@$$CBVCZString@Value@Json@@V23@@std@@QEAA@AEAVCZString@Value@Json@@AEBV34@@Z
	DD	020H
	DD	00H
	DD	01H
CONST	ENDS
;	COMDAT xdata
xdata	SEGMENT
$unwind$??$?0AEAVCZString@Value@Json@@AEBV12@$0A@@?$pair@$$CBVCZString@Value@Json@@V23@@std@@QEAA@AEAVCZString@Value@Json@@AEBV34@@Z DD 041811H
	DD	093418H
	DD	07006520aH
	DD	imagerel __CxxFrameHandler3
	DD	imagerel $cppxdata$??$?0AEAVCZString@Value@Json@@AEBV12@$0A@@?$pair@$$CBVCZString@Value@Json@@V23@@std@@QEAA@AEAVCZString@Value@Json@@AEBV34@@Z
xdata	ENDS
;	COMDAT xdata
xdata	SEGMENT
$unwind$??$insert@AEAU?$pair@$$CBVCZString@Value@Json@@V23@@std@@X@?$map@VCZString@Value@Json@@V23@U?$less@VCZString@Value@Json@@@std@@V?$allocator@U?$pair@$$CBVCZString@Value@Json@@V23@@std@@@5@@std@@QEAA?AV?$_Tree_iterator@V?$_Tree_val@U?$_Tree_simple_types@U?$pair@$$CBVCZString@Value@Json@@V23@@std@@@std@@@std@@@1@V?$_Tree_const_iterator@V?$_Tree_val@U?$_Tree_simple_types@U?$pair@$$CBVCZString@Value@Json@@V23@@std@@@std@@@std@@@1@AEAU?$pair@$$CBVCZString@Value@Json@@V23@@1@@Z DD 060f01H
	DD	09640fH
	DD	08340fH
	DD	0700b520fH
xdata	ENDS
;	COMDAT xdata
xdata	SEGMENT
$ip2state$??$?0PEBDX@?$basic_string@DU?$char_traits@D@std@@V?$allocator@D@2@@std@@QEAA@PEBD0AEBV?$allocator@D@1@@Z DD imagerel ??$?0PEBDX@?$basic_string@DU?$char_traits@D@std@@V?$allocator@D@2@@std@@QEAA@PEBD0AEBV?$allocator@D@1@@Z+41
	DD	0ffffffffH
	DD	imagerel ??$?0PEBDX@?$basic_string@DU?$char_traits@D@std@@V?$allocator@D@2@@std@@QEAA@PEBD0AEBV?$allocator@D@1@@Z+50
	DD	00H
	DD	imagerel ??$?0PEBDX@?$basic_string@DU?$char_traits@D@std@@V?$allocator@D@2@@std@@QEAA@PEBD0AEBV?$allocator@D@1@@Z+76
	DD	0ffffffffH
xdata	ENDS
;	COMDAT xdata
xdata	SEGMENT
$stateUnwindMap$??$?0PEBDX@?$basic_string@DU?$char_traits@D@std@@V?$allocator@D@2@@std@@QEAA@PEBD0AEBV?$allocator@D@1@@Z DD 0ffffffffH
	DD	imagerel ?dtor$0@?0???$?0PEBDX@?$basic_string@DU?$char_traits@D@std@@V?$allocator@D@2@@std@@QEAA@PEBD0AEBV?$allocator@D@1@@Z@4HA
xdata	ENDS
;	COMDAT CONST
CONST	SEGMENT
$cppxdata$??$?0PEBDX@?$basic_string@DU?$char_traits@D@std@@V?$allocator@D@2@@std@@QEAA@PEBD0AEBV?$allocator@D@1@@Z DD 019930522H
	DD	01H
	DD	imagerel $stateUnwindMap$??$?0PEBDX@?$basic_string@DU?$char_traits@D@std@@V?$allocator@D@2@@std@@QEAA@PEBD0AEBV?$allocator@D@1@@Z
	DD	00H
	DD	00H
	DD	03H
	DD	imagerel $ip2state$??$?0PEBDX@?$basic_string@DU?$char_traits@D@std@@V?$allocator@D@2@@std@@QEAA@PEBD0AEBV?$allocator@D@1@@Z
	DD	020H
	DD	00H
	DD	01H
CONST	ENDS
;	COMDAT xdata
xdata	SEGMENT
$unwind$??$?0PEBDX@?$basic_string@DU?$char_traits@D@std@@V?$allocator@D@2@@std@@QEAA@PEBD0AEBV?$allocator@D@1@@Z DD 061d11H
	DD	0a641dH
	DD	093418H
	DD	07006520aH
	DD	imagerel __CxxFrameHandler3
	DD	imagerel $cppxdata$??$?0PEBDX@?$basic_string@DU?$char_traits@D@std@@V?$allocator@D@2@@std@@QEAA@PEBD0AEBV?$allocator@D@1@@Z
xdata	ENDS
;	COMDAT xdata
xdata	SEGMENT
$unwind$?catch$1@?0???$?0V?$allocator@U?$_Tree_node@U?$pair@$$CBVCZString@Value@Json@@V23@@std@@PEAX@std@@@std@@@?$_Tree@V?$_Tmap_traits@VCZString@Value@Json@@V23@U?$less@VCZString@Value@Json@@@std@@V?$allocator@U?$pair@$$CBVCZString@Value@Json@@V23@@std@@@5@$0A@@std@@@std@@QEAA@AEBV01@$$QEAV?$allocator@U?$_Tree_node@U?$pair@$$CBVCZString@Value@Json@@V23@@std@@PEAX@std@@@1@@Z@4HA DD 020a19H
	DD	05006320aH
	DD	imagerel __CxxFrameHandler3
	DD	imagerel $cppxdata$??$?0V?$allocator@U?$_Tree_node@U?$pair@$$CBVCZString@Value@Json@@V23@@std@@PEAX@std@@@std@@@?$_Tree@V?$_Tmap_traits@VCZString@Value@Json@@V23@U?$less@VCZString@Value@Json@@@std@@V?$allocator@U?$pair@$$CBVCZString@Value@Json@@V23@@std@@@5@$0A@@std@@@std@@QEAA@AEBV01@$$QEAV?$allocator@U?$_Tree_node@U?$pair@$$CBVCZString@Value@Json@@V23@@std@@PEAX@std@@@1@@Z
xdata	ENDS
;	COMDAT xdata
xdata	SEGMENT
$ip2state$??$?0V?$allocator@U?$_Tree_node@U?$pair@$$CBVCZString@Value@Json@@V23@@std@@PEAX@std@@@std@@@?$_Tree@V?$_Tmap_traits@VCZString@Value@Json@@V23@U?$less@VCZString@Value@Json@@@std@@V?$allocator@U?$pair@$$CBVCZString@Value@Json@@V23@@std@@@5@$0A@@std@@@std@@QEAA@AEBV01@$$QEAV?$allocator@U?$_Tree_node@U?$pair@$$CBVCZString@Value@Json@@V23@@std@@PEAX@std@@@1@@Z DD imagerel ??$?0V?$allocator@U?$_Tree_node@U?$pair@$$CBVCZString@Value@Json@@V23@@std@@PEAX@std@@@std@@@?$_Tree@V?$_Tmap_traits@VCZString@Value@Json@@V23@U?$less@VCZString@Value@Json@@@std@@V?$allocator@U?$pair@$$CBVCZString@Value@Json@@V23@@std@@@5@$0A@@std@@@std@@QEAA@AEBV01@$$QEAV?$allocator@U?$_Tree_node@U?$pair@$$CBVCZString@Value@Json@@V23@@std@@PEAX@std@@@1@@Z+44
	DD	0ffffffffH
	DD	imagerel ??$?0V?$allocator@U?$_Tree_node@U?$pair@$$CBVCZString@Value@Json@@V23@@std@@PEAX@std@@@std@@@?$_Tree@V?$_Tmap_traits@VCZString@Value@Json@@V23@U?$less@VCZString@Value@Json@@@std@@V?$allocator@U?$pair@$$CBVCZString@Value@Json@@V23@@std@@@5@$0A@@std@@@std@@QEAA@AEBV01@$$QEAV?$allocator@U?$_Tree_node@U?$pair@$$CBVCZString@Value@Json@@V23@@std@@PEAX@std@@@1@@Z+74
	DD	01H
	DD	imagerel ?catch$1@?0???$?0V?$allocator@U?$_Tree_node@U?$pair@$$CBVCZString@Value@Json@@V23@@std@@PEAX@std@@@std@@@?$_Tree@V?$_Tmap_traits@VCZString@Value@Json@@V23@U?$less@VCZString@Value@Json@@@std@@V?$allocator@U?$pair@$$CBVCZString@Value@Json@@V23@@std@@@5@$0A@@std@@@std@@QEAA@AEBV01@$$QEAV?$allocator@U?$_Tree_node@U?$pair@$$CBVCZString@Value@Json@@V23@@std@@PEAX@std@@@1@@Z@4HA+26
	DD	02H
xdata	ENDS
;	COMDAT xdata
xdata	SEGMENT
$handlerMap$0$??$?0V?$allocator@U?$_Tree_node@U?$pair@$$CBVCZString@Value@Json@@V23@@std@@PEAX@std@@@std@@@?$_Tree@V?$_Tmap_traits@VCZString@Value@Json@@V23@U?$less@VCZString@Value@Json@@@std@@V?$allocator@U?$pair@$$CBVCZString@Value@Json@@V23@@std@@@5@$0A@@std@@@std@@QEAA@AEBV01@$$QEAV?$allocator@U?$_Tree_node@U?$pair@$$CBVCZString@Value@Json@@V23@@std@@PEAX@std@@@1@@Z DD 040H
	DD	00H
	DD	00H
	DD	imagerel ?catch$1@?0???$?0V?$allocator@U?$_Tree_node@U?$pair@$$CBVCZString@Value@Json@@V23@@std@@PEAX@std@@@std@@@?$_Tree@V?$_Tmap_traits@VCZString@Value@Json@@V23@U?$less@VCZString@Value@Json@@@std@@V?$allocator@U?$pair@$$CBVCZString@Value@Json@@V23@@std@@@5@$0A@@std@@@std@@QEAA@AEBV01@$$QEAV?$allocator@U?$_Tree_node@U?$pair@$$CBVCZString@Value@Json@@V23@@std@@PEAX@std@@@1@@Z@4HA
	DD	038H
xdata	ENDS
;	COMDAT xdata
xdata	SEGMENT
$tryMap$??$?0V?$allocator@U?$_Tree_node@U?$pair@$$CBVCZString@Value@Json@@V23@@std@@PEAX@std@@@std@@@?$_Tree@V?$_Tmap_traits@VCZString@Value@Json@@V23@U?$less@VCZString@Value@Json@@@std@@V?$allocator@U?$pair@$$CBVCZString@Value@Json@@V23@@std@@@5@$0A@@std@@@std@@QEAA@AEBV01@$$QEAV?$allocator@U?$_Tree_node@U?$pair@$$CBVCZString@Value@Json@@V23@@std@@PEAX@std@@@1@@Z DD 01H
	DD	01H
	DD	02H
	DD	01H
	DD	imagerel $handlerMap$0$??$?0V?$allocator@U?$_Tree_node@U?$pair@$$CBVCZString@Value@Json@@V23@@std@@PEAX@std@@@std@@@?$_Tree@V?$_Tmap_traits@VCZString@Value@Json@@V23@U?$less@VCZString@Value@Json@@@std@@V?$allocator@U?$pair@$$CBVCZString@Value@Json@@V23@@std@@@5@$0A@@std@@@std@@QEAA@AEBV01@$$QEAV?$allocator@U?$_Tree_node@U?$pair@$$CBVCZString@Value@Json@@V23@@std@@PEAX@std@@@1@@Z
xdata	ENDS
;	COMDAT xdata
xdata	SEGMENT
$stateUnwindMap$??$?0V?$allocator@U?$_Tree_node@U?$pair@$$CBVCZString@Value@Json@@V23@@std@@PEAX@std@@@std@@@?$_Tree@V?$_Tmap_traits@VCZString@Value@Json@@V23@U?$less@VCZString@Value@Json@@@std@@V?$allocator@U?$pair@$$CBVCZString@Value@Json@@V23@@std@@@5@$0A@@std@@@std@@QEAA@AEBV01@$$QEAV?$allocator@U?$_Tree_node@U?$pair@$$CBVCZString@Value@Json@@V23@@std@@PEAX@std@@@1@@Z DD 0ffffffffH
	DD	imagerel ?dtor$0@?0???$?0V?$allocator@U?$_Tree_node@U?$pair@$$CBVCZString@Value@Json@@V23@@std@@PEAX@std@@@std@@@?$_Tree@V?$_Tmap_traits@VCZString@Value@Json@@V23@U?$less@VCZString@Value@Json@@@std@@V?$allocator@U?$pair@$$CBVCZString@Value@Json@@V23@@std@@@5@$0A@@std@@@std@@QEAA@AEBV01@$$QEAV?$allocator@U?$_Tree_node@U?$pair@$$CBVCZString@Value@Json@@V23@@std@@PEAX@std@@@1@@Z@4HA
	DD	00H
	DD	00H
	DD	00H
	DD	00H
xdata	ENDS
;	COMDAT CONST
CONST	SEGMENT
$cppxdata$??$?0V?$allocator@U?$_Tree_node@U?$pair@$$CBVCZString@Value@Json@@V23@@std@@PEAX@std@@@std@@@?$_Tree@V?$_Tmap_traits@VCZString@Value@Json@@V23@U?$less@VCZString@Value@Json@@@std@@V?$allocator@U?$pair@$$CBVCZString@Value@Json@@V23@@std@@@5@$0A@@std@@@std@@QEAA@AEBV01@$$QEAV?$allocator@U?$_Tree_node@U?$pair@$$CBVCZString@Value@Json@@V23@@std@@PEAX@std@@@1@@Z DD 019930522H
	DD	03H
	DD	imagerel $stateUnwindMap$??$?0V?$allocator@U?$_Tree_node@U?$pair@$$CBVCZString@Value@Json@@V23@@std@@PEAX@std@@@std@@@?$_Tree@V?$_Tmap_traits@VCZString@Value@Json@@V23@U?$less@VCZString@Value@Json@@@std@@V?$allocator@U?$pair@$$CBVCZString@Value@Json@@V23@@std@@@5@$0A@@std@@@std@@QEAA@AEBV01@$$QEAV?$allocator@U?$_Tree_node@U?$pair@$$CBVCZString@Value@Json@@V23@@std@@PEAX@std@@@1@@Z
	DD	01H
	DD	imagerel $tryMap$??$?0V?$allocator@U?$_Tree_node@U?$pair@$$CBVCZString@Value@Json@@V23@@std@@PEAX@std@@@std@@@?$_Tree@V?$_Tmap_traits@VCZString@Value@Json@@V23@U?$less@VCZString@Value@Json@@@std@@V?$allocator@U?$pair@$$CBVCZString@Value@Json@@V23@@std@@@5@$0A@@std@@@std@@QEAA@AEBV01@$$QEAV?$allocator@U?$_Tree_node@U?$pair@$$CBVCZString@Value@Json@@V23@@std@@PEAX@std@@@1@@Z
	DD	03H
	DD	imagerel $ip2state$??$?0V?$allocator@U?$_Tree_node@U?$pair@$$CBVCZString@Value@Json@@V23@@std@@PEAX@std@@@std@@@?$_Tree@V?$_Tmap_traits@VCZString@Value@Json@@V23@U?$less@VCZString@Value@Json@@@std@@V?$allocator@U?$pair@$$CBVCZString@Value@Json@@V23@@std@@@5@$0A@@std@@@std@@QEAA@AEBV01@$$QEAV?$allocator@U?$_Tree_node@U?$pair@$$CBVCZString@Value@Json@@V23@@std@@PEAX@std@@@1@@Z
	DD	020H
	DD	00H
	DD	01H
CONST	ENDS
;	COMDAT xdata
xdata	SEGMENT
$unwind$??$?0V?$allocator@U?$_Tree_node@U?$pair@$$CBVCZString@Value@Json@@V23@@std@@PEAX@std@@@std@@@?$_Tree@V?$_Tmap_traits@VCZString@Value@Json@@V23@U?$less@VCZString@Value@Json@@@std@@V?$allocator@U?$pair@$$CBVCZString@Value@Json@@V23@@std@@@5@$0A@@std@@@std@@QEAA@AEBV01@$$QEAV?$allocator@U?$_Tree_node@U?$pair@$$CBVCZString@Value@Json@@V23@@std@@PEAX@std@@@1@@Z DD 061d19H
	DD	0a641dH
	DD	093418H
	DD	07006520aH
	DD	imagerel __CxxFrameHandler3
	DD	imagerel $cppxdata$??$?0V?$allocator@U?$_Tree_node@U?$pair@$$CBVCZString@Value@Json@@V23@@std@@PEAX@std@@@std@@@?$_Tree@V?$_Tmap_traits@VCZString@Value@Json@@V23@U?$less@VCZString@Value@Json@@@std@@V?$allocator@U?$pair@$$CBVCZString@Value@Json@@V23@@std@@@5@$0A@@std@@@std@@QEAA@AEBV01@$$QEAV?$allocator@U?$_Tree_node@U?$pair@$$CBVCZString@Value@Json@@V23@@std@@PEAX@std@@@1@@Z
xdata	ENDS
;	COMDAT xdata
xdata	SEGMENT
$unwind$??$?0V?$allocator@V?$basic_string@DU?$char_traits@D@std@@V?$allocator@D@2@@std@@@std@@X@?$_Vector_alloc@U?$_Vec_base_types@V?$basic_string@DU?$char_traits@D@std@@V?$allocator@D@2@@std@@V?$allocator@V?$basic_string@DU?$char_traits@D@std@@V?$allocator@D@2@@std@@@2@@std@@@std@@QEAA@$$QEAV?$allocator@V?$basic_string@DU?$char_traits@D@std@@V?$allocator@D@2@@std@@@1@@Z DD 020601H
	DD	030023206H
xdata	ENDS
;	COMDAT xdata
xdata	SEGMENT
$ip2state$??$destroy@U?$pair@$$CBVCZString@Value@Json@@V23@@std@@@?$_Default_allocator_traits@V?$allocator@U?$_Tree_node@U?$pair@$$CBVCZString@Value@Json@@V23@@std@@PEAX@std@@@std@@@std@@SAXAEAV?$allocator@U?$_Tree_node@U?$pair@$$CBVCZString@Value@Json@@V23@@std@@PEAX@std@@@1@QEAU?$pair@$$CBVCZString@Value@Json@@V23@@1@@Z DD imagerel ??$destroy@U?$pair@$$CBVCZString@Value@Json@@V23@@std@@@?$_Default_allocator_traits@V?$allocator@U?$_Tree_node@U?$pair@$$CBVCZString@Value@Json@@V23@@std@@PEAX@std@@@std@@@std@@SAXAEAV?$allocator@U?$_Tree_node@U?$pair@$$CBVCZString@Value@Json@@V23@@std@@PEAX@std@@@1@QEAU?$pair@$$CBVCZString@Value@Json@@V23@@1@@Z+54
	DD	00H
xdata	ENDS
;	COMDAT xdata
xdata	SEGMENT
$stateUnwindMap$??$destroy@U?$pair@$$CBVCZString@Value@Json@@V23@@std@@@?$_Default_allocator_traits@V?$allocator@U?$_Tree_node@U?$pair@$$CBVCZString@Value@Json@@V23@@std@@PEAX@std@@@std@@@std@@SAXAEAV?$allocator@U?$_Tree_node@U?$pair@$$CBVCZString@Value@Json@@V23@@std@@PEAX@std@@@1@QEAU?$pair@$$CBVCZString@Value@Json@@V23@@1@@Z DD 0ffffffffH
	DD	imagerel __imp___std_terminate
xdata	ENDS
;	COMDAT CONST
CONST	SEGMENT
$cppxdata$??$destroy@U?$pair@$$CBVCZString@Value@Json@@V23@@std@@@?$_Default_allocator_traits@V?$allocator@U?$_Tree_node@U?$pair@$$CBVCZString@Value@Json@@V23@@std@@PEAX@std@@@std@@@std@@SAXAEAV?$allocator@U?$_Tree_node@U?$pair@$$CBVCZString@Value@Json@@V23@@std@@PEAX@std@@@1@QEAU?$pair@$$CBVCZString@Value@Json@@V23@@1@@Z DD 019930522H
	DD	01H
	DD	imagerel $stateUnwindMap$??$destroy@U?$pair@$$CBVCZString@Value@Json@@V23@@std@@@?$_Default_allocator_traits@V?$allocator@U?$_Tree_node@U?$pair@$$CBVCZString@Value@Json@@V23@@std@@PEAX@std@@@std@@@std@@SAXAEAV?$allocator@U?$_Tree_node@U?$pair@$$CBVCZString@Value@Json@@V23@@std@@PEAX@std@@@1@QEAU?$pair@$$CBVCZString@Value@Json@@V23@@1@@Z
	DD	00H
	DD	00H
	DD	01H
	DD	imagerel $ip2state$??$destroy@U?$pair@$$CBVCZString@Value@Json@@V23@@std@@@?$_Default_allocator_traits@V?$allocator@U?$_Tree_node@U?$pair@$$CBVCZString@Value@Json@@V23@@std@@PEAX@std@@@std@@@std@@SAXAEAV?$allocator@U?$_Tree_node@U?$pair@$$CBVCZString@Value@Json@@V23@@std@@PEAX@std@@@1@QEAU?$pair@$$CBVCZString@Value@Json@@V23@@1@@Z
	DD	020H
	DD	00H
	DD	01H
CONST	ENDS
;	COMDAT xdata
xdata	SEGMENT
$unwind$??$destroy@U?$pair@$$CBVCZString@Value@Json@@V23@@std@@@?$_Default_allocator_traits@V?$allocator@U?$_Tree_node@U?$pair@$$CBVCZString@Value@Json@@V23@@std@@PEAX@std@@@std@@@std@@SAXAEAV?$allocator@U?$_Tree_node@U?$pair@$$CBVCZString@Value@Json@@V23@@std@@PEAX@std@@@1@QEAU?$pair@$$CBVCZString@Value@Json@@V23@@1@@Z DD 020f11H
	DD	030025206H
	DD	imagerel __CxxFrameHandler3
	DD	imagerel $cppxdata$??$destroy@U?$pair@$$CBVCZString@Value@Json@@V23@@std@@@?$_Default_allocator_traits@V?$allocator@U?$_Tree_node@U?$pair@$$CBVCZString@Value@Json@@V23@@std@@PEAX@std@@@std@@@std@@SAXAEAV?$allocator@U?$_Tree_node@U?$pair@$$CBVCZString@Value@Json@@V23@@std@@PEAX@std@@@1@QEAU?$pair@$$CBVCZString@Value@Json@@V23@@1@@Z
xdata	ENDS
;	COMDAT xdata
xdata	SEGMENT
$ip2state$??$_Freenode0@V?$allocator@U?$_Tree_node@U?$pair@$$CBVCZString@Value@Json@@V23@@std@@PEAX@std@@@std@@@?$_Tree_node@U?$pair@$$CBVCZString@Value@Json@@V23@@std@@PEAX@std@@SAXAEAV?$allocator@U?$_Tree_node@U?$pair@$$CBVCZString@Value@Json@@V23@@std@@PEAX@std@@@1@PEAU01@@Z DD imagerel ??$_Freenode0@V?$allocator@U?$_Tree_node@U?$pair@$$CBVCZString@Value@Json@@V23@@std@@PEAX@std@@@std@@@?$_Tree_node@U?$pair@$$CBVCZString@Value@Json@@V23@@std@@PEAX@std@@SAXAEAV?$allocator@U?$_Tree_node@U?$pair@$$CBVCZString@Value@Json@@V23@@std@@PEAX@std@@@1@PEAU01@@Z+21
	DD	0ffffffffH
xdata	ENDS
;	COMDAT CONST
CONST	SEGMENT
$cppxdata$??$_Freenode0@V?$allocator@U?$_Tree_node@U?$pair@$$CBVCZString@Value@Json@@V23@@std@@PEAX@std@@@std@@@?$_Tree_node@U?$pair@$$CBVCZString@Value@Json@@V23@@std@@PEAX@std@@SAXAEAV?$allocator@U?$_Tree_node@U?$pair@$$CBVCZString@Value@Json@@V23@@std@@PEAX@std@@@1@PEAU01@@Z DD 019930522H
	DD	00H
	DD	00H
	DD	00H
	DD	00H
	DD	01H
	DD	imagerel $ip2state$??$_Freenode0@V?$allocator@U?$_Tree_node@U?$pair@$$CBVCZString@Value@Json@@V23@@std@@PEAX@std@@@std@@@?$_Tree_node@U?$pair@$$CBVCZString@Value@Json@@V23@@std@@PEAX@std@@SAXAEAV?$allocator@U?$_Tree_node@U?$pair@$$CBVCZString@Value@Json@@V23@@std@@PEAX@std@@@1@PEAU01@@Z
	DD	020H
	DD	00H
	DD	05H
CONST	ENDS
;	COMDAT xdata
xdata	SEGMENT
$unwind$??$_Freenode0@V?$allocator@U?$_Tree_node@U?$pair@$$CBVCZString@Value@Json@@V23@@std@@PEAX@std@@@std@@@?$_Tree_node@U?$pair@$$CBVCZString@Value@Json@@V23@@std@@PEAX@std@@SAXAEAV?$allocator@U?$_Tree_node@U?$pair@$$CBVCZString@Value@Json@@V23@@std@@PEAX@std@@@1@PEAU01@@Z DD 010d19H
	DD	06204H
	DD	imagerel __CxxFrameHandler3
	DD	imagerel $cppxdata$??$_Freenode0@V?$allocator@U?$_Tree_node@U?$pair@$$CBVCZString@Value@Json@@V23@@std@@PEAX@std@@@std@@@?$_Tree_node@U?$pair@$$CBVCZString@Value@Json@@V23@@std@@PEAX@std@@SAXAEAV?$allocator@U?$_Tree_node@U?$pair@$$CBVCZString@Value@Json@@V23@@std@@PEAX@std@@@1@PEAU01@@Z
xdata	ENDS
;	COMDAT xdata
xdata	SEGMENT
$unwind$??$?0AEBU?$less@VCZString@Value@Json@@@std@@U_Zero_then_variadic_args_t@1@@?$_Compressed_pair@U?$less@VCZString@Value@Json@@@std@@V?$_Compressed_pair@V?$allocator@U?$_Tree_node@U?$pair@$$CBVCZString@Value@Json@@V23@@std@@PEAX@std@@@std@@V?$_Tree_val@U?$_Tree_simple_types@U?$pair@$$CBVCZString@Value@Json@@V23@@std@@@std@@@2@$00@2@$00@std@@QEAA@U_One_then_variadic_args_t@1@AEBU?$less@VCZString@Value@Json@@@1@$$QEAU_Zero_then_variadic_args_t@1@@Z DD 020601H
	DD	030023206H
xdata	ENDS
;	COMDAT xdata
xdata	SEGMENT
$unwind$??$construct@PEAU?$_Tree_node@U?$pair@$$CBVCZString@Value@Json@@V23@@std@@PEAX@std@@AEAPEAU12@@?$_Default_allocator_traits@V?$allocator@U?$_Tree_node@U?$pair@$$CBVCZString@Value@Json@@V23@@std@@PEAX@std@@@std@@@std@@SAXAEAV?$allocator@U?$_Tree_node@U?$pair@$$CBVCZString@Value@Json@@V23@@std@@PEAX@std@@@1@QEAPEAU?$_Tree_node@U?$pair@$$CBVCZString@Value@Json@@V23@@std@@PEAX@1@AEAPEAU31@@Z DD 020601H
	DD	030023206H
xdata	ENDS
;	COMDAT xdata
xdata	SEGMENT
$ip2state$??_G?$pair@$$CBVCZString@Value@Json@@V23@@std@@QEAAPEAXI@Z DD imagerel ??_G?$pair@$$CBVCZString@Value@Json@@V23@@std@@QEAAPEAXI@Z+55
	DD	00H
xdata	ENDS
;	COMDAT xdata
xdata	SEGMENT
$stateUnwindMap$??_G?$pair@$$CBVCZString@Value@Json@@V23@@std@@QEAAPEAXI@Z DD 0ffffffffH
	DD	imagerel __imp___std_terminate
xdata	ENDS
;	COMDAT CONST
CONST	SEGMENT
$cppxdata$??_G?$pair@$$CBVCZString@Value@Json@@V23@@std@@QEAAPEAXI@Z DD 019930522H
	DD	01H
	DD	imagerel $stateUnwindMap$??_G?$pair@$$CBVCZString@Value@Json@@V23@@std@@QEAAPEAXI@Z
	DD	00H
	DD	00H
	DD	01H
	DD	imagerel $ip2state$??_G?$pair@$$CBVCZString@Value@Json@@V23@@std@@QEAAPEAXI@Z
	DD	020H
	DD	00H
	DD	05H
CONST	ENDS
;	COMDAT xdata
xdata	SEGMENT
$unwind$??_G?$pair@$$CBVCZString@Value@Json@@V23@@std@@QEAAPEAXI@Z DD 020f19H
	DD	030025206H
	DD	imagerel __CxxFrameHandler3
	DD	imagerel $cppxdata$??_G?$pair@$$CBVCZString@Value@Json@@V23@@std@@QEAAPEAXI@Z
xdata	ENDS
;	COMDAT xdata
xdata	SEGMENT
$unwind$??$emplace_hint@AEAU?$pair@$$CBVCZString@Value@Json@@V23@@std@@@?$_Tree@V?$_Tmap_traits@VCZString@Value@Json@@V23@U?$less@VCZString@Value@Json@@@std@@V?$allocator@U?$pair@$$CBVCZString@Value@Json@@V23@@std@@@5@$0A@@std@@@std@@QEAA?AV?$_Tree_iterator@V?$_Tree_val@U?$_Tree_simple_types@U?$pair@$$CBVCZString@Value@Json@@V23@@std@@@std@@@std@@@1@V?$_Tree_const_iterator@V?$_Tree_val@U?$_Tree_simple_types@U?$pair@$$CBVCZString@Value@Json@@V23@@std@@@std@@@std@@@1@AEAU?$pair@$$CBVCZString@Value@Json@@V23@@1@@Z DD 060f01H
	DD	09640fH
	DD	08340fH
	DD	0700b520fH
xdata	ENDS
;	COMDAT xdata
xdata	SEGMENT
$unwind$??$?0V?$allocator@U?$_Tree_node@U?$pair@$$CBVCZString@Value@Json@@V23@@std@@PEAX@std@@@std@@X@?$_Tree_comp_alloc@V?$_Tmap_traits@VCZString@Value@Json@@V23@U?$less@VCZString@Value@Json@@@std@@V?$allocator@U?$pair@$$CBVCZString@Value@Json@@V23@@std@@@5@$0A@@std@@@std@@QEAA@AEBU?$less@VCZString@Value@Json@@@1@$$QEAV?$allocator@U?$_Tree_node@U?$pair@$$CBVCZString@Value@Json@@V23@@std@@PEAX@std@@@1@@Z DD 020601H
	DD	030023206H
xdata	ENDS
;	COMDAT xdata
xdata	SEGMENT
$unwind$??$_Copy@U_Copy_tag@?$_Tree@V?$_Tmap_traits@VCZString@Value@Json@@V23@U?$less@VCZString@Value@Json@@@std@@V?$allocator@U?$pair@$$CBVCZString@Value@Json@@V23@@std@@@5@$0A@@std@@@std@@@?$_Tree@V?$_Tmap_traits@VCZString@Value@Json@@V23@U?$less@VCZString@Value@Json@@@std@@V?$allocator@U?$pair@$$CBVCZString@Value@Json@@V23@@std@@@5@$0A@@std@@@std@@IEAAXAEBV01@U_Copy_tag@01@@Z DD 060f01H
	DD	07640fH
	DD	06340fH
	DD	0700b320fH
xdata	ENDS
;	COMDAT xdata
xdata	SEGMENT
$unwind$??$?0V?$allocator@V?$basic_string@DU?$char_traits@D@std@@V?$allocator@D@2@@std@@@std@@$$V@?$_Compressed_pair@V?$allocator@V?$basic_string@DU?$char_traits@D@std@@V?$allocator@D@2@@std@@@std@@V?$_Vector_val@U?$_Simple_types@V?$basic_string@DU?$char_traits@D@std@@V?$allocator@D@2@@std@@@std@@@2@$00@std@@QEAA@U_One_then_variadic_args_t@1@$$QEAV?$allocator@V?$basic_string@DU?$char_traits@D@std@@V?$allocator@D@2@@std@@@1@@Z DD 020601H
	DD	030023206H
xdata	ENDS
;	COMDAT xdata
xdata	SEGMENT
$unwind$?catch$2@?0???$_Buynode@AEAU?$pair@$$CBVCZString@Value@Json@@V23@@std@@@?$_Tree_comp_alloc@V?$_Tmap_traits@VCZString@Value@Json@@V23@U?$less@VCZString@Value@Json@@@std@@V?$allocator@U?$pair@$$CBVCZString@Value@Json@@V23@@std@@@5@$0A@@std@@@std@@QEAAPEAU?$_Tree_node@U?$pair@$$CBVCZString@Value@Json@@V23@@std@@PEAX@1@AEAU?$pair@$$CBVCZString@Value@Json@@V23@@1@@Z@4HA DD 020a19H
	DD	05006320aH
	DD	imagerel __CxxFrameHandler3
	DD	imagerel $cppxdata$??$_Buynode@AEAU?$pair@$$CBVCZString@Value@Json@@V23@@std@@@?$_Tree_comp_alloc@V?$_Tmap_traits@VCZString@Value@Json@@V23@U?$less@VCZString@Value@Json@@@std@@V?$allocator@U?$pair@$$CBVCZString@Value@Json@@V23@@std@@@5@$0A@@std@@@std@@QEAAPEAU?$_Tree_node@U?$pair@$$CBVCZString@Value@Json@@V23@@std@@PEAX@1@AEAU?$pair@$$CBVCZString@Value@Json@@V23@@1@@Z
xdata	ENDS
;	COMDAT xdata
xdata	SEGMENT
$ip2state$??$_Buynode@AEAU?$pair@$$CBVCZString@Value@Json@@V23@@std@@@?$_Tree_comp_alloc@V?$_Tmap_traits@VCZString@Value@Json@@V23@U?$less@VCZString@Value@Json@@@std@@V?$allocator@U?$pair@$$CBVCZString@Value@Json@@V23@@std@@@5@$0A@@std@@@std@@QEAAPEAU?$_Tree_node@U?$pair@$$CBVCZString@Value@Json@@V23@@std@@PEAX@1@AEAU?$pair@$$CBVCZString@Value@Json@@V23@@1@@Z DD imagerel ??$_Buynode@AEAU?$pair@$$CBVCZString@Value@Json@@V23@@std@@@?$_Tree_comp_alloc@V?$_Tmap_traits@VCZString@Value@Json@@V23@U?$less@VCZString@Value@Json@@@std@@V?$allocator@U?$pair@$$CBVCZString@Value@Json@@V23@@std@@@5@$0A@@std@@@std@@QEAAPEAU?$_Tree_node@U?$pair@$$CBVCZString@Value@Json@@V23@@std@@PEAX@1@AEAU?$pair@$$CBVCZString@Value@Json@@V23@@1@@Z+28
	DD	0ffffffffH
	DD	imagerel ??$_Buynode@AEAU?$pair@$$CBVCZString@Value@Json@@V23@@std@@@?$_Tree_comp_alloc@V?$_Tmap_traits@VCZString@Value@Json@@V23@U?$less@VCZString@Value@Json@@@std@@V?$allocator@U?$pair@$$CBVCZString@Value@Json@@V23@@std@@@5@$0A@@std@@@std@@QEAAPEAU?$_Tree_node@U?$pair@$$CBVCZString@Value@Json@@V23@@std@@PEAX@1@AEAU?$pair@$$CBVCZString@Value@Json@@V23@@1@@Z+95
	DD	00H
	DD	imagerel ??$_Buynode@AEAU?$pair@$$CBVCZString@Value@Json@@V23@@std@@@?$_Tree_comp_alloc@V?$_Tmap_traits@VCZString@Value@Json@@V23@U?$less@VCZString@Value@Json@@@std@@V?$allocator@U?$pair@$$CBVCZString@Value@Json@@V23@@std@@@5@$0A@@std@@@std@@QEAAPEAU?$_Tree_node@U?$pair@$$CBVCZString@Value@Json@@V23@@std@@PEAX@1@AEAU?$pair@$$CBVCZString@Value@Json@@V23@@1@@Z+137
	DD	01H
	DD	imagerel ?catch$2@?0???$_Buynode@AEAU?$pair@$$CBVCZString@Value@Json@@V23@@std@@@?$_Tree_comp_alloc@V?$_Tmap_traits@VCZString@Value@Json@@V23@U?$less@VCZString@Value@Json@@@std@@V?$allocator@U?$pair@$$CBVCZString@Value@Json@@V23@@std@@@5@$0A@@std@@@std@@QEAAPEAU?$_Tree_node@U?$pair@$$CBVCZString@Value@Json@@V23@@std@@PEAX@1@AEAU?$pair@$$CBVCZString@Value@Json@@V23@@1@@Z@4HA+26
	DD	02H
xdata	ENDS
;	COMDAT xdata
xdata	SEGMENT
$handlerMap$0$??$_Buynode@AEAU?$pair@$$CBVCZString@Value@Json@@V23@@std@@@?$_Tree_comp_alloc@V?$_Tmap_traits@VCZString@Value@Json@@V23@U?$less@VCZString@Value@Json@@@std@@V?$allocator@U?$pair@$$CBVCZString@Value@Json@@V23@@std@@@5@$0A@@std@@@std@@QEAAPEAU?$_Tree_node@U?$pair@$$CBVCZString@Value@Json@@V23@@std@@PEAX@1@AEAU?$pair@$$CBVCZString@Value@Json@@V23@@1@@Z DD 040H
	DD	00H
	DD	00H
	DD	imagerel ?catch$2@?0???$_Buynode@AEAU?$pair@$$CBVCZString@Value@Json@@V23@@std@@@?$_Tree_comp_alloc@V?$_Tmap_traits@VCZString@Value@Json@@V23@U?$less@VCZString@Value@Json@@@std@@V?$allocator@U?$pair@$$CBVCZString@Value@Json@@V23@@std@@@5@$0A@@std@@@std@@QEAAPEAU?$_Tree_node@U?$pair@$$CBVCZString@Value@Json@@V23@@std@@PEAX@1@AEAU?$pair@$$CBVCZString@Value@Json@@V23@@1@@Z@4HA
	DD	038H
xdata	ENDS
;	COMDAT xdata
xdata	SEGMENT
$tryMap$??$_Buynode@AEAU?$pair@$$CBVCZString@Value@Json@@V23@@std@@@?$_Tree_comp_alloc@V?$_Tmap_traits@VCZString@Value@Json@@V23@U?$less@VCZString@Value@Json@@@std@@V?$allocator@U?$pair@$$CBVCZString@Value@Json@@V23@@std@@@5@$0A@@std@@@std@@QEAAPEAU?$_Tree_node@U?$pair@$$CBVCZString@Value@Json@@V23@@std@@PEAX@1@AEAU?$pair@$$CBVCZString@Value@Json@@V23@@1@@Z DD 00H
	DD	01H
	DD	02H
	DD	01H
	DD	imagerel $handlerMap$0$??$_Buynode@AEAU?$pair@$$CBVCZString@Value@Json@@V23@@std@@@?$_Tree_comp_alloc@V?$_Tmap_traits@VCZString@Value@Json@@V23@U?$less@VCZString@Value@Json@@@std@@V?$allocator@U?$pair@$$CBVCZString@Value@Json@@V23@@std@@@5@$0A@@std@@@std@@QEAAPEAU?$_Tree_node@U?$pair@$$CBVCZString@Value@Json@@V23@@std@@PEAX@1@AEAU?$pair@$$CBVCZString@Value@Json@@V23@@1@@Z
xdata	ENDS
;	COMDAT xdata
xdata	SEGMENT
$stateUnwindMap$??$_Buynode@AEAU?$pair@$$CBVCZString@Value@Json@@V23@@std@@@?$_Tree_comp_alloc@V?$_Tmap_traits@VCZString@Value@Json@@V23@U?$less@VCZString@Value@Json@@@std@@V?$allocator@U?$pair@$$CBVCZString@Value@Json@@V23@@std@@@5@$0A@@std@@@std@@QEAAPEAU?$_Tree_node@U?$pair@$$CBVCZString@Value@Json@@V23@@std@@PEAX@1@AEAU?$pair@$$CBVCZString@Value@Json@@V23@@1@@Z DD 0ffffffffH
	DD	00H
	DD	00H
	DD	imagerel ?dtor$0@?0???$_Buynode@AEAU?$pair@$$CBVCZString@Value@Json@@V23@@std@@@?$_Tree_comp_alloc@V?$_Tmap_traits@VCZString@Value@Json@@V23@U?$less@VCZString@Value@Json@@@std@@V?$allocator@U?$pair@$$CBVCZString@Value@Json@@V23@@std@@@5@$0A@@std@@@std@@QEAAPEAU?$_Tree_node@U?$pair@$$CBVCZString@Value@Json@@V23@@std@@PEAX@1@AEAU?$pair@$$CBVCZString@Value@Json@@V23@@1@@Z@4HA
	DD	0ffffffffH
	DD	00H
xdata	ENDS
;	COMDAT CONST
CONST	SEGMENT
$cppxdata$??$_Buynode@AEAU?$pair@$$CBVCZString@Value@Json@@V23@@std@@@?$_Tree_comp_alloc@V?$_Tmap_traits@VCZString@Value@Json@@V23@U?$less@VCZString@Value@Json@@@std@@V?$allocator@U?$pair@$$CBVCZString@Value@Json@@V23@@std@@@5@$0A@@std@@@std@@QEAAPEAU?$_Tree_node@U?$pair@$$CBVCZString@Value@Json@@V23@@std@@PEAX@1@AEAU?$pair@$$CBVCZString@Value@Json@@V23@@1@@Z DD 019930522H
	DD	03H
	DD	imagerel $stateUnwindMap$??$_Buynode@AEAU?$pair@$$CBVCZString@Value@Json@@V23@@std@@@?$_Tree_comp_alloc@V?$_Tmap_traits@VCZString@Value@Json@@V23@U?$less@VCZString@Value@Json@@@std@@V?$allocator@U?$pair@$$CBVCZString@Value@Json@@V23@@std@@@5@$0A@@std@@@std@@QEAAPEAU?$_Tree_node@U?$pair@$$CBVCZString@Value@Json@@V23@@std@@PEAX@1@AEAU?$pair@$$CBVCZString@Value@Json@@V23@@1@@Z
	DD	01H
	DD	imagerel $tryMap$??$_Buynode@AEAU?$pair@$$CBVCZString@Value@Json@@V23@@std@@@?$_Tree_comp_alloc@V?$_Tmap_traits@VCZString@Value@Json@@V23@U?$less@VCZString@Value@Json@@@std@@V?$allocator@U?$pair@$$CBVCZString@Value@Json@@V23@@std@@@5@$0A@@std@@@std@@QEAAPEAU?$_Tree_node@U?$pair@$$CBVCZString@Value@Json@@V23@@std@@PEAX@1@AEAU?$pair@$$CBVCZString@Value@Json@@V23@@1@@Z
	DD	04H
	DD	imagerel $ip2state$??$_Buynode@AEAU?$pair@$$CBVCZString@Value@Json@@V23@@std@@@?$_Tree_comp_alloc@V?$_Tmap_traits@VCZString@Value@Json@@V23@U?$less@VCZString@Value@Json@@@std@@V?$allocator@U?$pair@$$CBVCZString@Value@Json@@V23@@std@@@5@$0A@@std@@@std@@QEAAPEAU?$_Tree_node@U?$pair@$$CBVCZString@Value@Json@@V23@@std@@PEAX@1@AEAU?$pair@$$CBVCZString@Value@Json@@V23@@1@@Z
	DD	020H
	DD	00H
	DD	01H
CONST	ENDS
;	COMDAT xdata
xdata	SEGMENT
$unwind$??$_Buynode@AEAU?$pair@$$CBVCZString@Value@Json@@V23@@std@@@?$_Tree_comp_alloc@V?$_Tmap_traits@VCZString@Value@Json@@V23@U?$less@VCZString@Value@Json@@@std@@V?$allocator@U?$pair@$$CBVCZString@Value@Json@@V23@@std@@@5@$0A@@std@@@std@@QEAAPEAU?$_Tree_node@U?$pair@$$CBVCZString@Value@Json@@V23@@std@@PEAX@1@AEAU?$pair@$$CBVCZString@Value@Json@@V23@@1@@Z DD 061919H
	DD	0b6419H
	DD	0a3414H
	DD	070025206H
	DD	imagerel __CxxFrameHandler3
	DD	imagerel $cppxdata$??$_Buynode@AEAU?$pair@$$CBVCZString@Value@Json@@V23@@std@@@?$_Tree_comp_alloc@V?$_Tmap_traits@VCZString@Value@Json@@V23@U?$less@VCZString@Value@Json@@@std@@V?$allocator@U?$pair@$$CBVCZString@Value@Json@@V23@@std@@@5@$0A@@std@@@std@@QEAAPEAU?$_Tree_node@U?$pair@$$CBVCZString@Value@Json@@V23@@std@@PEAX@1@AEAU?$pair@$$CBVCZString@Value@Json@@V23@@1@@Z
xdata	ENDS
;	COMDAT xdata
xdata	SEGMENT
$unwind$?catch$0@?0???$_Insert_hint@AEAU?$pair@$$CBVCZString@Value@Json@@V23@@std@@PEAU?$_Tree_node@U?$pair@$$CBVCZString@Value@Json@@V23@@std@@PEAX@2@@?$_Tree@V?$_Tmap_traits@VCZString@Value@Json@@V23@U?$less@VCZString@Value@Json@@@std@@V?$allocator@U?$pair@$$CBVCZString@Value@Json@@V23@@std@@@5@$0A@@std@@@std@@IEAA?AV?$_Tree_iterator@V?$_Tree_val@U?$_Tree_simple_types@U?$pair@$$CBVCZString@Value@Json@@V23@@std@@@std@@@std@@@1@V?$_Tree_const_iterator@V?$_Tree_val@U?$_Tree_simple_types@U?$pair@$$CBVCZString@Value@Json@@V23@@std@@@std@@@std@@@1@AEAU?$pair@$$CBVCZString@Value@Json@@V23@@1@PEAU?$_Tree_node@U?$pair@$$CBVCZString@Value@Json@@V23@@std@@PEAX@1@@Z@4HA DD 020a19H
	DD	05006520aH
	DD	imagerel __CxxFrameHandler3
	DD	imagerel $cppxdata$??$_Insert_hint@AEAU?$pair@$$CBVCZString@Value@Json@@V23@@std@@PEAU?$_Tree_node@U?$pair@$$CBVCZString@Value@Json@@V23@@std@@PEAX@2@@?$_Tree@V?$_Tmap_traits@VCZString@Value@Json@@V23@U?$less@VCZString@Value@Json@@@std@@V?$allocator@U?$pair@$$CBVCZString@Value@Json@@V23@@std@@@5@$0A@@std@@@std@@IEAA?AV?$_Tree_iterator@V?$_Tree_val@U?$_Tree_simple_types@U?$pair@$$CBVCZString@Value@Json@@V23@@std@@@std@@@std@@@1@V?$_Tree_const_iterator@V?$_Tree_val@U?$_Tree_simple_types@U?$pair@$$CBVCZString@Value@Json@@V23@@std@@@std@@@std@@@1@AEAU?$pair@$$CBVCZString@Value@Json@@V23@@1@PEAU?$_Tree_node@U?$pair@$$CBVCZString@Value@Json@@V23@@std@@PEAX@1@@Z
xdata	ENDS
;	COMDAT xdata
xdata	SEGMENT
$ip2state$??$_Insert_hint@AEAU?$pair@$$CBVCZString@Value@Json@@V23@@std@@PEAU?$_Tree_node@U?$pair@$$CBVCZString@Value@Json@@V23@@std@@PEAX@2@@?$_Tree@V?$_Tmap_traits@VCZString@Value@Json@@V23@U?$less@VCZString@Value@Json@@@std@@V?$allocator@U?$pair@$$CBVCZString@Value@Json@@V23@@std@@@5@$0A@@std@@@std@@IEAA?AV?$_Tree_iterator@V?$_Tree_val@U?$_Tree_simple_types@U?$pair@$$CBVCZString@Value@Json@@V23@@std@@@std@@@std@@@1@V?$_Tree_const_iterator@V?$_Tree_val@U?$_Tree_simple_types@U?$pair@$$CBVCZString@Value@Json@@V23@@std@@@std@@@std@@@1@AEAU?$pair@$$CBVCZString@Value@Json@@V23@@1@PEAU?$_Tree_node@U?$pair@$$CBVCZString@Value@Json@@V23@@std@@PEAX@1@@Z DD imagerel ??$_Insert_hint@AEAU?$pair@$$CBVCZString@Value@Json@@V23@@std@@PEAU?$_Tree_node@U?$pair@$$CBVCZString@Value@Json@@V23@@std@@PEAX@2@@?$_Tree@V?$_Tmap_traits@VCZString@Value@Json@@V23@U?$less@VCZString@Value@Json@@@std@@V?$allocator@U?$pair@$$CBVCZString@Value@Json@@V23@@std@@@5@$0A@@std@@@std@@IEAA?AV?$_Tree_iterator@V?$_Tree_val@U?$_Tree_simple_types@U?$pair@$$CBVCZString@Value@Json@@V23@@std@@@std@@@std@@@1@V?$_Tree_const_iterator@V?$_Tree_val@U?$_Tree_simple_types@U?$pair@$$CBVCZString@Value@Json@@V23@@std@@@std@@@std@@@1@AEAU?$pair@$$CBVCZString@Value@Json@@V23@@1@PEAU?$_Tree_node@U?$pair@$$CBVCZString@Value@Json@@V23@@std@@PEAX@1@@Z+70
	DD	00H
	DD	imagerel ??$_Insert_hint@AEAU?$pair@$$CBVCZString@Value@Json@@V23@@std@@PEAU?$_Tree_node@U?$pair@$$CBVCZString@Value@Json@@V23@@std@@PEAX@2@@?$_Tree@V?$_Tmap_traits@VCZString@Value@Json@@V23@U?$less@VCZString@Value@Json@@@std@@V?$allocator@U?$pair@$$CBVCZString@Value@Json@@V23@@std@@@5@$0A@@std@@@std@@IEAA?AV?$_Tree_iterator@V?$_Tree_val@U?$_Tree_simple_types@U?$pair@$$CBVCZString@Value@Json@@V23@@std@@@std@@@std@@@1@V?$_Tree_const_iterator@V?$_Tree_val@U?$_Tree_simple_types@U?$pair@$$CBVCZString@Value@Json@@V23@@std@@@std@@@std@@@1@AEAU?$pair@$$CBVCZString@Value@Json@@V23@@1@PEAU?$_Tree_node@U?$pair@$$CBVCZString@Value@Json@@V23@@std@@PEAX@1@@Z+971
	DD	0ffffffffH
	DD	imagerel ??$_Insert_hint@AEAU?$pair@$$CBVCZString@Value@Json@@V23@@std@@PEAU?$_Tree_node@U?$pair@$$CBVCZString@Value@Json@@V23@@std@@PEAX@2@@?$_Tree@V?$_Tmap_traits@VCZString@Value@Json@@V23@U?$less@VCZString@Value@Json@@@std@@V?$allocator@U?$pair@$$CBVCZString@Value@Json@@V23@@std@@@5@$0A@@std@@@std@@IEAA?AV?$_Tree_iterator@V?$_Tree_val@U?$_Tree_simple_types@U?$pair@$$CBVCZString@Value@Json@@V23@@std@@@std@@@std@@@1@V?$_Tree_const_iterator@V?$_Tree_val@U?$_Tree_simple_types@U?$pair@$$CBVCZString@Value@Json@@V23@@std@@@std@@@std@@@1@AEAU?$pair@$$CBVCZString@Value@Json@@V23@@1@PEAU?$_Tree_node@U?$pair@$$CBVCZString@Value@Json@@V23@@std@@PEAX@1@@Z+1009
	DD	00H
	DD	imagerel ?catch$0@?0???$_Insert_hint@AEAU?$pair@$$CBVCZString@Value@Json@@V23@@std@@PEAU?$_Tree_node@U?$pair@$$CBVCZString@Value@Json@@V23@@std@@PEAX@2@@?$_Tree@V?$_Tmap_traits@VCZString@Value@Json@@V23@U?$less@VCZString@Value@Json@@@std@@V?$allocator@U?$pair@$$CBVCZString@Value@Json@@V23@@std@@@5@$0A@@std@@@std@@IEAA?AV?$_Tree_iterator@V?$_Tree_val@U?$_Tree_simple_types@U?$pair@$$CBVCZString@Value@Json@@V23@@std@@@std@@@std@@@1@V?$_Tree_const_iterator@V?$_Tree_val@U?$_Tree_simple_types@U?$pair@$$CBVCZString@Value@Json@@V23@@std@@@std@@@std@@@1@AEAU?$pair@$$CBVCZString@Value@Json@@V23@@1@PEAU?$_Tree_node@U?$pair@$$CBVCZString@Value@Json@@V23@@std@@PEAX@1@@Z@4HA+29
	DD	01H
xdata	ENDS
;	COMDAT xdata
xdata	SEGMENT
$handlerMap$0$??$_Insert_hint@AEAU?$pair@$$CBVCZString@Value@Json@@V23@@std@@PEAU?$_Tree_node@U?$pair@$$CBVCZString@Value@Json@@V23@@std@@PEAX@2@@?$_Tree@V?$_Tmap_traits@VCZString@Value@Json@@V23@U?$less@VCZString@Value@Json@@@std@@V?$allocator@U?$pair@$$CBVCZString@Value@Json@@V23@@std@@@5@$0A@@std@@@std@@IEAA?AV?$_Tree_iterator@V?$_Tree_val@U?$_Tree_simple_types@U?$pair@$$CBVCZString@Value@Json@@V23@@std@@@std@@@std@@@1@V?$_Tree_const_iterator@V?$_Tree_val@U?$_Tree_simple_types@U?$pair@$$CBVCZString@Value@Json@@V23@@std@@@std@@@std@@@1@AEAU?$pair@$$CBVCZString@Value@Json@@V23@@1@PEAU?$_Tree_node@U?$pair@$$CBVCZString@Value@Json@@V23@@std@@PEAX@1@@Z DD 040H
	DD	00H
	DD	00H
	DD	imagerel ?catch$0@?0???$_Insert_hint@AEAU?$pair@$$CBVCZString@Value@Json@@V23@@std@@PEAU?$_Tree_node@U?$pair@$$CBVCZString@Value@Json@@V23@@std@@PEAX@2@@?$_Tree@V?$_Tmap_traits@VCZString@Value@Json@@V23@U?$less@VCZString@Value@Json@@@std@@V?$allocator@U?$pair@$$CBVCZString@Value@Json@@V23@@std@@@5@$0A@@std@@@std@@IEAA?AV?$_Tree_iterator@V?$_Tree_val@U?$_Tree_simple_types@U?$pair@$$CBVCZString@Value@Json@@V23@@std@@@std@@@std@@@1@V?$_Tree_const_iterator@V?$_Tree_val@U?$_Tree_simple_types@U?$pair@$$CBVCZString@Value@Json@@V23@@std@@@std@@@std@@@1@AEAU?$pair@$$CBVCZString@Value@Json@@V23@@1@PEAU?$_Tree_node@U?$pair@$$CBVCZString@Value@Json@@V23@@std@@PEAX@1@@Z@4HA
	DD	048H
xdata	ENDS
;	COMDAT xdata
xdata	SEGMENT
$tryMap$??$_Insert_hint@AEAU?$pair@$$CBVCZString@Value@Json@@V23@@std@@PEAU?$_Tree_node@U?$pair@$$CBVCZString@Value@Json@@V23@@std@@PEAX@2@@?$_Tree@V?$_Tmap_traits@VCZString@Value@Json@@V23@U?$less@VCZString@Value@Json@@@std@@V?$allocator@U?$pair@$$CBVCZString@Value@Json@@V23@@std@@@5@$0A@@std@@@std@@IEAA?AV?$_Tree_iterator@V?$_Tree_val@U?$_Tree_simple_types@U?$pair@$$CBVCZString@Value@Json@@V23@@std@@@std@@@std@@@1@V?$_Tree_const_iterator@V?$_Tree_val@U?$_Tree_simple_types@U?$pair@$$CBVCZString@Value@Json@@V23@@std@@@std@@@std@@@1@AEAU?$pair@$$CBVCZString@Value@Json@@V23@@1@PEAU?$_Tree_node@U?$pair@$$CBVCZString@Value@Json@@V23@@std@@PEAX@1@@Z DD 00H
	DD	00H
	DD	01H
	DD	01H
	DD	imagerel $handlerMap$0$??$_Insert_hint@AEAU?$pair@$$CBVCZString@Value@Json@@V23@@std@@PEAU?$_Tree_node@U?$pair@$$CBVCZString@Value@Json@@V23@@std@@PEAX@2@@?$_Tree@V?$_Tmap_traits@VCZString@Value@Json@@V23@U?$less@VCZString@Value@Json@@@std@@V?$allocator@U?$pair@$$CBVCZString@Value@Json@@V23@@std@@@5@$0A@@std@@@std@@IEAA?AV?$_Tree_iterator@V?$_Tree_val@U?$_Tree_simple_types@U?$pair@$$CBVCZString@Value@Json@@V23@@std@@@std@@@std@@@1@V?$_Tree_const_iterator@V?$_Tree_val@U?$_Tree_simple_types@U?$pair@$$CBVCZString@Value@Json@@V23@@std@@@std@@@std@@@1@AEAU?$pair@$$CBVCZString@Value@Json@@V23@@1@PEAU?$_Tree_node@U?$pair@$$CBVCZString@Value@Json@@V23@@std@@PEAX@1@@Z
xdata	ENDS
;	COMDAT xdata
xdata	SEGMENT
$stateUnwindMap$??$_Insert_hint@AEAU?$pair@$$CBVCZString@Value@Json@@V23@@std@@PEAU?$_Tree_node@U?$pair@$$CBVCZString@Value@Json@@V23@@std@@PEAX@2@@?$_Tree@V?$_Tmap_traits@VCZString@Value@Json@@V23@U?$less@VCZString@Value@Json@@@std@@V?$allocator@U?$pair@$$CBVCZString@Value@Json@@V23@@std@@@5@$0A@@std@@@std@@IEAA?AV?$_Tree_iterator@V?$_Tree_val@U?$_Tree_simple_types@U?$pair@$$CBVCZString@Value@Json@@V23@@std@@@std@@@std@@@1@V?$_Tree_const_iterator@V?$_Tree_val@U?$_Tree_simple_types@U?$pair@$$CBVCZString@Value@Json@@V23@@std@@@std@@@std@@@1@AEAU?$pair@$$CBVCZString@Value@Json@@V23@@1@PEAU?$_Tree_node@U?$pair@$$CBVCZString@Value@Json@@V23@@std@@PEAX@1@@Z DD 0ffffffffH
	DD	00H
	DD	0ffffffffH
	DD	00H
xdata	ENDS
;	COMDAT CONST
CONST	SEGMENT
$cppxdata$??$_Insert_hint@AEAU?$pair@$$CBVCZString@Value@Json@@V23@@std@@PEAU?$_Tree_node@U?$pair@$$CBVCZString@Value@Json@@V23@@std@@PEAX@2@@?$_Tree@V?$_Tmap_traits@VCZString@Value@Json@@V23@U?$less@VCZString@Value@Json@@@std@@V?$allocator@U?$pair@$$CBVCZString@Value@Json@@V23@@std@@@5@$0A@@std@@@std@@IEAA?AV?$_Tree_iterator@V?$_Tree_val@U?$_Tree_simple_types@U?$pair@$$CBVCZString@Value@Json@@V23@@std@@@std@@@std@@@1@V?$_Tree_const_iterator@V?$_Tree_val@U?$_Tree_simple_types@U?$pair@$$CBVCZString@Value@Json@@V23@@std@@@std@@@std@@@1@AEAU?$pair@$$CBVCZString@Value@Json@@V23@@1@PEAU?$_Tree_node@U?$pair@$$CBVCZString@Value@Json@@V23@@std@@PEAX@1@@Z DD 019930522H
	DD	02H
	DD	imagerel $stateUnwindMap$??$_Insert_hint@AEAU?$pair@$$CBVCZString@Value@Json@@V23@@std@@PEAU?$_Tree_node@U?$pair@$$CBVCZString@Value@Json@@V23@@std@@PEAX@2@@?$_Tree@V?$_Tmap_traits@VCZString@Value@Json@@V23@U?$less@VCZString@Value@Json@@@std@@V?$allocator@U?$pair@$$CBVCZString@Value@Json@@V23@@std@@@5@$0A@@std@@@std@@IEAA?AV?$_Tree_iterator@V?$_Tree_val@U?$_Tree_simple_types@U?$pair@$$CBVCZString@Value@Json@@V23@@std@@@std@@@std@@@1@V?$_Tree_const_iterator@V?$_Tree_val@U?$_Tree_simple_types@U?$pair@$$CBVCZString@Value@Json@@V23@@std@@@std@@@std@@@1@AEAU?$pair@$$CBVCZString@Value@Json@@V23@@1@PEAU?$_Tree_node@U?$pair@$$CBVCZString@Value@Json@@V23@@std@@PEAX@1@@Z
	DD	01H
	DD	imagerel $tryMap$??$_Insert_hint@AEAU?$pair@$$CBVCZString@Value@Json@@V23@@std@@PEAU?$_Tree_node@U?$pair@$$CBVCZString@Value@Json@@V23@@std@@PEAX@2@@?$_Tree@V?$_Tmap_traits@VCZString@Value@Json@@V23@U?$less@VCZString@Value@Json@@@std@@V?$allocator@U?$pair@$$CBVCZString@Value@Json@@V23@@std@@@5@$0A@@std@@@std@@IEAA?AV?$_Tree_iterator@V?$_Tree_val@U?$_Tree_simple_types@U?$pair@$$CBVCZString@Value@Json@@V23@@std@@@std@@@std@@@1@V?$_Tree_const_iterator@V?$_Tree_val@U?$_Tree_simple_types@U?$pair@$$CBVCZString@Value@Json@@V23@@std@@@std@@@std@@@1@AEAU?$pair@$$CBVCZString@Value@Json@@V23@@1@PEAU?$_Tree_node@U?$pair@$$CBVCZString@Value@Json@@V23@@std@@PEAX@1@@Z
	DD	04H
	DD	imagerel $ip2state$??$_Insert_hint@AEAU?$pair@$$CBVCZString@Value@Json@@V23@@std@@PEAU?$_Tree_node@U?$pair@$$CBVCZString@Value@Json@@V23@@std@@PEAX@2@@?$_Tree@V?$_Tmap_traits@VCZString@Value@Json@@V23@U?$less@VCZString@Value@Json@@@std@@V?$allocator@U?$pair@$$CBVCZString@Value@Json@@V23@@std@@@5@$0A@@std@@@std@@IEAA?AV?$_Tree_iterator@V?$_Tree_val@U?$_Tree_simple_types@U?$pair@$$CBVCZString@Value@Json@@V23@@std@@@std@@@std@@@1@V?$_Tree_const_iterator@V?$_Tree_val@U?$_Tree_simple_types@U?$pair@$$CBVCZString@Value@Json@@V23@@std@@@std@@@std@@@1@AEAU?$pair@$$CBVCZString@Value@Json@@V23@@1@PEAU?$_Tree_node@U?$pair@$$CBVCZString@Value@Json@@V23@@std@@PEAX@1@@Z
	DD	030H
	DD	00H
	DD	01H
CONST	ENDS
;	COMDAT xdata
xdata	SEGMENT
$unwind$??$_Insert_hint@AEAU?$pair@$$CBVCZString@Value@Json@@V23@@std@@PEAU?$_Tree_node@U?$pair@$$CBVCZString@Value@Json@@V23@@std@@PEAX@2@@?$_Tree@V?$_Tmap_traits@VCZString@Value@Json@@V23@U?$less@VCZString@Value@Json@@@std@@V?$allocator@U?$pair@$$CBVCZString@Value@Json@@V23@@std@@@5@$0A@@std@@@std@@IEAA?AV?$_Tree_iterator@V?$_Tree_val@U?$_Tree_simple_types@U?$pair@$$CBVCZString@Value@Json@@V23@@std@@@std@@@std@@@1@V?$_Tree_const_iterator@V?$_Tree_val@U?$_Tree_simple_types@U?$pair@$$CBVCZString@Value@Json@@V23@@std@@@std@@@std@@@1@AEAU?$pair@$$CBVCZString@Value@Json@@V23@@1@PEAU?$_Tree_node@U?$pair@$$CBVCZString@Value@Json@@V23@@std@@PEAX@1@@Z DD 0a2119H
	DD	0117421H
	DD	010641dH
	DD	0f3419H
	DD	0f009920dH
	DD	0c005e007H
	DD	imagerel __CxxFrameHandler3
	DD	imagerel $cppxdata$??$_Insert_hint@AEAU?$pair@$$CBVCZString@Value@Json@@V23@@std@@PEAU?$_Tree_node@U?$pair@$$CBVCZString@Value@Json@@V23@@std@@PEAX@2@@?$_Tree@V?$_Tmap_traits@VCZString@Value@Json@@V23@U?$less@VCZString@Value@Json@@@std@@V?$allocator@U?$pair@$$CBVCZString@Value@Json@@V23@@std@@@5@$0A@@std@@@std@@IEAA?AV?$_Tree_iterator@V?$_Tree_val@U?$_Tree_simple_types@U?$pair@$$CBVCZString@Value@Json@@V23@@std@@@std@@@std@@@1@V?$_Tree_const_iterator@V?$_Tree_val@U?$_Tree_simple_types@U?$pair@$$CBVCZString@Value@Json@@V23@@std@@@std@@@std@@@1@AEAU?$pair@$$CBVCZString@Value@Json@@V23@@1@PEAU?$_Tree_node@U?$pair@$$CBVCZString@Value@Json@@V23@@std@@PEAX@1@@Z
xdata	ENDS
;	COMDAT xdata
xdata	SEGMENT
$unwind$?catch$0@?0???$_Copy_nodes@U_Copy_tag@?$_Tree@V?$_Tmap_traits@VCZString@Value@Json@@V23@U?$less@VCZString@Value@Json@@@std@@V?$allocator@U?$pair@$$CBVCZString@Value@Json@@V23@@std@@@5@$0A@@std@@@std@@@?$_Tree@V?$_Tmap_traits@VCZString@Value@Json@@V23@U?$less@VCZString@Value@Json@@@std@@V?$allocator@U?$pair@$$CBVCZString@Value@Json@@V23@@std@@@5@$0A@@std@@@std@@IEAAPEAU?$_Tree_node@U?$pair@$$CBVCZString@Value@Json@@V23@@std@@PEAX@1@PEAU21@0U_Copy_tag@01@@Z@4HA DD 020a19H
	DD	05006320aH
	DD	imagerel __CxxFrameHandler3
	DD	imagerel $cppxdata$??$_Copy_nodes@U_Copy_tag@?$_Tree@V?$_Tmap_traits@VCZString@Value@Json@@V23@U?$less@VCZString@Value@Json@@@std@@V?$allocator@U?$pair@$$CBVCZString@Value@Json@@V23@@std@@@5@$0A@@std@@@std@@@?$_Tree@V?$_Tmap_traits@VCZString@Value@Json@@V23@U?$less@VCZString@Value@Json@@@std@@V?$allocator@U?$pair@$$CBVCZString@Value@Json@@V23@@std@@@5@$0A@@std@@@std@@IEAAPEAU?$_Tree_node@U?$pair@$$CBVCZString@Value@Json@@V23@@std@@PEAX@1@PEAU21@0U_Copy_tag@01@@Z
xdata	ENDS
;	COMDAT xdata
xdata	SEGMENT
$ip2state$??$_Copy_nodes@U_Copy_tag@?$_Tree@V?$_Tmap_traits@VCZString@Value@Json@@V23@U?$less@VCZString@Value@Json@@@std@@V?$allocator@U?$pair@$$CBVCZString@Value@Json@@V23@@std@@@5@$0A@@std@@@std@@@?$_Tree@V?$_Tmap_traits@VCZString@Value@Json@@V23@U?$less@VCZString@Value@Json@@@std@@V?$allocator@U?$pair@$$CBVCZString@Value@Json@@V23@@std@@@5@$0A@@std@@@std@@IEAAPEAU?$_Tree_node@U?$pair@$$CBVCZString@Value@Json@@V23@@std@@PEAX@1@PEAU21@0U_Copy_tag@01@@Z DD imagerel ??$_Copy_nodes@U_Copy_tag@?$_Tree@V?$_Tmap_traits@VCZString@Value@Json@@V23@U?$less@VCZString@Value@Json@@@std@@V?$allocator@U?$pair@$$CBVCZString@Value@Json@@V23@@std@@@5@$0A@@std@@@std@@@?$_Tree@V?$_Tmap_traits@VCZString@Value@Json@@V23@U?$less@VCZString@Value@Json@@@std@@V?$allocator@U?$pair@$$CBVCZString@Value@Json@@V23@@std@@@5@$0A@@std@@@std@@IEAAPEAU?$_Tree_node@U?$pair@$$CBVCZString@Value@Json@@V23@@std@@PEAX@1@PEAU21@0U_Copy_tag@01@@Z+57
	DD	0ffffffffH
	DD	imagerel ??$_Copy_nodes@U_Copy_tag@?$_Tree@V?$_Tmap_traits@VCZString@Value@Json@@V23@U?$less@VCZString@Value@Json@@@std@@V?$allocator@U?$pair@$$CBVCZString@Value@Json@@V23@@std@@@5@$0A@@std@@@std@@@?$_Tree@V?$_Tmap_traits@VCZString@Value@Json@@V23@U?$less@VCZString@Value@Json@@@std@@V?$allocator@U?$pair@$$CBVCZString@Value@Json@@V23@@std@@@5@$0A@@std@@@std@@IEAAPEAU?$_Tree_node@U?$pair@$$CBVCZString@Value@Json@@V23@@std@@PEAX@1@PEAU21@0U_Copy_tag@01@@Z+103
	DD	00H
	DD	imagerel ??$_Copy_nodes@U_Copy_tag@?$_Tree@V?$_Tmap_traits@VCZString@Value@Json@@V23@U?$less@VCZString@Value@Json@@@std@@V?$allocator@U?$pair@$$CBVCZString@Value@Json@@V23@@std@@@5@$0A@@std@@@std@@@?$_Tree@V?$_Tmap_traits@VCZString@Value@Json@@V23@U?$less@VCZString@Value@Json@@@std@@V?$allocator@U?$pair@$$CBVCZString@Value@Json@@V23@@std@@@5@$0A@@std@@@std@@IEAAPEAU?$_Tree_node@U?$pair@$$CBVCZString@Value@Json@@V23@@std@@PEAX@1@PEAU21@0U_Copy_tag@01@@Z+134
	DD	0ffffffffH
	DD	imagerel ?catch$0@?0???$_Copy_nodes@U_Copy_tag@?$_Tree@V?$_Tmap_traits@VCZString@Value@Json@@V23@U?$less@VCZString@Value@Json@@@std@@V?$allocator@U?$pair@$$CBVCZString@Value@Json@@V23@@std@@@5@$0A@@std@@@std@@@?$_Tree@V?$_Tmap_traits@VCZString@Value@Json@@V23@U?$less@VCZString@Value@Json@@@std@@V?$allocator@U?$pair@$$CBVCZString@Value@Json@@V23@@std@@@5@$0A@@std@@@std@@IEAAPEAU?$_Tree_node@U?$pair@$$CBVCZString@Value@Json@@V23@@std@@PEAX@1@PEAU21@0U_Copy_tag@01@@Z@4HA+21
	DD	01H
xdata	ENDS
;	COMDAT xdata
xdata	SEGMENT
$handlerMap$0$??$_Copy_nodes@U_Copy_tag@?$_Tree@V?$_Tmap_traits@VCZString@Value@Json@@V23@U?$less@VCZString@Value@Json@@@std@@V?$allocator@U?$pair@$$CBVCZString@Value@Json@@V23@@std@@@5@$0A@@std@@@std@@@?$_Tree@V?$_Tmap_traits@VCZString@Value@Json@@V23@U?$less@VCZString@Value@Json@@@std@@V?$allocator@U?$pair@$$CBVCZString@Value@Json@@V23@@std@@@5@$0A@@std@@@std@@IEAAPEAU?$_Tree_node@U?$pair@$$CBVCZString@Value@Json@@V23@@std@@PEAX@1@PEAU21@0U_Copy_tag@01@@Z DD 040H
	DD	00H
	DD	00H
	DD	imagerel ?catch$0@?0???$_Copy_nodes@U_Copy_tag@?$_Tree@V?$_Tmap_traits@VCZString@Value@Json@@V23@U?$less@VCZString@Value@Json@@@std@@V?$allocator@U?$pair@$$CBVCZString@Value@Json@@V23@@std@@@5@$0A@@std@@@std@@@?$_Tree@V?$_Tmap_traits@VCZString@Value@Json@@V23@U?$less@VCZString@Value@Json@@@std@@V?$allocator@U?$pair@$$CBVCZString@Value@Json@@V23@@std@@@5@$0A@@std@@@std@@IEAAPEAU?$_Tree_node@U?$pair@$$CBVCZString@Value@Json@@V23@@std@@PEAX@1@PEAU21@0U_Copy_tag@01@@Z@4HA
	DD	038H
xdata	ENDS
;	COMDAT xdata
xdata	SEGMENT
$tryMap$??$_Copy_nodes@U_Copy_tag@?$_Tree@V?$_Tmap_traits@VCZString@Value@Json@@V23@U?$less@VCZString@Value@Json@@@std@@V?$allocator@U?$pair@$$CBVCZString@Value@Json@@V23@@std@@@5@$0A@@std@@@std@@@?$_Tree@V?$_Tmap_traits@VCZString@Value@Json@@V23@U?$less@VCZString@Value@Json@@@std@@V?$allocator@U?$pair@$$CBVCZString@Value@Json@@V23@@std@@@5@$0A@@std@@@std@@IEAAPEAU?$_Tree_node@U?$pair@$$CBVCZString@Value@Json@@V23@@std@@PEAX@1@PEAU21@0U_Copy_tag@01@@Z DD 00H
	DD	00H
	DD	01H
	DD	01H
	DD	imagerel $handlerMap$0$??$_Copy_nodes@U_Copy_tag@?$_Tree@V?$_Tmap_traits@VCZString@Value@Json@@V23@U?$less@VCZString@Value@Json@@@std@@V?$allocator@U?$pair@$$CBVCZString@Value@Json@@V23@@std@@@5@$0A@@std@@@std@@@?$_Tree@V?$_Tmap_traits@VCZString@Value@Json@@V23@U?$less@VCZString@Value@Json@@@std@@V?$allocator@U?$pair@$$CBVCZString@Value@Json@@V23@@std@@@5@$0A@@std@@@std@@IEAAPEAU?$_Tree_node@U?$pair@$$CBVCZString@Value@Json@@V23@@std@@PEAX@1@PEAU21@0U_Copy_tag@01@@Z
xdata	ENDS
;	COMDAT xdata
xdata	SEGMENT
$stateUnwindMap$??$_Copy_nodes@U_Copy_tag@?$_Tree@V?$_Tmap_traits@VCZString@Value@Json@@V23@U?$less@VCZString@Value@Json@@@std@@V?$allocator@U?$pair@$$CBVCZString@Value@Json@@V23@@std@@@5@$0A@@std@@@std@@@?$_Tree@V?$_Tmap_traits@VCZString@Value@Json@@V23@U?$less@VCZString@Value@Json@@@std@@V?$allocator@U?$pair@$$CBVCZString@Value@Json@@V23@@std@@@5@$0A@@std@@@std@@IEAAPEAU?$_Tree_node@U?$pair@$$CBVCZString@Value@Json@@V23@@std@@PEAX@1@PEAU21@0U_Copy_tag@01@@Z DD 0ffffffffH
	DD	00H
	DD	0ffffffffH
	DD	00H
xdata	ENDS
;	COMDAT CONST
CONST	SEGMENT
$cppxdata$??$_Copy_nodes@U_Copy_tag@?$_Tree@V?$_Tmap_traits@VCZString@Value@Json@@V23@U?$less@VCZString@Value@Json@@@std@@V?$allocator@U?$pair@$$CBVCZString@Value@Json@@V23@@std@@@5@$0A@@std@@@std@@@?$_Tree@V?$_Tmap_traits@VCZString@Value@Json@@V23@U?$less@VCZString@Value@Json@@@std@@V?$allocator@U?$pair@$$CBVCZString@Value@Json@@V23@@std@@@5@$0A@@std@@@std@@IEAAPEAU?$_Tree_node@U?$pair@$$CBVCZString@Value@Json@@V23@@std@@PEAX@1@PEAU21@0U_Copy_tag@01@@Z DD 019930522H
	DD	02H
	DD	imagerel $stateUnwindMap$??$_Copy_nodes@U_Copy_tag@?$_Tree@V?$_Tmap_traits@VCZString@Value@Json@@V23@U?$less@VCZString@Value@Json@@@std@@V?$allocator@U?$pair@$$CBVCZString@Value@Json@@V23@@std@@@5@$0A@@std@@@std@@@?$_Tree@V?$_Tmap_traits@VCZString@Value@Json@@V23@U?$less@VCZString@Value@Json@@@std@@V?$allocator@U?$pair@$$CBVCZString@Value@Json@@V23@@std@@@5@$0A@@std@@@std@@IEAAPEAU?$_Tree_node@U?$pair@$$CBVCZString@Value@Json@@V23@@std@@PEAX@1@PEAU21@0U_Copy_tag@01@@Z
	DD	01H
	DD	imagerel $tryMap$??$_Copy_nodes@U_Copy_tag@?$_Tree@V?$_Tmap_traits@VCZString@Value@Json@@V23@U?$less@VCZString@Value@Json@@@std@@V?$allocator@U?$pair@$$CBVCZString@Value@Json@@V23@@std@@@5@$0A@@std@@@std@@@?$_Tree@V?$_Tmap_traits@VCZString@Value@Json@@V23@U?$less@VCZString@Value@Json@@@std@@V?$allocator@U?$pair@$$CBVCZString@Value@Json@@V23@@std@@@5@$0A@@std@@@std@@IEAAPEAU?$_Tree_node@U?$pair@$$CBVCZString@Value@Json@@V23@@std@@PEAX@1@PEAU21@0U_Copy_tag@01@@Z
	DD	04H
	DD	imagerel $ip2state$??$_Copy_nodes@U_Copy_tag@?$_Tree@V?$_Tmap_traits@VCZString@Value@Json@@V23@U?$less@VCZString@Value@Json@@@std@@V?$allocator@U?$pair@$$CBVCZString@Value@Json@@V23@@std@@@5@$0A@@std@@@std@@@?$_Tree@V?$_Tmap_traits@VCZString@Value@Json@@V23@U?$less@VCZString@Value@Json@@@std@@V?$allocator@U?$pair@$$CBVCZString@Value@Json@@V23@@std@@@5@$0A@@std@@@std@@IEAAPEAU?$_Tree_node@U?$pair@$$CBVCZString@Value@Json@@V23@@std@@PEAX@1@PEAU21@0U_Copy_tag@01@@Z
	DD	020H
	DD	00H
	DD	01H
CONST	ENDS
;	COMDAT xdata
xdata	SEGMENT
$unwind$??$_Copy_nodes@U_Copy_tag@?$_Tree@V?$_Tmap_traits@VCZString@Value@Json@@V23@U?$less@VCZString@Value@Json@@@std@@V?$allocator@U?$pair@$$CBVCZString@Value@Json@@V23@@std@@@5@$0A@@std@@@std@@@?$_Tree@V?$_Tmap_traits@VCZString@Value@Json@@V23@U?$less@VCZString@Value@Json@@@std@@V?$allocator@U?$pair@$$CBVCZString@Value@Json@@V23@@std@@@5@$0A@@std@@@std@@IEAAPEAU?$_Tree_node@U?$pair@$$CBVCZString@Value@Json@@V23@@std@@PEAX@1@PEAU21@0U_Copy_tag@01@@Z DD 081f19H
	DD	0e341fH
	DD	0f00d5211H
	DD	0c009e00bH
	DD	060067007H
	DD	imagerel __CxxFrameHandler3
	DD	imagerel $cppxdata$??$_Copy_nodes@U_Copy_tag@?$_Tree@V?$_Tmap_traits@VCZString@Value@Json@@V23@U?$less@VCZString@Value@Json@@@std@@V?$allocator@U?$pair@$$CBVCZString@Value@Json@@V23@@std@@@5@$0A@@std@@@std@@@?$_Tree@V?$_Tmap_traits@VCZString@Value@Json@@V23@U?$less@VCZString@Value@Json@@@std@@V?$allocator@U?$pair@$$CBVCZString@Value@Json@@V23@@std@@@5@$0A@@std@@@std@@IEAAPEAU?$_Tree_node@U?$pair@$$CBVCZString@Value@Json@@V23@@std@@PEAX@1@PEAU21@0U_Copy_tag@01@@Z
xdata	ENDS
;	COMDAT xdata
xdata	SEGMENT
$ip2state$?_Freenode0@?$_Tree_comp_alloc@V?$_Tmap_traits@VCZString@Value@Json@@V23@U?$less@VCZString@Value@Json@@@std@@V?$allocator@U?$pair@$$CBVCZString@Value@Json@@V23@@std@@@5@$0A@@std@@@std@@QEAAXPEAU?$_Tree_node@U?$pair@$$CBVCZString@Value@Json@@V23@@std@@PEAX@2@@Z DD imagerel ?_Freenode0@?$_Tree_comp_alloc@V?$_Tmap_traits@VCZString@Value@Json@@V23@U?$less@VCZString@Value@Json@@@std@@V?$allocator@U?$pair@$$CBVCZString@Value@Json@@V23@@std@@@5@$0A@@std@@@std@@QEAAXPEAU?$_Tree_node@U?$pair@$$CBVCZString@Value@Json@@V23@@std@@PEAX@2@@Z+21
	DD	00H
xdata	ENDS
;	COMDAT xdata
xdata	SEGMENT
$stateUnwindMap$?_Freenode0@?$_Tree_comp_alloc@V?$_Tmap_traits@VCZString@Value@Json@@V23@U?$less@VCZString@Value@Json@@@std@@V?$allocator@U?$pair@$$CBVCZString@Value@Json@@V23@@std@@@5@$0A@@std@@@std@@QEAAXPEAU?$_Tree_node@U?$pair@$$CBVCZString@Value@Json@@V23@@std@@PEAX@2@@Z DD 0ffffffffH
	DD	imagerel __imp___std_terminate
xdata	ENDS
;	COMDAT CONST
CONST	SEGMENT
$cppxdata$?_Freenode0@?$_Tree_comp_alloc@V?$_Tmap_traits@VCZString@Value@Json@@V23@U?$less@VCZString@Value@Json@@@std@@V?$allocator@U?$pair@$$CBVCZString@Value@Json@@V23@@std@@@5@$0A@@std@@@std@@QEAAXPEAU?$_Tree_node@U?$pair@$$CBVCZString@Value@Json@@V23@@std@@PEAX@2@@Z DD 019930522H
	DD	01H
	DD	imagerel $stateUnwindMap$?_Freenode0@?$_Tree_comp_alloc@V?$_Tmap_traits@VCZString@Value@Json@@V23@U?$less@VCZString@Value@Json@@@std@@V?$allocator@U?$pair@$$CBVCZString@Value@Json@@V23@@std@@@5@$0A@@std@@@std@@QEAAXPEAU?$_Tree_node@U?$pair@$$CBVCZString@Value@Json@@V23@@std@@PEAX@2@@Z
	DD	00H
	DD	00H
	DD	01H
	DD	imagerel $ip2state$?_Freenode0@?$_Tree_comp_alloc@V?$_Tmap_traits@VCZString@Value@Json@@V23@U?$less@VCZString@Value@Json@@@std@@V?$allocator@U?$pair@$$CBVCZString@Value@Json@@V23@@std@@@5@$0A@@std@@@std@@QEAAXPEAU?$_Tree_node@U?$pair@$$CBVCZString@Value@Json@@V23@@std@@PEAX@2@@Z
	DD	020H
	DD	00H
	DD	01H
CONST	ENDS
;	COMDAT xdata
xdata	SEGMENT
$unwind$?_Freenode0@?$_Tree_comp_alloc@V?$_Tmap_traits@VCZString@Value@Json@@V23@U?$less@VCZString@Value@Json@@@std@@V?$allocator@U?$pair@$$CBVCZString@Value@Json@@V23@@std@@@5@$0A@@std@@@std@@QEAAXPEAU?$_Tree_node@U?$pair@$$CBVCZString@Value@Json@@V23@@std@@PEAX@2@@Z DD 010d11H
	DD	06204H
	DD	imagerel __CxxFrameHandler3
	DD	imagerel $cppxdata$?_Freenode0@?$_Tree_comp_alloc@V?$_Tmap_traits@VCZString@Value@Json@@V23@U?$less@VCZString@Value@Json@@@std@@V?$allocator@U?$pair@$$CBVCZString@Value@Json@@V23@@std@@@5@$0A@@std@@@std@@QEAAXPEAU?$_Tree_node@U?$pair@$$CBVCZString@Value@Json@@V23@@std@@PEAX@2@@Z
xdata	ENDS
;	COMDAT xdata
xdata	SEGMENT
$unwind$?_Buynode0@?$_Tree_comp_alloc@V?$_Tmap_traits@VCZString@Value@Json@@V23@U?$less@VCZString@Value@Json@@@std@@V?$allocator@U?$pair@$$CBVCZString@Value@Json@@V23@@std@@@5@$0A@@std@@@std@@QEAAPEAU?$_Tree_node@U?$pair@$$CBVCZString@Value@Json@@V23@@std@@PEAX@2@XZ DD 040a01H
	DD	06340aH
	DD	07006320aH
xdata	ENDS
;	COMDAT xdata
xdata	SEGMENT
