; Listing generated by Microsoft (R) Optimizing Compiler Version 19.16.27027.1 

include listing.inc


PUBLIC	??_C@_0EC@HCHNIDLM@A?5valid?5JSON?5document?5must?5be?5e@ ; `string'
PUBLIC	??_C@_0CP@GDDNKEK@Syntax?5error?3?5value?0?5object?5or?5@ ; `string'
PUBLIC	??_C@_03FFDNHNKN@rue@				; `string'
PUBLIC	??_C@_04KCECFHEP@alse@				; `string'
PUBLIC	??_C@_03KNPGGKC@ull@				; `string'
PUBLIC	??_C@_0CF@GCCDMCPH@Missing?5?8?3?8?5after?5object?5member@ ; `string'
PUBLIC	??_C@_0CJ@NGKOAFKA@Missing?5?8?0?8?5or?5?8?$HN?8?5in?5object?5de@ ; `string'
PUBLIC	??_C@_0CC@JNCGHFHN@Missing?5?8?$HN?8?5or?5object?5member?5na@ ; `string'
PUBLIC	??_C@_0CI@DPCANLPO@Missing?5?8?0?8?5or?5?8?$FN?8?5in?5array?5dec@ ; `string'
PUBLIC	??_C@_0BD@HHNBFDKF@?8?5is?5not?5a?5number?4@	; `string'
PUBLIC	??_C@_01GEODFPGF@?8@				; `string'
PUBLIC	??_C@_03DLDNIBIK@?$CFlf@			; `string'
PUBLIC	??_C@_0CA@DPGKPPOE@Empty?5escape?5sequence?5in?5string@ ; `string'
PUBLIC	??_C@_0BO@NDEEJNNB@Bad?5escape?5sequence?5in?5string@ ; `string'
PUBLIC	??_C@_0EE@LMPEHADE@additional?5six?5characters?5expec@ ; `string'
PUBLIC	??_C@_0FA@BGMMPLKB@expecting?5another?5?2u?5token?5to?5b@ ; `string'
PUBLIC	??_C@_0DN@BPAHJPFJ@Bad?5unicode?5escape?5sequence?5in?5@ ; `string'
PUBLIC	??_C@_0ED@FIDDECIG@Bad?5unicode?5escape?5sequence?5in?5@ ; `string'
PUBLIC	??_C@_0BD@LAMGIMLG@Line?5?$CFd?0?5Column?5?$CFd@ ; `string'
PUBLIC	??_C@_02KAOAMBHJ@?$CK?5@			; `string'
PUBLIC	??_C@_02KNHHEEKP@?5?5@				; `string'
PUBLIC	??_C@_0O@JBAGGIKP@?5for?5detail?4?6@		; `string'
PUBLIC	??_C@_04JBAOJHKB@See?5@				; `string'
PUBLIC	??_C@_0BC@KBDMBKEH@deque?$DMT?$DO?5too?5long@	; `string'
EXTRN	__imp_?sgetc@?$basic_streambuf@DU?$char_traits@D@std@@@std@@QEAAHXZ:PROC
EXTRN	__imp_?sbumpc@?$basic_streambuf@DU?$char_traits@D@std@@@std@@QEAAHXZ:PROC
EXTRN	__imp_?snextc@?$basic_streambuf@DU?$char_traits@D@std@@@std@@QEAAHXZ:PROC
EXTRN	__imp_?_Ipfx@?$basic_istream@DU?$char_traits@D@std@@@std@@QEAA_N_N@Z:PROC
EXTRN	__imp___stdio_common_vsscanf:PROC
EXTRN	__imp___stdio_common_vsprintf:PROC
EXTRN	__report_rangecheckfailure:PROC
;	COMDAT ??_C@_0BC@KBDMBKEH@deque?$DMT?$DO?5too?5long@
CONST	SEGMENT
??_C@_0BC@KBDMBKEH@deque?$DMT?$DO?5too?5long@ DB 'deque<T> too long', 00H ; `string'
CONST	ENDS
;	COMDAT ??_C@_04JBAOJHKB@See?5@
CONST	SEGMENT
??_C@_04JBAOJHKB@See?5@ DB 'See ', 00H			; `string'
CONST	ENDS
;	COMDAT ??_C@_0O@JBAGGIKP@?5for?5detail?4?6@
CONST	SEGMENT
??_C@_0O@JBAGGIKP@?5for?5detail?4?6@ DB ' for detail.', 0aH, 00H ; `string'
CONST	ENDS
;	COMDAT ??_C@_02KNHHEEKP@?5?5@
CONST	SEGMENT
??_C@_02KNHHEEKP@?5?5@ DB '  ', 00H			; `string'
CONST	ENDS
;	COMDAT ??_C@_02KAOAMBHJ@?$CK?5@
CONST	SEGMENT
??_C@_02KAOAMBHJ@?$CK?5@ DB '* ', 00H			; `string'
CONST	ENDS
;	COMDAT ??_C@_0BD@LAMGIMLG@Line?5?$CFd?0?5Column?5?$CFd@
CONST	SEGMENT
??_C@_0BD@LAMGIMLG@Line?5?$CFd?0?5Column?5?$CFd@ DB 'Line %d, Column %d', 00H ; `string'
CONST	ENDS
;	COMDAT ??_C@_0ED@FIDDECIG@Bad?5unicode?5escape?5sequence?5in?5@
CONST	SEGMENT
??_C@_0ED@FIDDECIG@Bad?5unicode?5escape?5sequence?5in?5@ DB 'Bad unicode '
	DB	'escape sequence in string: hexadecimal digit expected.', 00H ; `string'
CONST	ENDS
;	COMDAT ??_C@_0DN@BPAHJPFJ@Bad?5unicode?5escape?5sequence?5in?5@
CONST	SEGMENT
??_C@_0DN@BPAHJPFJ@Bad?5unicode?5escape?5sequence?5in?5@ DB 'Bad unicode '
	DB	'escape sequence in string: four digits expected.', 00H ; `string'
CONST	ENDS
;	COMDAT ??_C@_0FA@BGMMPLKB@expecting?5another?5?2u?5token?5to?5b@
CONST	SEGMENT
??_C@_0FA@BGMMPLKB@expecting?5another?5?2u?5token?5to?5b@ DB 'expecting a'
	DB	'nother \u token to begin the second half of a unicode surroga'
	DB	'te pair', 00H				; `string'
CONST	ENDS
;	COMDAT ??_C@_0EE@LMPEHADE@additional?5six?5characters?5expec@
CONST	SEGMENT
??_C@_0EE@LMPEHADE@additional?5six?5characters?5expec@ DB 'additional six'
	DB	' characters expected to parse unicode surrogate pair.', 00H ; `string'
CONST	ENDS
;	COMDAT ??_C@_0BO@NDEEJNNB@Bad?5escape?5sequence?5in?5string@
CONST	SEGMENT
??_C@_0BO@NDEEJNNB@Bad?5escape?5sequence?5in?5string@ DB 'Bad escape sequ'
	DB	'ence in string', 00H			; `string'
CONST	ENDS
;	COMDAT ??_C@_0CA@DPGKPPOE@Empty?5escape?5sequence?5in?5string@
CONST	SEGMENT
??_C@_0CA@DPGKPPOE@Empty?5escape?5sequence?5in?5string@ DB 'Empty escape '
	DB	'sequence in string', 00H			; `string'
CONST	ENDS
;	COMDAT ??_C@_03DLDNIBIK@?$CFlf@
CONST	SEGMENT
??_C@_03DLDNIBIK@?$CFlf@ DB '%lf', 00H			; `string'
CONST	ENDS
;	COMDAT ??_C@_01GEODFPGF@?8@
CONST	SEGMENT
??_C@_01GEODFPGF@?8@ DB '''', 00H			; `string'
CONST	ENDS
;	COMDAT ??_C@_0BD@HHNBFDKF@?8?5is?5not?5a?5number?4@
CONST	SEGMENT
??_C@_0BD@HHNBFDKF@?8?5is?5not?5a?5number?4@ DB ''' is not a number.', 00H ; `string'
CONST	ENDS
;	COMDAT ??_C@_0CI@DPCANLPO@Missing?5?8?0?8?5or?5?8?$FN?8?5in?5array?5dec@
CONST	SEGMENT
??_C@_0CI@DPCANLPO@Missing?5?8?0?8?5or?5?8?$FN?8?5in?5array?5dec@ DB 'Mis'
	DB	'sing '','' or '']'' in array declaration', 00H ; `string'
CONST	ENDS
;	COMDAT ??_C@_0CC@JNCGHFHN@Missing?5?8?$HN?8?5or?5object?5member?5na@
CONST	SEGMENT
??_C@_0CC@JNCGHFHN@Missing?5?8?$HN?8?5or?5object?5member?5na@ DB 'Missing'
	DB	' ''}'' or object member name', 00H		; `string'
CONST	ENDS
;	COMDAT ??_C@_0CJ@NGKOAFKA@Missing?5?8?0?8?5or?5?8?$HN?8?5in?5object?5de@
CONST	SEGMENT
??_C@_0CJ@NGKOAFKA@Missing?5?8?0?8?5or?5?8?$HN?8?5in?5object?5de@ DB 'Mis'
	DB	'sing '','' or ''}'' in object declaration', 00H ; `string'
CONST	ENDS
;	COMDAT ??_C@_0CF@GCCDMCPH@Missing?5?8?3?8?5after?5object?5member@
CONST	SEGMENT
??_C@_0CF@GCCDMCPH@Missing?5?8?3?8?5after?5object?5member@ DB 'Missing '''
	DB	':'' after object member name', 00H		; `string'
CONST	ENDS
;	COMDAT ??_C@_03KNPGGKC@ull@
CONST	SEGMENT
??_C@_03KNPGGKC@ull@ DB 'ull', 00H			; `string'
CONST	ENDS
;	COMDAT ??_C@_04KCECFHEP@alse@
CONST	SEGMENT
??_C@_04KCECFHEP@alse@ DB 'alse', 00H			; `string'
CONST	ENDS
;	COMDAT ??_C@_03FFDNHNKN@rue@
CONST	SEGMENT
??_C@_03FFDNHNKN@rue@ DB 'rue', 00H			; `string'
CONST	ENDS
;	COMDAT ??_C@_0CP@GDDNKEK@Syntax?5error?3?5value?0?5object?5or?5@
CONST	SEGMENT
??_C@_0CP@GDDNKEK@Syntax?5error?3?5value?0?5object?5or?5@ DB 'Syntax erro'
	DB	'r: value, object or array expected.', 00H	; `string'
CONST	ENDS
;	COMDAT ??_C@_0EC@HCHNIDLM@A?5valid?5JSON?5document?5must?5be?5e@
CONST	SEGMENT
??_C@_0EC@HCHNIDLM@A?5valid?5JSON?5document?5must?5be?5e@ DB 'A valid JSO'
	DB	'N document must be either an array or an object value.', 00H ; `string'
PUBLIC	??$_Zero_range@PEAPEAPEAVValue@Json@@@std@@YAPEAPEAPEAVValue@Json@@QEAPEAPEAV12@0@Z ; std::_Zero_range<Json::Value * * *>
PUBLIC	??$_Copy_memmove@PEAPEAPEAVValue@Json@@PEAPEAPEAV12@@std@@YAPEAPEAPEAVValue@Json@@PEAPEAPEAV12@00@Z ; std::_Copy_memmove<Json::Value * * *,Json::Value * * *>
PUBLIC	??$_Zero_range@PEAPEAVErrorInfo@Reader@Json@@@std@@YAPEAPEAVErrorInfo@Reader@Json@@QEAPEAV123@0@Z ; std::_Zero_range<Json::Reader::ErrorInfo * *>
PUBLIC	??$_Copy_memmove@PEAPEAVErrorInfo@Reader@Json@@PEAPEAV123@@std@@YAPEAPEAVErrorInfo@Reader@Json@@PEAPEAV123@00@Z ; std::_Copy_memmove<Json::Reader::ErrorInfo * *,Json::Reader::ErrorInfo * *>
PUBLIC	??$_Destroy_range1@V?$allocator@PEAPEAVValue@Json@@@std@@@std@@YAXPEAPEAPEAVValue@Json@@0AEAV?$allocator@PEAPEAVValue@Json@@@0@U?$integral_constant@_N$00@0@@Z ; std::_Destroy_range1<std::allocator<Json::Value * *> >
PUBLIC	??$_Uninitialized_value_construct_n1@PEAPEAPEAVValue@Json@@_KV?$allocator@PEAPEAVValue@Json@@@std@@@std@@YAPEAPEAPEAVValue@Json@@PEAPEAPEAV12@_KAEAV?$allocator@PEAPEAVValue@Json@@@0@U?$integral_constant@_N$00@0@@Z ; std::_Uninitialized_value_construct_n1<Json::Value * * *,unsigned __int64,std::allocator<Json::Value * *> >
PUBLIC	??$_Seek_wrapped@PEAPEAVValue@Json@@@std@@YAXAEAPEAPEAPEAVValue@Json@@QEAPEAPEAV12@@Z ; std::_Seek_wrapped<Json::Value * *>
PUBLIC	??$_Uninitialized_copy_al_unchecked@PEAPEAVValue@Json@@PEAPEAV12@V?$allocator@PEAPEAVValue@Json@@@std@@@std@@YAPEAPEAPEAVValue@Json@@QEAPEAPEAV12@00AEAV?$allocator@PEAPEAVValue@Json@@@0@U_Really_trivial_ptr_iterator_tag@0@U?$integral_constant@_N$00@0@@Z ; std::_Uninitialized_copy_al_unchecked<Json::Value * *,Json::Value * *,std::allocator<Json::Value * *> >
PUBLIC	??$_Ptr_copy_cat@PEAPEAVValue@Json@@PEAPEAV12@@std@@YA?AU_Really_trivial_ptr_iterator_tag@0@AEBQEAPEAPEAVValue@Json@@0@Z ; std::_Ptr_copy_cat<Json::Value * *,Json::Value * *>
PUBLIC	??$_Get_unwrapped_n@PEAPEAVValue@Json@@_J$0A@@std@@YAPEAPEAPEAVValue@Json@@QEAPEAPEAV12@_J@Z ; std::_Get_unwrapped_n<Json::Value * *,__int64,0>
PUBLIC	??$_Idl_distance1@PEAPEAPEAVValue@Json@@PEAPEAPEAV12@@std@@YA_JAEBQEAPEAPEAVValue@Json@@0Urandom_access_iterator_tag@0@@Z ; std::_Idl_distance1<Json::Value * * *,Json::Value * * *>
PUBLIC	??$_Get_unwrapped@PEAPEAVValue@Json@@@std@@YAPEAPEAPEAVValue@Json@@QEAPEAPEAV12@@Z ; std::_Get_unwrapped<Json::Value * *>
PUBLIC	??$forward@U_Container_proxy@std@@@std@@YA$$QEAU_Container_proxy@0@AEAU10@@Z ; std::forward<std::_Container_proxy>
PUBLIC	??$_Destroy_range1@V?$allocator@PEAVErrorInfo@Reader@Json@@@std@@@std@@YAXPEAPEAVErrorInfo@Reader@Json@@0AEAV?$allocator@PEAVErrorInfo@Reader@Json@@@0@U?$integral_constant@_N$00@0@@Z ; std::_Destroy_range1<std::allocator<Json::Reader::ErrorInfo *> >
PUBLIC	??$_Uninitialized_value_construct_n1@PEAPEAVErrorInfo@Reader@Json@@_KV?$allocator@PEAVErrorInfo@Reader@Json@@@std@@@std@@YAPEAPEAVErrorInfo@Reader@Json@@PEAPEAV123@_KAEAV?$allocator@PEAVErrorInfo@Reader@Json@@@0@U?$integral_constant@_N$00@0@@Z ; std::_Uninitialized_value_construct_n1<Json::Reader::ErrorInfo * *,unsigned __int64,std::allocator<Json::Reader::ErrorInfo *> >
PUBLIC	??$_Seek_wrapped@PEAVErrorInfo@Reader@Json@@@std@@YAXAEAPEAPEAVErrorInfo@Reader@Json@@QEAPEAV123@@Z ; std::_Seek_wrapped<Json::Reader::ErrorInfo *>
PUBLIC	??$_Uninitialized_copy_al_unchecked@PEAVErrorInfo@Reader@Json@@PEAV123@V?$allocator@PEAVErrorInfo@Reader@Json@@@std@@@std@@YAPEAPEAVErrorInfo@Reader@Json@@QEAPEAV123@00AEAV?$allocator@PEAVErrorInfo@Reader@Json@@@0@U_Really_trivial_ptr_iterator_tag@0@U?$integral_constant@_N$00@0@@Z ; std::_Uninitialized_copy_al_unchecked<Json::Reader::ErrorInfo *,Json::Reader::ErrorInfo *,std::allocator<Json::Reader::ErrorInfo *> >
PUBLIC	??$_Ptr_copy_cat@PEAVErrorInfo@Reader@Json@@PEAV123@@std@@YA?AU_Really_trivial_ptr_iterator_tag@0@AEBQEAPEAVErrorInfo@Reader@Json@@0@Z ; std::_Ptr_copy_cat<Json::Reader::ErrorInfo *,Json::Reader::ErrorInfo *>
PUBLIC	??$_Get_unwrapped_n@PEAVErrorInfo@Reader@Json@@_J$0A@@std@@YAPEAPEAVErrorInfo@Reader@Json@@QEAPEAV123@_J@Z ; std::_Get_unwrapped_n<Json::Reader::ErrorInfo *,__int64,0>
PUBLIC	??$_Idl_distance1@PEAPEAVErrorInfo@Reader@Json@@PEAPEAV123@@std@@YA_JAEBQEAPEAVErrorInfo@Reader@Json@@0Urandom_access_iterator_tag@0@@Z ; std::_Idl_distance1<Json::Reader::ErrorInfo * *,Json::Reader::ErrorInfo * *>
PUBLIC	??$_Get_unwrapped@PEAVErrorInfo@Reader@Json@@@std@@YAPEAPEAVErrorInfo@Reader@Json@@QEAPEAV123@@Z ; std::_Get_unwrapped<Json::Reader::ErrorInfo *>
PUBLIC	??$forward@PEAVValue@Json@@@std@@YA$$QEAPEAVValue@Json@@AEAPEAV12@@Z ; std::forward<Json::Value *>
PUBLIC	??$forward@AEBVErrorInfo@Reader@Json@@@std@@YAAEBVErrorInfo@Reader@Json@@AEBV123@@Z ; std::forward<Json::Reader::ErrorInfo const &>
PUBLIC	??0?$allocator@VErrorInfo@Reader@Json@@@std@@QEAA@XZ ; std::allocator<Json::Reader::ErrorInfo>::allocator<Json::Reader::ErrorInfo>
PUBLIC	??0?$allocator@PEAVValue@Json@@@std@@QEAA@XZ	; std::allocator<Json::Value *>::allocator<Json::Value *>
PUBLIC	??0?$_Deque_val@U?$_Deque_simple_types@PEAVValue@Json@@@std@@@std@@QEAA@XZ ; std::_Deque_val<std::_Deque_simple_types<Json::Value *> >::_Deque_val<std::_Deque_simple_types<Json::Value *> >
PUBLIC	??0?$_Deque_val@U?$_Deque_simple_types@VErrorInfo@Reader@Json@@@std@@@std@@QEAA@XZ ; std::_Deque_val<std::_Deque_simple_types<Json::Reader::ErrorInfo> >::_Deque_val<std::_Deque_simple_types<Json::Reader::ErrorInfo> >
PUBLIC	?deallocate@?$_Default_allocator_traits@V?$allocator@U_Container_proxy@std@@@std@@@std@@SAXAEAV?$allocator@U_Container_proxy@std@@@2@QEAU_Container_proxy@2@_K@Z ; std::_Default_allocator_traits<std::allocator<std::_Container_proxy> >::deallocate
PUBLIC	??_GErrorInfo@Reader@Json@@QEAAPEAXI@Z		; Json::Reader::ErrorInfo::`scalar deleting destructor'
PUBLIC	??0ErrorInfo@Reader@Json@@QEAA@AEBV012@@Z	; Json::Reader::ErrorInfo::ErrorInfo
PUBLIC	??$_Get_size_of_n@$0BA@@std@@YA_K_K@Z		; std::_Get_size_of_n<16>
PUBLIC	??$addressof@V?$_Deque_val@U?$_Deque_simple_types@PEAVValue@Json@@@std@@@std@@@std@@YAPEAV?$_Deque_val@U?$_Deque_simple_types@PEAVValue@Json@@@std@@@0@AEAV10@@Z ; std::addressof<std::_Deque_val<std::_Deque_simple_types<Json::Value *> > >
PUBLIC	??$_Destroy_range@V?$allocator@PEAPEAVValue@Json@@@std@@@std@@YAXPEAPEAPEAVValue@Json@@0AEAV?$allocator@PEAPEAVValue@Json@@@0@@Z ; std::_Destroy_range<std::allocator<Json::Value * *> >
PUBLIC	??$_Uninitialized_value_construct_n@PEAPEAPEAVValue@Json@@_KV?$allocator@PEAPEAVValue@Json@@@std@@@std@@YAPEAPEAPEAVValue@Json@@PEAPEAPEAV12@_KAEAV?$allocator@PEAPEAVValue@Json@@@0@@Z ; std::_Uninitialized_value_construct_n<Json::Value * * *,unsigned __int64,std::allocator<Json::Value * *> >
PUBLIC	??$_Idl_distance@PEAPEAPEAVValue@Json@@PEAPEAPEAV12@@std@@YA_JAEBQEAPEAPEAVValue@Json@@0@Z ; std::_Idl_distance<Json::Value * * *,Json::Value * * *>
PUBLIC	??$_Uninitialized_copy@PEAPEAPEAVValue@Json@@PEAPEAPEAV12@V?$allocator@PEAPEAVValue@Json@@@std@@@std@@YAPEAPEAPEAVValue@Json@@QEAPEAPEAV12@0PEAPEAPEAV12@AEAV?$allocator@PEAPEAVValue@Json@@@0@@Z ; std::_Uninitialized_copy<Json::Value * * *,Json::Value * * *,std::allocator<Json::Value * *> >
PUBLIC	??$?0$$V@?$_Compressed_pair@V?$allocator@PEAVValue@Json@@@std@@V?$_Deque_val@U?$_Deque_simple_types@PEAVValue@Json@@@std@@@2@$00@std@@QEAA@U_Zero_then_variadic_args_t@1@@Z ; std::_Compressed_pair<std::allocator<Json::Value *>,std::_Deque_val<std::_Deque_simple_types<Json::Value *> >,1>::_Compressed_pair<std::allocator<Json::Value *>,std::_Deque_val<std::_Deque_simple_types<Json::Value *> >,1><>
PUBLIC	??$?0PEAVValue@Json@@@?$allocator@U_Container_proxy@std@@@std@@QEAA@AEBV?$allocator@PEAVValue@Json@@@1@@Z ; std::allocator<std::_Container_proxy>::allocator<std::_Container_proxy><Json::Value *>
PUBLIC	??$addressof@V?$_Deque_val@U?$_Deque_simple_types@VErrorInfo@Reader@Json@@@std@@@std@@@std@@YAPEAV?$_Deque_val@U?$_Deque_simple_types@VErrorInfo@Reader@Json@@@std@@@0@AEAV10@@Z ; std::addressof<std::_Deque_val<std::_Deque_simple_types<Json::Reader::ErrorInfo> > >
PUBLIC	??$construct@U_Container_proxy@std@@U12@@?$_Default_allocator_traits@V?$allocator@U_Container_proxy@std@@@std@@@std@@SAXAEAV?$allocator@U_Container_proxy@std@@@1@QEAU_Container_proxy@1@$$QEAU31@@Z ; std::_Default_allocator_traits<std::allocator<std::_Container_proxy> >::construct<std::_Container_proxy,std::_Container_proxy>
PUBLIC	??$_Unfancy@U_Container_proxy@std@@@std@@YAPEAU_Container_proxy@0@PEAU10@@Z ; std::_Unfancy<std::_Container_proxy>
PUBLIC	??$_Deallocate_plain@V?$allocator@U_Container_proxy@std@@@std@@$0A@@std@@YAXAEAV?$allocator@U_Container_proxy@std@@@0@QEAU_Container_proxy@0@@Z ; std::_Deallocate_plain<std::allocator<std::_Container_proxy>,0>
PUBLIC	??$destroy@U_Container_proxy@std@@@?$_Default_allocator_traits@V?$allocator@U_Container_proxy@std@@@std@@@std@@SAXAEAV?$allocator@U_Container_proxy@std@@@1@QEAU_Container_proxy@1@@Z ; std::_Default_allocator_traits<std::allocator<std::_Container_proxy> >::destroy<std::_Container_proxy>
PUBLIC	??$?0VErrorInfo@Reader@Json@@@?$allocator@U_Container_proxy@std@@@std@@QEAA@AEBV?$allocator@VErrorInfo@Reader@Json@@@1@@Z ; std::allocator<std::_Container_proxy>::allocator<std::_Container_proxy><Json::Reader::ErrorInfo>
PUBLIC	??$_Get_size_of_n@$0EA@@std@@YA_K_K@Z		; std::_Get_size_of_n<64>
PUBLIC	??$destroy@VErrorInfo@Reader@Json@@@?$_Default_allocator_traits@V?$allocator@VErrorInfo@Reader@Json@@@std@@@std@@SAXAEAV?$allocator@VErrorInfo@Reader@Json@@@1@QEAVErrorInfo@Reader@Json@@@Z ; std::_Default_allocator_traits<std::allocator<Json::Reader::ErrorInfo> >::destroy<Json::Reader::ErrorInfo>
PUBLIC	??$_Destroy_range@V?$allocator@PEAVErrorInfo@Reader@Json@@@std@@@std@@YAXPEAPEAVErrorInfo@Reader@Json@@0AEAV?$allocator@PEAVErrorInfo@Reader@Json@@@0@@Z ; std::_Destroy_range<std::allocator<Json::Reader::ErrorInfo *> >
PUBLIC	??$_Uninitialized_value_construct_n@PEAPEAVErrorInfo@Reader@Json@@_KV?$allocator@PEAVErrorInfo@Reader@Json@@@std@@@std@@YAPEAPEAVErrorInfo@Reader@Json@@PEAPEAV123@_KAEAV?$allocator@PEAVErrorInfo@Reader@Json@@@0@@Z ; std::_Uninitialized_value_construct_n<Json::Reader::ErrorInfo * *,unsigned __int64,std::allocator<Json::Reader::ErrorInfo *> >
PUBLIC	??$_Idl_distance@PEAPEAVErrorInfo@Reader@Json@@PEAPEAV123@@std@@YA_JAEBQEAPEAVErrorInfo@Reader@Json@@0@Z ; std::_Idl_distance<Json::Reader::ErrorInfo * *,Json::Reader::ErrorInfo * *>
PUBLIC	??$_Uninitialized_copy@PEAPEAVErrorInfo@Reader@Json@@PEAPEAV123@V?$allocator@PEAVErrorInfo@Reader@Json@@@std@@@std@@YAPEAPEAVErrorInfo@Reader@Json@@QEAPEAV123@0PEAPEAV123@AEAV?$allocator@PEAVErrorInfo@Reader@Json@@@0@@Z ; std::_Uninitialized_copy<Json::Reader::ErrorInfo * *,Json::Reader::ErrorInfo * *,std::allocator<Json::Reader::ErrorInfo *> >
PUBLIC	??$destroy@PEAVErrorInfo@Reader@Json@@@?$_Default_allocator_traits@V?$allocator@PEAVErrorInfo@Reader@Json@@@std@@@std@@SAXAEAV?$allocator@PEAVErrorInfo@Reader@Json@@@1@QEAPEAVErrorInfo@Reader@Json@@@Z ; std::_Default_allocator_traits<std::allocator<Json::Reader::ErrorInfo *> >::destroy<Json::Reader::ErrorInfo *>
PUBLIC	??$addressof@PEAVErrorInfo@Reader@Json@@@std@@YAPEAPEAVErrorInfo@Reader@Json@@AEAPEAV123@@Z ; std::addressof<Json::Reader::ErrorInfo *>
PUBLIC	??$?0VErrorInfo@Reader@Json@@@?$allocator@PEAVErrorInfo@Reader@Json@@@std@@QEAA@AEBV?$allocator@VErrorInfo@Reader@Json@@@1@@Z ; std::allocator<Json::Reader::ErrorInfo *>::allocator<Json::Reader::ErrorInfo *><Json::Reader::ErrorInfo>
PUBLIC	??$construct@PEAVValue@Json@@PEAV12@@?$_Default_allocator_traits@V?$allocator@PEAVValue@Json@@@std@@@std@@SAXAEAV?$allocator@PEAVValue@Json@@@1@QEAPEAVValue@Json@@$$QEAPEAV34@@Z ; std::_Default_allocator_traits<std::allocator<Json::Value *> >::construct<Json::Value *,Json::Value *>
PUBLIC	??$destroy@PEAVValue@Json@@@?$_Default_allocator_traits@V?$allocator@PEAVValue@Json@@@std@@@std@@SAXAEAV?$allocator@PEAVValue@Json@@@1@QEAPEAVValue@Json@@@Z ; std::_Default_allocator_traits<std::allocator<Json::Value *> >::destroy<Json::Value *>
PUBLIC	??$_Unfancy@PEAVValue@Json@@@std@@YAPEAPEAVValue@Json@@PEAPEAV12@@Z ; std::_Unfancy<Json::Value *>
PUBLIC	??$destroy@PEAPEAVValue@Json@@@?$_Default_allocator_traits@V?$allocator@PEAPEAVValue@Json@@@std@@@std@@SAXAEAV?$allocator@PEAPEAVValue@Json@@@1@QEAPEAPEAVValue@Json@@@Z ; std::_Default_allocator_traits<std::allocator<Json::Value * *> >::destroy<Json::Value * *>
PUBLIC	??$addressof@PEAPEAVValue@Json@@@std@@YAPEAPEAPEAVValue@Json@@AEAPEAPEAV12@@Z ; std::addressof<Json::Value * *>
PUBLIC	??$?0PEAVValue@Json@@@?$allocator@PEAPEAVValue@Json@@@std@@QEAA@AEBV?$allocator@PEAVValue@Json@@@1@@Z ; std::allocator<Json::Value * *>::allocator<Json::Value * *><Json::Value *>
PUBLIC	??$?0$$V@?$_Compressed_pair@V?$allocator@VErrorInfo@Reader@Json@@@std@@V?$_Deque_val@U?$_Deque_simple_types@VErrorInfo@Reader@Json@@@std@@@2@$00@std@@QEAA@U_Zero_then_variadic_args_t@1@@Z ; std::_Compressed_pair<std::allocator<Json::Reader::ErrorInfo>,std::_Deque_val<std::_Deque_simple_types<Json::Reader::ErrorInfo> >,1>::_Compressed_pair<std::allocator<Json::Reader::ErrorInfo>,std::_Deque_val<std::_Deque_simple_types<Json::Reader::ErrorInfo> >,1><>
PUBLIC	??$construct@VErrorInfo@Reader@Json@@$$V@?$_Default_allocator_traits@V?$allocator@VErrorInfo@Reader@Json@@@std@@@std@@SAXAEAV?$allocator@VErrorInfo@Reader@Json@@@1@QEAVErrorInfo@Reader@Json@@@Z ; std::_Default_allocator_traits<std::allocator<Json::Reader::ErrorInfo> >::construct<Json::Reader::ErrorInfo>
PUBLIC	??$construct@VErrorInfo@Reader@Json@@AEBV123@@?$_Default_allocator_traits@V?$allocator@VErrorInfo@Reader@Json@@@std@@@std@@SAXAEAV?$allocator@VErrorInfo@Reader@Json@@@1@QEAVErrorInfo@Reader@Json@@AEBV345@@Z ; std::_Default_allocator_traits<std::allocator<Json::Reader::ErrorInfo> >::construct<Json::Reader::ErrorInfo,Json::Reader::ErrorInfo const &>
PUBLIC	??$_Unfancy@VErrorInfo@Reader@Json@@@std@@YAPEAVErrorInfo@Reader@Json@@PEAV123@@Z ; std::_Unfancy<Json::Reader::ErrorInfo>
PUBLIC	??$move@AEAPEAVValue@Json@@@std@@YA$$QEAPEAVValue@Json@@AEAPEAV12@@Z ; std::move<Json::Value * &>
PUBLIC	?_Setcont@?$_Deque_const_iterator@V?$_Deque_val@U?$_Deque_simple_types@PEAVValue@Json@@@std@@@std@@@std@@QEAAXPEBV?$_Deque_val@U?$_Deque_simple_types@PEAVValue@Json@@@std@@@2@@Z ; std::_Deque_const_iterator<std::_Deque_val<std::_Deque_simple_types<Json::Value *> > >::_Setcont
PUBLIC	?_Get_first@?$_Compressed_pair@V?$allocator@PEAVValue@Json@@@std@@V?$_Deque_val@U?$_Deque_simple_types@PEAVValue@Json@@@std@@@2@$00@std@@QEBAAEBV?$allocator@PEAVValue@Json@@@2@XZ ; std::_Compressed_pair<std::allocator<Json::Value *>,std::_Deque_val<std::_Deque_simple_types<Json::Value *> >,1>::_Get_first
PUBLIC	?_Getal@?$_Deque_alloc@U?$_Deque_base_types@PEAVValue@Json@@V?$allocator@PEAVValue@Json@@@std@@@std@@@std@@QEBAAEBV?$allocator@PEAVValue@Json@@@2@XZ ; std::_Deque_alloc<std::_Deque_base_types<Json::Value *,std::allocator<Json::Value *> > >::_Getal
PUBLIC	?max_size@?$_Default_allocator_traits@V?$allocator@PEAVValue@Json@@@std@@@std@@SA_KAEBV?$allocator@PEAVValue@Json@@@2@@Z ; std::_Default_allocator_traits<std::allocator<Json::Value *> >::max_size
PUBLIC	??Y?$_Deque_iterator@V?$_Deque_val@U?$_Deque_simple_types@PEAVValue@Json@@@std@@@std@@@std@@QEAAAEAV01@_J@Z ; std::_Deque_iterator<std::_Deque_val<std::_Deque_simple_types<Json::Value *> > >::operator+=
PUBLIC	??0?$_Deque_const_iterator@V?$_Deque_val@U?$_Deque_simple_types@PEAVValue@Json@@@std@@@std@@@std@@QEAA@_KPEBU_Container_base12@1@@Z ; std::_Deque_const_iterator<std::_Deque_val<std::_Deque_simple_types<Json::Value *> > >::_Deque_const_iterator<std::_Deque_val<std::_Deque_simple_types<Json::Value *> > >
PUBLIC	?_Get_second@?$_Compressed_pair@V?$allocator@PEAVValue@Json@@@std@@V?$_Deque_val@U?$_Deque_simple_types@PEAVValue@Json@@@std@@@2@$00@std@@QEAAAEAV?$_Deque_val@U?$_Deque_simple_types@PEAVValue@Json@@@std@@@2@XZ ; std::_Compressed_pair<std::allocator<Json::Value *>,std::_Deque_val<std::_Deque_simple_types<Json::Value *> >,1>::_Get_second
PUBLIC	?_Get_second@?$_Compressed_pair@V?$allocator@PEAVValue@Json@@@std@@V?$_Deque_val@U?$_Deque_simple_types@PEAVValue@Json@@@std@@@2@$00@std@@QEBAAEBV?$_Deque_val@U?$_Deque_simple_types@PEAVValue@Json@@@std@@@2@XZ ; std::_Compressed_pair<std::allocator<Json::Value *>,std::_Deque_val<std::_Deque_simple_types<Json::Value *> >,1>::_Get_second
PUBLIC	?_Get_first@?$_Compressed_pair@V?$allocator@VErrorInfo@Reader@Json@@@std@@V?$_Deque_val@U?$_Deque_simple_types@VErrorInfo@Reader@Json@@@std@@@2@$00@std@@QEBAAEBV?$allocator@VErrorInfo@Reader@Json@@@2@XZ ; std::_Compressed_pair<std::allocator<Json::Reader::ErrorInfo>,std::_Deque_val<std::_Deque_simple_types<Json::Reader::ErrorInfo> >,1>::_Get_first
PUBLIC	?allocate@?$allocator@U_Container_proxy@std@@@std@@QEAAPEAU_Container_proxy@2@_K@Z ; std::allocator<std::_Container_proxy>::allocate
PUBLIC	?max_size@?$deque@PEAVValue@Json@@V?$allocator@PEAVValue@Json@@@std@@@std@@QEBA_KXZ ; std::deque<Json::Value *,std::allocator<Json::Value *> >::max_size
PUBLIC	?_Xlen@?$deque@PEAVValue@Json@@V?$allocator@PEAVValue@Json@@@std@@@std@@IEBAXXZ ; std::deque<Json::Value *,std::allocator<Json::Value *> >::_Xlen
PUBLIC	?_Alloc_proxy@?$_Deque_alloc@U?$_Deque_base_types@PEAVValue@Json@@V?$allocator@PEAVValue@Json@@@std@@@std@@@std@@QEAAXXZ ; std::_Deque_alloc<std::_Deque_base_types<Json::Value *,std::allocator<Json::Value *> > >::_Alloc_proxy
PUBLIC	?_Myproxy@?$_Deque_alloc@U?$_Deque_base_types@PEAVValue@Json@@V?$allocator@PEAVValue@Json@@@std@@@std@@@std@@QEAAAEAPEAU_Container_proxy@2@XZ ; std::_Deque_alloc<std::_Deque_base_types<Json::Value *,std::allocator<Json::Value *> > >::_Myproxy
PUBLIC	?_Get_data@?$_Deque_alloc@U?$_Deque_base_types@PEAVValue@Json@@V?$allocator@PEAVValue@Json@@@std@@@std@@@std@@QEAAAEAV?$_Deque_val@U?$_Deque_simple_types@PEAVValue@Json@@@std@@@2@XZ ; std::_Deque_alloc<std::_Deque_base_types<Json::Value *,std::allocator<Json::Value *> > >::_Get_data
PUBLIC	?_Get_data@?$_Deque_alloc@U?$_Deque_base_types@PEAVValue@Json@@V?$allocator@PEAVValue@Json@@@std@@@std@@@std@@QEBAAEBV?$_Deque_val@U?$_Deque_simple_types@PEAVValue@Json@@@std@@@2@XZ ; std::_Deque_alloc<std::_Deque_base_types<Json::Value *,std::allocator<Json::Value *> > >::_Get_data
PUBLIC	?allocate@?$allocator@PEAPEAVValue@Json@@@std@@QEAAPEAPEAPEAVValue@Json@@_K@Z ; std::allocator<Json::Value * *>::allocate
PUBLIC	?_Getblock@?$_Deque_val@U?$_Deque_simple_types@PEAVValue@Json@@@std@@@std@@QEBA_K_K@Z ; std::_Deque_val<std::_Deque_simple_types<Json::Value *> >::_Getblock
PUBLIC	??0?$_Deque_iterator@V?$_Deque_val@U?$_Deque_simple_types@PEAVValue@Json@@@std@@@std@@@std@@QEAA@_KPEBU_Container_base12@1@@Z ; std::_Deque_iterator<std::_Deque_val<std::_Deque_simple_types<Json::Value *> > >::_Deque_iterator<std::_Deque_val<std::_Deque_simple_types<Json::Value *> > >
PUBLIC	??Z?$_Deque_iterator@V?$_Deque_val@U?$_Deque_simple_types@PEAVValue@Json@@@std@@@std@@@std@@QEAAAEAV01@_J@Z ; std::_Deque_iterator<std::_Deque_val<std::_Deque_simple_types<Json::Value *> > >::operator-=
PUBLIC	??D?$_Deque_const_iterator@V?$_Deque_val@U?$_Deque_simple_types@PEAVValue@Json@@@std@@@std@@@std@@QEBAAEBQEAVValue@Json@@XZ ; std::_Deque_const_iterator<std::_Deque_val<std::_Deque_simple_types<Json::Value *> > >::operator*
PUBLIC	?_Get_first@?$_Compressed_pair@V?$allocator@PEAVValue@Json@@@std@@V?$_Deque_val@U?$_Deque_simple_types@PEAVValue@Json@@@std@@@2@$00@std@@QEAAAEAV?$allocator@PEAVValue@Json@@@2@XZ ; std::_Compressed_pair<std::allocator<Json::Value *>,std::_Deque_val<std::_Deque_simple_types<Json::Value *> >,1>::_Get_first
PUBLIC	?_Myproxy@?$_Deque_alloc@U?$_Deque_base_types@VErrorInfo@Reader@Json@@V?$allocator@VErrorInfo@Reader@Json@@@std@@@std@@@std@@QEAAAEAPEAU_Container_proxy@2@XZ ; std::_Deque_alloc<std::_Deque_base_types<Json::Reader::ErrorInfo,std::allocator<Json::Reader::ErrorInfo> > >::_Myproxy
PUBLIC	?_Getal@?$_Deque_alloc@U?$_Deque_base_types@VErrorInfo@Reader@Json@@V?$allocator@VErrorInfo@Reader@Json@@@std@@@std@@@std@@QEBAAEBV?$allocator@VErrorInfo@Reader@Json@@@2@XZ ; std::_Deque_alloc<std::_Deque_base_types<Json::Reader::ErrorInfo,std::allocator<Json::Reader::ErrorInfo> > >::_Getal
PUBLIC	?max_size@?$_Default_allocator_traits@V?$allocator@VErrorInfo@Reader@Json@@@std@@@std@@SA_KAEBV?$allocator@VErrorInfo@Reader@Json@@@2@@Z ; std::_Default_allocator_traits<std::allocator<Json::Reader::ErrorInfo> >::max_size
PUBLIC	?_Get_second@?$_Compressed_pair@V?$allocator@VErrorInfo@Reader@Json@@@std@@V?$_Deque_val@U?$_Deque_simple_types@VErrorInfo@Reader@Json@@@std@@@2@$00@std@@QEAAAEAV?$_Deque_val@U?$_Deque_simple_types@VErrorInfo@Reader@Json@@@std@@@2@XZ ; std::_Compressed_pair<std::allocator<Json::Reader::ErrorInfo>,std::_Deque_val<std::_Deque_simple_types<Json::Reader::ErrorInfo> >,1>::_Get_second
PUBLIC	??0?$_Deque_const_iterator@V?$_Deque_val@U?$_Deque_simple_types@PEAVValue@Json@@@std@@@std@@@std@@QEAA@AEBV01@@Z ; std::_Deque_const_iterator<std::_Deque_val<std::_Deque_simple_types<Json::Value *> > >::_Deque_const_iterator<std::_Deque_val<std::_Deque_simple_types<Json::Value *> > >
PUBLIC	??0?$_Deque_iterator@V?$_Deque_val@U?$_Deque_simple_types@PEAVValue@Json@@@std@@@std@@@std@@QEAA@AEBV01@@Z ; std::_Deque_iterator<std::_Deque_val<std::_Deque_simple_types<Json::Value *> > >::_Deque_iterator<std::_Deque_val<std::_Deque_simple_types<Json::Value *> > >
PUBLIC	?deallocate@?$allocator@VErrorInfo@Reader@Json@@@std@@QEAAXQEAVErrorInfo@Reader@Json@@_K@Z ; std::allocator<Json::Reader::ErrorInfo>::deallocate
PUBLIC	?max_size@?$deque@VErrorInfo@Reader@Json@@V?$allocator@VErrorInfo@Reader@Json@@@std@@@std@@QEBA_KXZ ; std::deque<Json::Reader::ErrorInfo,std::allocator<Json::Reader::ErrorInfo> >::max_size
PUBLIC	?empty@?$deque@VErrorInfo@Reader@Json@@V?$allocator@VErrorInfo@Reader@Json@@@std@@@std@@QEBA_NXZ ; std::deque<Json::Reader::ErrorInfo,std::allocator<Json::Reader::ErrorInfo> >::empty
PUBLIC	?_Xlen@?$deque@VErrorInfo@Reader@Json@@V?$allocator@VErrorInfo@Reader@Json@@@std@@@std@@IEBAXXZ ; std::deque<Json::Reader::ErrorInfo,std::allocator<Json::Reader::ErrorInfo> >::_Xlen
PUBLIC	?deallocate@?$allocator@PEAVValue@Json@@@std@@QEAAXQEAPEAVValue@Json@@_K@Z ; std::allocator<Json::Value *>::deallocate
PUBLIC	?allocate@?$allocator@PEAVValue@Json@@@std@@QEAAPEAPEAVValue@Json@@_K@Z ; std::allocator<Json::Value *>::allocate
PUBLIC	?end@?$deque@PEAVValue@Json@@V?$allocator@PEAVValue@Json@@@std@@@std@@QEAA?AV?$_Deque_iterator@V?$_Deque_val@U?$_Deque_simple_types@PEAVValue@Json@@@std@@@std@@@2@XZ ; std::deque<Json::Value *,std::allocator<Json::Value *> >::end
PUBLIC	?_Growmap@?$deque@PEAVValue@Json@@V?$allocator@PEAVValue@Json@@@std@@@std@@IEAAX_K@Z ; std::deque<Json::Value *,std::allocator<Json::Value *> >::_Growmap
PUBLIC	?_Getblock@?$_Deque_alloc@U?$_Deque_base_types@PEAVValue@Json@@V?$allocator@PEAVValue@Json@@@std@@@std@@@std@@QEBA_K_K@Z ; std::_Deque_alloc<std::_Deque_base_types<Json::Value *,std::allocator<Json::Value *> > >::_Getblock
PUBLIC	??0?$_Deque_alloc@U?$_Deque_base_types@PEAVValue@Json@@V?$allocator@PEAVValue@Json@@@std@@@std@@@std@@QEAA@XZ ; std::_Deque_alloc<std::_Deque_base_types<Json::Value *,std::allocator<Json::Value *> > >::_Deque_alloc<std::_Deque_base_types<Json::Value *,std::allocator<Json::Value *> > >
PUBLIC	?_Free_proxy@?$_Deque_alloc@U?$_Deque_base_types@PEAVValue@Json@@V?$allocator@PEAVValue@Json@@@std@@@std@@@std@@QEAAXXZ ; std::_Deque_alloc<std::_Deque_base_types<Json::Value *,std::allocator<Json::Value *> > >::_Free_proxy
PUBLIC	?_Orphan_all@?$_Deque_alloc@U?$_Deque_base_types@PEAVValue@Json@@V?$allocator@PEAVValue@Json@@@std@@@std@@@std@@QEAAXXZ ; std::_Deque_alloc<std::_Deque_base_types<Json::Value *,std::allocator<Json::Value *> > >::_Orphan_all
PUBLIC	?_Getal@?$_Deque_alloc@U?$_Deque_base_types@PEAVValue@Json@@V?$allocator@PEAVValue@Json@@@std@@@std@@@std@@QEAAAEAV?$allocator@PEAVValue@Json@@@2@XZ ; std::_Deque_alloc<std::_Deque_base_types<Json::Value *,std::allocator<Json::Value *> > >::_Getal
PUBLIC	?_Map@?$_Deque_alloc@U?$_Deque_base_types@PEAVValue@Json@@V?$allocator@PEAVValue@Json@@@std@@@std@@@std@@QEAAAEAPEAPEAPEAVValue@Json@@XZ ; std::_Deque_alloc<std::_Deque_base_types<Json::Value *,std::allocator<Json::Value *> > >::_Map
PUBLIC	?_Mapsize@?$_Deque_alloc@U?$_Deque_base_types@PEAVValue@Json@@V?$allocator@PEAVValue@Json@@@std@@@std@@@std@@QEAAAEA_KXZ ; std::_Deque_alloc<std::_Deque_base_types<Json::Value *,std::allocator<Json::Value *> > >::_Mapsize
PUBLIC	?_Myoff@?$_Deque_alloc@U?$_Deque_base_types@PEAVValue@Json@@V?$allocator@PEAVValue@Json@@@std@@@std@@@std@@QEAAAEA_KXZ ; std::_Deque_alloc<std::_Deque_base_types<Json::Value *,std::allocator<Json::Value *> > >::_Myoff
PUBLIC	?_Mysize@?$_Deque_alloc@U?$_Deque_base_types@PEAVValue@Json@@V?$allocator@PEAVValue@Json@@@std@@@std@@@std@@QEAAAEA_KXZ ; std::_Deque_alloc<std::_Deque_base_types<Json::Value *,std::allocator<Json::Value *> > >::_Mysize
PUBLIC	?_Mysize@?$_Deque_alloc@U?$_Deque_base_types@PEAVValue@Json@@V?$allocator@PEAVValue@Json@@@std@@@std@@@std@@QEBAAEB_KXZ ; std::_Deque_alloc<std::_Deque_base_types<Json::Value *,std::allocator<Json::Value *> > >::_Mysize
PUBLIC	?deallocate@?$allocator@PEAPEAVValue@Json@@@std@@QEAAXQEAPEAPEAVValue@Json@@_K@Z ; std::allocator<Json::Value * *>::deallocate
PUBLIC	??D?$_Deque_iterator@V?$_Deque_val@U?$_Deque_simple_types@PEAVValue@Json@@@std@@@std@@@std@@QEBAAEAPEAVValue@Json@@XZ ; std::_Deque_iterator<std::_Deque_val<std::_Deque_simple_types<Json::Value *> > >::operator*
PUBLIC	??G?$_Deque_iterator@V?$_Deque_val@U?$_Deque_simple_types@PEAVValue@Json@@@std@@@std@@@std@@QEBA?AV01@_J@Z ; std::_Deque_iterator<std::_Deque_val<std::_Deque_simple_types<Json::Value *> > >::operator-
PUBLIC	?_Alloc_proxy@?$_Deque_alloc@U?$_Deque_base_types@VErrorInfo@Reader@Json@@V?$allocator@VErrorInfo@Reader@Json@@@std@@@std@@@std@@QEAAXXZ ; std::_Deque_alloc<std::_Deque_base_types<Json::Reader::ErrorInfo,std::allocator<Json::Reader::ErrorInfo> > >::_Alloc_proxy
PUBLIC	?_Free_proxy@?$_Deque_alloc@U?$_Deque_base_types@VErrorInfo@Reader@Json@@V?$allocator@VErrorInfo@Reader@Json@@@std@@@std@@@std@@QEAAXXZ ; std::_Deque_alloc<std::_Deque_base_types<Json::Reader::ErrorInfo,std::allocator<Json::Reader::ErrorInfo> > >::_Free_proxy
PUBLIC	?_Get_data@?$_Deque_alloc@U?$_Deque_base_types@VErrorInfo@Reader@Json@@V?$allocator@VErrorInfo@Reader@Json@@@std@@@std@@@std@@QEAAAEAV?$_Deque_val@U?$_Deque_simple_types@VErrorInfo@Reader@Json@@@std@@@2@XZ ; std::_Deque_alloc<std::_Deque_base_types<Json::Reader::ErrorInfo,std::allocator<Json::Reader::ErrorInfo> > >::_Get_data
PUBLIC	?deallocate@?$allocator@PEAVErrorInfo@Reader@Json@@@std@@QEAAXQEAPEAVErrorInfo@Reader@Json@@_K@Z ; std::allocator<Json::Reader::ErrorInfo *>::deallocate
PUBLIC	?allocate@?$allocator@PEAVErrorInfo@Reader@Json@@@std@@QEAAPEAPEAVErrorInfo@Reader@Json@@_K@Z ; std::allocator<Json::Reader::ErrorInfo *>::allocate
PUBLIC	?_Get_first@?$_Compressed_pair@V?$allocator@VErrorInfo@Reader@Json@@@std@@V?$_Deque_val@U?$_Deque_simple_types@VErrorInfo@Reader@Json@@@std@@@2@$00@std@@QEAAAEAV?$allocator@VErrorInfo@Reader@Json@@@2@XZ ; std::_Compressed_pair<std::allocator<Json::Reader::ErrorInfo>,std::_Deque_val<std::_Deque_simple_types<Json::Reader::ErrorInfo> >,1>::_Get_first
PUBLIC	?_Get_second@?$_Compressed_pair@V?$allocator@VErrorInfo@Reader@Json@@@std@@V?$_Deque_val@U?$_Deque_simple_types@VErrorInfo@Reader@Json@@@std@@@2@$00@std@@QEBAAEBV?$_Deque_val@U?$_Deque_simple_types@VErrorInfo@Reader@Json@@@std@@@2@XZ ; std::_Compressed_pair<std::allocator<Json::Reader::ErrorInfo>,std::_Deque_val<std::_Deque_simple_types<Json::Reader::ErrorInfo> >,1>::_Get_second
PUBLIC	??1?$_Deque_const_iterator@V?$_Deque_val@U?$_Deque_simple_types@PEAVValue@Json@@@std@@@std@@@std@@QEAA@XZ ; std::_Deque_const_iterator<std::_Deque_val<std::_Deque_simple_types<Json::Value *> > >::~_Deque_const_iterator<std::_Deque_val<std::_Deque_simple_types<Json::Value *> > >
PUBLIC	??1?$_Deque_iterator@V?$_Deque_val@U?$_Deque_simple_types@PEAVValue@Json@@@std@@@std@@@std@@QEAA@XZ ; std::_Deque_iterator<std::_Deque_val<std::_Deque_simple_types<Json::Value *> > >::~_Deque_iterator<std::_Deque_val<std::_Deque_simple_types<Json::Value *> > >
PUBLIC	?allocate@?$allocator@VErrorInfo@Reader@Json@@@std@@QEAAPEAVErrorInfo@Reader@Json@@_K@Z ; std::allocator<Json::Reader::ErrorInfo>::allocate
PUBLIC	?pop_back@?$deque@VErrorInfo@Reader@Json@@V?$allocator@VErrorInfo@Reader@Json@@@std@@@std@@QEAAXXZ ; std::deque<Json::Reader::ErrorInfo,std::allocator<Json::Reader::ErrorInfo> >::pop_back
PUBLIC	?_Growmap@?$deque@VErrorInfo@Reader@Json@@V?$allocator@VErrorInfo@Reader@Json@@@std@@@std@@IEAAX_K@Z ; std::deque<Json::Reader::ErrorInfo,std::allocator<Json::Reader::ErrorInfo> >::_Growmap
PUBLIC	?_Tidy@?$deque@VErrorInfo@Reader@Json@@V?$allocator@VErrorInfo@Reader@Json@@@std@@@std@@IEAAXXZ ; std::deque<Json::Reader::ErrorInfo,std::allocator<Json::Reader::ErrorInfo> >::_Tidy
PUBLIC	??0?$deque@PEAVValue@Json@@V?$allocator@PEAVValue@Json@@@std@@@std@@QEAA@XZ ; std::deque<Json::Value *,std::allocator<Json::Value *> >::deque<Json::Value *,std::allocator<Json::Value *> >
PUBLIC	?push_back@?$deque@PEAVValue@Json@@V?$allocator@PEAVValue@Json@@@std@@@std@@QEAAX$$QEAPEAVValue@Json@@@Z ; std::deque<Json::Value *,std::allocator<Json::Value *> >::push_back
PUBLIC	?empty@?$deque@PEAVValue@Json@@V?$allocator@PEAVValue@Json@@@std@@@std@@QEBA_NXZ ; std::deque<Json::Value *,std::allocator<Json::Value *> >::empty
PUBLIC	?back@?$deque@PEAVValue@Json@@V?$allocator@PEAVValue@Json@@@std@@@std@@QEAAAEAPEAVValue@Json@@XZ ; std::deque<Json::Value *,std::allocator<Json::Value *> >::back
PUBLIC	?pop_back@?$deque@PEAVValue@Json@@V?$allocator@PEAVValue@Json@@@std@@@std@@QEAAXXZ ; std::deque<Json::Value *,std::allocator<Json::Value *> >::pop_back
PUBLIC	?_Tidy@?$deque@PEAVValue@Json@@V?$allocator@PEAVValue@Json@@@std@@@std@@IEAAXXZ ; std::deque<Json::Value *,std::allocator<Json::Value *> >::_Tidy
PUBLIC	??1?$_Deque_alloc@U?$_Deque_base_types@PEAVValue@Json@@V?$allocator@PEAVValue@Json@@@std@@@std@@@std@@QEAA@XZ ; std::_Deque_alloc<std::_Deque_base_types<Json::Value *,std::allocator<Json::Value *> > >::~_Deque_alloc<std::_Deque_base_types<Json::Value *,std::allocator<Json::Value *> > >
PUBLIC	?_Getblock@?$_Deque_alloc@U?$_Deque_base_types@VErrorInfo@Reader@Json@@V?$allocator@VErrorInfo@Reader@Json@@@std@@@std@@@std@@QEBA_K_K@Z ; std::_Deque_alloc<std::_Deque_base_types<Json::Reader::ErrorInfo,std::allocator<Json::Reader::ErrorInfo> > >::_Getblock
PUBLIC	??0?$_Deque_alloc@U?$_Deque_base_types@VErrorInfo@Reader@Json@@V?$allocator@VErrorInfo@Reader@Json@@@std@@@std@@@std@@QEAA@XZ ; std::_Deque_alloc<std::_Deque_base_types<Json::Reader::ErrorInfo,std::allocator<Json::Reader::ErrorInfo> > >::_Deque_alloc<std::_Deque_base_types<Json::Reader::ErrorInfo,std::allocator<Json::Reader::ErrorInfo> > >
PUBLIC	??1?$_Deque_alloc@U?$_Deque_base_types@VErrorInfo@Reader@Json@@V?$allocator@VErrorInfo@Reader@Json@@@std@@@std@@@std@@QEAA@XZ ; std::_Deque_alloc<std::_Deque_base_types<Json::Reader::ErrorInfo,std::allocator<Json::Reader::ErrorInfo> > >::~_Deque_alloc<std::_Deque_base_types<Json::Reader::ErrorInfo,std::allocator<Json::Reader::ErrorInfo> > >
PUBLIC	?_Orphan_all@?$_Deque_alloc@U?$_Deque_base_types@VErrorInfo@Reader@Json@@V?$allocator@VErrorInfo@Reader@Json@@@std@@@std@@@std@@QEAAXXZ ; std::_Deque_alloc<std::_Deque_base_types<Json::Reader::ErrorInfo,std::allocator<Json::Reader::ErrorInfo> > >::_Orphan_all
PUBLIC	?_Getal@?$_Deque_alloc@U?$_Deque_base_types@VErrorInfo@Reader@Json@@V?$allocator@VErrorInfo@Reader@Json@@@std@@@std@@@std@@QEAAAEAV?$allocator@VErrorInfo@Reader@Json@@@2@XZ ; std::_Deque_alloc<std::_Deque_base_types<Json::Reader::ErrorInfo,std::allocator<Json::Reader::ErrorInfo> > >::_Getal
PUBLIC	?_Get_data@?$_Deque_alloc@U?$_Deque_base_types@VErrorInfo@Reader@Json@@V?$allocator@VErrorInfo@Reader@Json@@@std@@@std@@@std@@QEBAAEBV?$_Deque_val@U?$_Deque_simple_types@VErrorInfo@Reader@Json@@@std@@@2@XZ ; std::_Deque_alloc<std::_Deque_base_types<Json::Reader::ErrorInfo,std::allocator<Json::Reader::ErrorInfo> > >::_Get_data
PUBLIC	?_Map@?$_Deque_alloc@U?$_Deque_base_types@VErrorInfo@Reader@Json@@V?$allocator@VErrorInfo@Reader@Json@@@std@@@std@@@std@@QEAAAEAPEAPEAVErrorInfo@Reader@Json@@XZ ; std::_Deque_alloc<std::_Deque_base_types<Json::Reader::ErrorInfo,std::allocator<Json::Reader::ErrorInfo> > >::_Map
PUBLIC	?_Mapsize@?$_Deque_alloc@U?$_Deque_base_types@VErrorInfo@Reader@Json@@V?$allocator@VErrorInfo@Reader@Json@@@std@@@std@@@std@@QEAAAEA_KXZ ; std::_Deque_alloc<std::_Deque_base_types<Json::Reader::ErrorInfo,std::allocator<Json::Reader::ErrorInfo> > >::_Mapsize
PUBLIC	?_Myoff@?$_Deque_alloc@U?$_Deque_base_types@VErrorInfo@Reader@Json@@V?$allocator@VErrorInfo@Reader@Json@@@std@@@std@@@std@@QEAAAEA_KXZ ; std::_Deque_alloc<std::_Deque_base_types<Json::Reader::ErrorInfo,std::allocator<Json::Reader::ErrorInfo> > >::_Myoff
PUBLIC	?_Mysize@?$_Deque_alloc@U?$_Deque_base_types@VErrorInfo@Reader@Json@@V?$allocator@VErrorInfo@Reader@Json@@@std@@@std@@@std@@QEAAAEA_KXZ ; std::_Deque_alloc<std::_Deque_base_types<Json::Reader::ErrorInfo,std::allocator<Json::Reader::ErrorInfo> > >::_Mysize
PUBLIC	?_Mysize@?$_Deque_alloc@U?$_Deque_base_types@VErrorInfo@Reader@Json@@V?$allocator@VErrorInfo@Reader@Json@@@std@@@std@@@std@@QEBAAEB_KXZ ; std::_Deque_alloc<std::_Deque_base_types<Json::Reader::ErrorInfo,std::allocator<Json::Reader::ErrorInfo> > >::_Mysize
PUBLIC	?_Getblock@?$_Deque_val@U?$_Deque_simple_types@VErrorInfo@Reader@Json@@@std@@@std@@QEBA_K_K@Z ; std::_Deque_val<std::_Deque_simple_types<Json::Reader::ErrorInfo> >::_Getblock
PUBLIC	??0?$deque@VErrorInfo@Reader@Json@@V?$allocator@VErrorInfo@Reader@Json@@@std@@@std@@QEAA@XZ ; std::deque<Json::Reader::ErrorInfo,std::allocator<Json::Reader::ErrorInfo> >::deque<Json::Reader::ErrorInfo,std::allocator<Json::Reader::ErrorInfo> >
PUBLIC	??1?$deque@VErrorInfo@Reader@Json@@V?$allocator@VErrorInfo@Reader@Json@@@std@@@std@@QEAA@XZ ; std::deque<Json::Reader::ErrorInfo,std::allocator<Json::Reader::ErrorInfo> >::~deque<Json::Reader::ErrorInfo,std::allocator<Json::Reader::ErrorInfo> >
PUBLIC	??$emplace_back@$$V@?$deque@VErrorInfo@Reader@Json@@V?$allocator@VErrorInfo@Reader@Json@@@std@@@std@@QEAAXXZ ; std::deque<Json::Reader::ErrorInfo,std::allocator<Json::Reader::ErrorInfo> >::emplace_back<>
PUBLIC	?resize@?$deque@VErrorInfo@Reader@Json@@V?$allocator@VErrorInfo@Reader@Json@@@std@@@std@@QEAAX_K@Z ; std::deque<Json::Reader::ErrorInfo,std::allocator<Json::Reader::ErrorInfo> >::resize
PUBLIC	?size@?$deque@VErrorInfo@Reader@Json@@V?$allocator@VErrorInfo@Reader@Json@@@std@@@std@@QEBA_KXZ ; std::deque<Json::Reader::ErrorInfo,std::allocator<Json::Reader::ErrorInfo> >::size
PUBLIC	?push_back@?$deque@VErrorInfo@Reader@Json@@V?$allocator@VErrorInfo@Reader@Json@@@std@@@std@@QEAAXAEBVErrorInfo@Reader@Json@@@Z ; std::deque<Json::Reader::ErrorInfo,std::allocator<Json::Reader::ErrorInfo> >::push_back
PUBLIC	?clear@?$deque@VErrorInfo@Reader@Json@@V?$allocator@VErrorInfo@Reader@Json@@@std@@@std@@QEAAXXZ ; std::deque<Json::Reader::ErrorInfo,std::allocator<Json::Reader::ErrorInfo> >::clear
PUBLIC	??1?$deque@PEAVValue@Json@@V?$allocator@PEAVValue@Json@@@std@@@std@@QEAA@XZ ; std::deque<Json::Value *,std::allocator<Json::Value *> >::~deque<Json::Value *,std::allocator<Json::Value *> >
PUBLIC	??0?$stack@PEAVValue@Json@@V?$deque@PEAVValue@Json@@V?$allocator@PEAVValue@Json@@@std@@@std@@@std@@QEAA@XZ ; std::stack<Json::Value *,std::deque<Json::Value *,std::allocator<Json::Value *> > >::stack<Json::Value *,std::deque<Json::Value *,std::allocator<Json::Value *> > >
PUBLIC	?push@?$stack@PEAVValue@Json@@V?$deque@PEAVValue@Json@@V?$allocator@PEAVValue@Json@@@std@@@std@@@std@@QEAAX$$QEAPEAVValue@Json@@@Z ; std::stack<Json::Value *,std::deque<Json::Value *,std::allocator<Json::Value *> > >::push
PUBLIC	?empty@?$stack@PEAVValue@Json@@V?$deque@PEAVValue@Json@@V?$allocator@PEAVValue@Json@@@std@@@std@@@std@@QEBA_NXZ ; std::stack<Json::Value *,std::deque<Json::Value *,std::allocator<Json::Value *> > >::empty
PUBLIC	?top@?$stack@PEAVValue@Json@@V?$deque@PEAVValue@Json@@V?$allocator@PEAVValue@Json@@@std@@@std@@@std@@QEAAAEAPEAVValue@Json@@XZ ; std::stack<Json::Value *,std::deque<Json::Value *,std::allocator<Json::Value *> > >::top
PUBLIC	?pop@?$stack@PEAVValue@Json@@V?$deque@PEAVValue@Json@@V?$allocator@PEAVValue@Json@@@std@@@std@@@std@@QEAAXXZ ; std::stack<Json::Value *,std::deque<Json::Value *,std::allocator<Json::Value *> > >::pop
PUBLIC	??1Reader@Json@@QEAA@XZ				; Json::Reader::~Reader
PUBLIC	?getNextChar@Reader@Json@@AEAADXZ		; Json::Reader::getNextChar
PUBLIC	?currentValue@Reader@Json@@AEAAAEAVValue@2@XZ	; Json::Reader::currentValue
PUBLIC	?addErrorAndRecover@Reader@Json@@AEAA_NAEBV?$basic_string@DU?$char_traits@D@std@@V?$allocator@D@2@@std@@AEAVToken@12@W4TokenType@12@@Z ; Json::Reader::addErrorAndRecover
PUBLIC	?recoverFromError@Reader@Json@@AEAA_NW4TokenType@12@@Z ; Json::Reader::recoverFromError
PUBLIC	??1ErrorInfo@Reader@Json@@QEAA@XZ		; Json::Reader::ErrorInfo::~ErrorInfo
PUBLIC	??0ErrorInfo@Reader@Json@@QEAA@XZ		; Json::Reader::ErrorInfo::ErrorInfo
PUBLIC	?addError@Reader@Json@@AEAA_NAEBV?$basic_string@DU?$char_traits@D@std@@V?$allocator@D@2@@std@@AEAVToken@12@PEBD@Z ; Json::Reader::addError
PUBLIC	?decodeUnicodeEscapeSequence@Reader@Json@@AEAA_NAEAVToken@12@AEAPEBDPEBDAEAI@Z ; Json::Reader::decodeUnicodeEscapeSequence
PUBLIC	?decodeUnicodeCodePoint@Reader@Json@@AEAA_NAEAVToken@12@AEAPEBDPEBDAEAI@Z ; Json::Reader::decodeUnicodeCodePoint
PUBLIC	?decodeString@Reader@Json@@AEAA_NAEAVToken@12@AEAV?$basic_string@DU?$char_traits@D@std@@V?$allocator@D@2@@std@@@Z ; Json::Reader::decodeString
PUBLIC	?decodeString@Reader@Json@@AEAA_NAEAVToken@12@@Z ; Json::Reader::decodeString
PUBLIC	?decodeDouble@Reader@Json@@AEAA_NAEAVToken@12@@Z ; Json::Reader::decodeDouble
PUBLIC	?decodeNumber@Reader@Json@@AEAA_NAEAVToken@12@@Z ; Json::Reader::decodeNumber
PUBLIC	?readArray@Reader@Json@@AEAA_NAEAVToken@12@@Z	; Json::Reader::readArray
PUBLIC	?readObject@Reader@Json@@AEAA_NAEAVToken@12@@Z	; Json::Reader::readObject
PUBLIC	?readString@Reader@Json@@AEAA_NXZ		; Json::Reader::readString
PUBLIC	?readNumber@Reader@Json@@AEAAXXZ		; Json::Reader::readNumber
PUBLIC	?readCppStyleComment@Reader@Json@@AEAA_NXZ	; Json::Reader::readCppStyleComment
PUBLIC	?readCStyleComment@Reader@Json@@AEAA_NXZ	; Json::Reader::readCStyleComment
PUBLIC	?addComment@Reader@Json@@AEAAXPEBD0W4CommentPlacement@2@@Z ; Json::Reader::addComment
PUBLIC	?readComment@Reader@Json@@AEAA_NXZ		; Json::Reader::readComment
PUBLIC	?match@Reader@Json@@AEAA_NPEBDH@Z		; Json::Reader::match
PUBLIC	?skipSpaces@Reader@Json@@AEAAXXZ		; Json::Reader::skipSpaces
PUBLIC	?readToken@Reader@Json@@AEAA_NAEAVToken@12@@Z	; Json::Reader::readToken
PUBLIC	?skipCommentTokens@Reader@Json@@AEAAXAEAVToken@12@@Z ; Json::Reader::skipCommentTokens
PUBLIC	?readValue@Reader@Json@@AEAA_NXZ		; Json::Reader::readValue
PUBLIC	?parse@Reader@Json@@QEAA_NPEBD0AEAVValue@2@_N@Z	; Json::Reader::parse
PUBLIC	?parse@Reader@Json@@QEAA_NAEBV?$basic_string@DU?$char_traits@D@std@@V?$allocator@D@2@@std@@AEAVValue@2@_N@Z ; Json::Reader::parse
PUBLIC	??1?$stack@PEAVValue@Json@@V?$deque@PEAVValue@Json@@V?$allocator@PEAVValue@Json@@@std@@@std@@@std@@QEAA@XZ ; std::stack<Json::Value *,std::deque<Json::Value *,std::allocator<Json::Value *> > >::~stack<Json::Value *,std::deque<Json::Value *,std::allocator<Json::Value *> > >
PUBLIC	??0Reader@Json@@QEAA@XZ				; Json::Reader::Reader
PUBLIC	?all@Features@Json@@SA?AV12@XZ			; Json::Features::all
PUBLIC	??0Features@Json@@QEAA@XZ			; Json::Features::Features
PUBLIC	?_Orphan_all@_Container_base12@std@@QEAAXXZ	; std::_Container_base12::_Orphan_all
PUBLIC	?_Getcont@_Iterator_base12@std@@QEBAPEBU_Container_base12@2@XZ ; std::_Iterator_base12::_Getcont
PUBLIC	?_Adopt@_Iterator_base12@std@@QEAAXPEBU_Container_base12@2@@Z ; std::_Iterator_base12::_Adopt
PUBLIC	??1_Iterator_base12@std@@QEAA@XZ		; std::_Iterator_base12::~_Iterator_base12
PUBLIC	??4_Iterator_base12@std@@QEAAAEAU01@AEBU01@@Z	; std::_Iterator_base12::operator=
PUBLIC	??0_Iterator_base12@std@@QEAA@AEBU01@@Z		; std::_Iterator_base12::_Iterator_base12
PUBLIC	??0_Iterator_base12@std@@QEAA@XZ		; std::_Iterator_base12::_Iterator_base12
PUBLIC	??0_Container_base12@std@@QEAA@XZ		; std::_Container_base12::_Container_base12
PUBLIC	??0_Container_proxy@std@@QEAA@XZ		; std::_Container_proxy::_Container_proxy
PUBLIC	sscanf
PUBLIC	_vsscanf_l
PUBLIC	sprintf
PUBLIC	_vsprintf_l
PUBLIC	_vsnprintf_l
PUBLIC	__local_stdio_scanf_options
PUBLIC	?_OptionsStorage@?1??__local_stdio_scanf_options@@9@4_KA ; `__local_stdio_scanf_options'::`2'::_OptionsStorage
;	COMDAT ?_OptionsStorage@?1??__local_stdio_scanf_options@@9@4_KA
_BSS	SEGMENT
?_OptionsStorage@?1??__local_stdio_scanf_options@@9@4_KA DQ 01H DUP (?) ; `__local_stdio_scanf_options'::`2'::_OptionsStorage
_BSS	ENDS
;	COMDAT pdata
pdata	SEGMENT
$pdata$??$_Zero_range@PEAPEAPEAVValue@Json@@@std@@YAPEAPEAPEAVValue@Json@@QEAPEAPEAV12@0@Z DD imagerel $LN4
	DD	imagerel $LN4+31
	DD	imagerel $unwind$??$_Zero_range@PEAPEAPEAVValue@Json@@@std@@YAPEAPEAPEAVValue@Json@@QEAPEAPEAV12@0@Z
pdata	ENDS
;	COMDAT pdata
pdata	SEGMENT
$pdata$??$_Copy_memmove@PEAPEAPEAVValue@Json@@PEAPEAPEAV12@@std@@YAPEAPEAPEAVValue@Json@@PEAPEAPEAV12@00@Z DD imagerel $LN4
	DD	imagerel $LN4+48
	DD	imagerel $unwind$??$_Copy_memmove@PEAPEAPEAVValue@Json@@PEAPEAPEAV12@@std@@YAPEAPEAPEAVValue@Json@@PEAPEAPEAV12@00@Z
pdata	ENDS
;	COMDAT pdata
pdata	SEGMENT
$pdata$??$_Zero_range@PEAPEAVErrorInfo@Reader@Json@@@std@@YAPEAPEAVErrorInfo@Reader@Json@@QEAPEAV123@0@Z DD imagerel $LN4
	DD	imagerel $LN4+31
	DD	imagerel $unwind$??$_Zero_range@PEAPEAVErrorInfo@Reader@Json@@@std@@YAPEAPEAVErrorInfo@Reader@Json@@QEAPEAV123@0@Z
pdata	ENDS
;	COMDAT pdata
pdata	SEGMENT
$pdata$??$_Copy_memmove@PEAPEAVErrorInfo@Reader@Json@@PEAPEAV123@@std@@YAPEAPEAVErrorInfo@Reader@Json@@PEAPEAV123@00@Z DD imagerel $LN4
	DD	imagerel $LN4+48
	DD	imagerel $unwind$??$_Copy_memmove@PEAPEAVErrorInfo@Reader@Json@@PEAPEAV123@@std@@YAPEAPEAVErrorInfo@Reader@Json@@PEAPEAV123@00@Z
pdata	ENDS
;	COMDAT pdata
pdata	SEGMENT
$pdata$??$_Uninitialized_value_construct_n1@PEAPEAPEAVValue@Json@@_KV?$allocator@PEAPEAVValue@Json@@@std@@@std@@YAPEAPEAPEAVValue@Json@@PEAPEAPEAV12@_KAEAV?$allocator@PEAPEAVValue@Json@@@0@U?$integral_constant@_N$00@0@@Z DD imagerel $LN6
	DD	imagerel $LN6+46
	DD	imagerel $unwind$??$_Uninitialized_value_construct_n1@PEAPEAPEAVValue@Json@@_KV?$allocator@PEAPEAVValue@Json@@@std@@@std@@YAPEAPEAPEAVValue@Json@@PEAPEAPEAV12@_KAEAV?$allocator@PEAPEAVValue@Json@@@0@U?$integral_constant@_N$00@0@@Z
pdata	ENDS
;	COMDAT pdata
pdata	SEGMENT
$pdata$??$_Uninitialized_copy_al_unchecked@PEAPEAVValue@Json@@PEAPEAV12@V?$allocator@PEAPEAVValue@Json@@@std@@@std@@YAPEAPEAPEAVValue@Json@@QEAPEAPEAV12@00AEAV?$allocator@PEAPEAVValue@Json@@@0@U_Really_trivial_ptr_iterator_tag@0@U?$integral_constant@_N$00@0@@Z DD imagerel $LN6
	DD	imagerel $LN6+48
	DD	imagerel $unwind$??$_Uninitialized_copy_al_unchecked@PEAPEAVValue@Json@@PEAPEAV12@V?$allocator@PEAPEAVValue@Json@@@std@@@std@@YAPEAPEAPEAVValue@Json@@QEAPEAPEAV12@00AEAV?$allocator@PEAPEAVValue@Json@@@0@U_Really_trivial_ptr_iterator_tag@0@U?$integral_constant@_N$00@0@@Z
pdata	ENDS
;	COMDAT pdata
pdata	SEGMENT
$pdata$??$_Uninitialized_value_construct_n1@PEAPEAVErrorInfo@Reader@Json@@_KV?$allocator@PEAVErrorInfo@Reader@Json@@@std@@@std@@YAPEAPEAVErrorInfo@Reader@Json@@PEAPEAV123@_KAEAV?$allocator@PEAVErrorInfo@Reader@Json@@@0@U?$integral_constant@_N$00@0@@Z DD imagerel $LN6
	DD	imagerel $LN6+46
	DD	imagerel $unwind$??$_Uninitialized_value_construct_n1@PEAPEAVErrorInfo@Reader@Json@@_KV?$allocator@PEAVErrorInfo@Reader@Json@@@std@@@std@@YAPEAPEAVErrorInfo@Reader@Json@@PEAPEAV123@_KAEAV?$allocator@PEAVErrorInfo@Reader@Json@@@0@U?$integral_constant@_N$00@0@@Z
pdata	ENDS
;	COMDAT pdata
pdata	SEGMENT
$pdata$??$_Uninitialized_copy_al_unchecked@PEAVErrorInfo@Reader@Json@@PEAV123@V?$allocator@PEAVErrorInfo@Reader@Json@@@std@@@std@@YAPEAPEAVErrorInfo@Reader@Json@@QEAPEAV123@00AEAV?$allocator@PEAVErrorInfo@Reader@Json@@@0@U_Really_trivial_ptr_iterator_tag@0@U?$integral_constant@_N$00@0@@Z DD imagerel $LN6
	DD	imagerel $LN6+48
	DD	imagerel $unwind$??$_Uninitialized_copy_al_unchecked@PEAVErrorInfo@Reader@Json@@PEAV123@V?$allocator@PEAVErrorInfo@Reader@Json@@@std@@@std@@YAPEAPEAVErrorInfo@Reader@Json@@QEAPEAV123@00AEAV?$allocator@PEAVErrorInfo@Reader@Json@@@0@U_Really_trivial_ptr_iterator_tag@0@U?$integral_constant@_N$00@0@@Z
pdata	ENDS
;	COMDAT pdata
pdata	SEGMENT
$pdata$??_GErrorInfo@Reader@Json@@QEAAPEAXI@Z DD imagerel $LN10
	DD	imagerel $LN10+56
	DD	imagerel $unwind$??_GErrorInfo@Reader@Json@@QEAAPEAXI@Z
pdata	ENDS
;	COMDAT pdata
pdata	SEGMENT
$pdata$??0ErrorInfo@Reader@Json@@QEAA@AEBV012@@Z DD imagerel $LN6
	DD	imagerel $LN6+67
	DD	imagerel $unwind$??0ErrorInfo@Reader@Json@@QEAA@AEBV012@@Z
pdata	ENDS
;	COMDAT pdata
pdata	SEGMENT
$pdata$??$_Uninitialized_value_construct_n@PEAPEAPEAVValue@Json@@_KV?$allocator@PEAPEAVValue@Json@@@std@@@std@@YAPEAPEAPEAVValue@Json@@PEAPEAPEAV12@_KAEAV?$allocator@PEAPEAVValue@Json@@@0@@Z DD imagerel $LN8
	DD	imagerel $LN8+46
	DD	imagerel $unwind$??$_Uninitialized_value_construct_n@PEAPEAPEAVValue@Json@@_KV?$allocator@PEAPEAVValue@Json@@@std@@@std@@YAPEAPEAPEAVValue@Json@@PEAPEAPEAV12@_KAEAV?$allocator@PEAPEAVValue@Json@@@0@@Z
pdata	ENDS
;	COMDAT pdata
pdata	SEGMENT
$pdata$??$_Uninitialized_copy@PEAPEAPEAVValue@Json@@PEAPEAPEAV12@V?$allocator@PEAPEAVValue@Json@@@std@@@std@@YAPEAPEAPEAVValue@Json@@QEAPEAPEAV12@0PEAPEAPEAV12@AEAV?$allocator@PEAPEAVValue@Json@@@0@@Z DD imagerel $LN22
	DD	imagerel $LN22+48
	DD	imagerel $unwind$??$_Uninitialized_copy@PEAPEAPEAVValue@Json@@PEAPEAPEAV12@V?$allocator@PEAPEAVValue@Json@@@std@@@std@@YAPEAPEAPEAVValue@Json@@QEAPEAPEAV12@0PEAPEAPEAV12@AEAV?$allocator@PEAPEAVValue@Json@@@0@@Z
pdata	ENDS
;	COMDAT pdata
pdata	SEGMENT
$pdata$??$construct@U_Container_proxy@std@@U12@@?$_Default_allocator_traits@V?$allocator@U_Container_proxy@std@@@std@@@std@@SAXAEAV?$allocator@U_Container_proxy@std@@@1@QEAU_Container_proxy@1@$$QEAU31@@Z DD imagerel $LN7
	DD	imagerel $LN7+31
	DD	imagerel $unwind$??$construct@U_Container_proxy@std@@U12@@?$_Default_allocator_traits@V?$allocator@U_Container_proxy@std@@@std@@@std@@SAXAEAV?$allocator@U_Container_proxy@std@@@1@QEAU_Container_proxy@1@$$QEAU31@@Z
pdata	ENDS
;	COMDAT pdata
pdata	SEGMENT
$pdata$??$_Uninitialized_value_construct_n@PEAPEAVErrorInfo@Reader@Json@@_KV?$allocator@PEAVErrorInfo@Reader@Json@@@std@@@std@@YAPEAPEAVErrorInfo@Reader@Json@@PEAPEAV123@_KAEAV?$allocator@PEAVErrorInfo@Reader@Json@@@0@@Z DD imagerel $LN8
	DD	imagerel $LN8+46
	DD	imagerel $unwind$??$_Uninitialized_value_construct_n@PEAPEAVErrorInfo@Reader@Json@@_KV?$allocator@PEAVErrorInfo@Reader@Json@@@std@@@std@@YAPEAPEAVErrorInfo@Reader@Json@@PEAPEAV123@_KAEAV?$allocator@PEAVErrorInfo@Reader@Json@@@0@@Z
pdata	ENDS
;	COMDAT pdata
pdata	SEGMENT
$pdata$??$_Uninitialized_copy@PEAPEAVErrorInfo@Reader@Json@@PEAPEAV123@V?$allocator@PEAVErrorInfo@Reader@Json@@@std@@@std@@YAPEAPEAVErrorInfo@Reader@Json@@QEAPEAV123@0PEAPEAV123@AEAV?$allocator@PEAVErrorInfo@Reader@Json@@@0@@Z DD imagerel $LN22
	DD	imagerel $LN22+48
	DD	imagerel $unwind$??$_Uninitialized_copy@PEAPEAVErrorInfo@Reader@Json@@PEAPEAV123@V?$allocator@PEAVErrorInfo@Reader@Json@@@std@@@std@@YAPEAPEAVErrorInfo@Reader@Json@@QEAPEAV123@0PEAPEAV123@AEAV?$allocator@PEAVErrorInfo@Reader@Json@@@0@@Z
pdata	ENDS
;	COMDAT pdata
pdata	SEGMENT
$pdata$??$construct@PEAVValue@Json@@PEAV12@@?$_Default_allocator_traits@V?$allocator@PEAVValue@Json@@@std@@@std@@SAXAEAV?$allocator@PEAVValue@Json@@@1@QEAPEAVValue@Json@@$$QEAPEAV34@@Z DD imagerel $LN7
	DD	imagerel $LN7+31
	DD	imagerel $unwind$??$construct@PEAVValue@Json@@PEAV12@@?$_Default_allocator_traits@V?$allocator@PEAVValue@Json@@@std@@@std@@SAXAEAV?$allocator@PEAVValue@Json@@@1@QEAPEAVValue@Json@@$$QEAPEAV34@@Z
pdata	ENDS
;	COMDAT pdata
pdata	SEGMENT
$pdata$??$construct@VErrorInfo@Reader@Json@@$$V@?$_Default_allocator_traits@V?$allocator@VErrorInfo@Reader@Json@@@std@@@std@@SAXAEAV?$allocator@VErrorInfo@Reader@Json@@@1@QEAVErrorInfo@Reader@Json@@@Z DD imagerel $LN8
	DD	imagerel $LN8+60
	DD	imagerel $unwind$??$construct@VErrorInfo@Reader@Json@@$$V@?$_Default_allocator_traits@V?$allocator@VErrorInfo@Reader@Json@@@std@@@std@@SAXAEAV?$allocator@VErrorInfo@Reader@Json@@@1@QEAVErrorInfo@Reader@Json@@@Z
pdata	ENDS
;	COMDAT pdata
pdata	SEGMENT
$pdata$??$construct@VErrorInfo@Reader@Json@@AEBV123@@?$_Default_allocator_traits@V?$allocator@VErrorInfo@Reader@Json@@@std@@@std@@SAXAEAV?$allocator@VErrorInfo@Reader@Json@@@1@QEAVErrorInfo@Reader@Json@@AEBV345@@Z DD imagerel $LN10
	DD	imagerel $LN10+74
	DD	imagerel $unwind$??$construct@VErrorInfo@Reader@Json@@AEBV123@@?$_Default_allocator_traits@V?$allocator@VErrorInfo@Reader@Json@@@std@@@std@@SAXAEAV?$allocator@VErrorInfo@Reader@Json@@@1@QEAVErrorInfo@Reader@Json@@AEBV345@@Z
pdata	ENDS
;	COMDAT pdata
pdata	SEGMENT
$pdata$?_Xlen@?$deque@PEAVValue@Json@@V?$allocator@PEAVValue@Json@@@std@@@std@@IEBAXXZ DD imagerel $LN4
	DD	imagerel $LN4+18
	DD	imagerel $unwind$?_Xlen@?$deque@PEAVValue@Json@@V?$allocator@PEAVValue@Json@@@std@@@std@@IEBAXXZ
pdata	ENDS
;	COMDAT pdata
pdata	SEGMENT
$pdata$?_Alloc_proxy@?$_Deque_alloc@U?$_Deque_base_types@PEAVValue@Json@@V?$allocator@PEAVValue@Json@@@std@@@std@@@std@@QEAAXXZ DD imagerel $LN48
	DD	imagerel $LN48+63
	DD	imagerel $unwind$?_Alloc_proxy@?$_Deque_alloc@U?$_Deque_base_types@PEAVValue@Json@@V?$allocator@PEAVValue@Json@@@std@@@std@@@std@@QEAAXXZ
pdata	ENDS
;	COMDAT pdata
pdata	SEGMENT
$pdata$?allocate@?$allocator@PEAPEAVValue@Json@@@std@@QEAAPEAPEAPEAVValue@Json@@_K@Z DD imagerel $LN4
	DD	imagerel $LN4+24
	DD	imagerel $unwind$?allocate@?$allocator@PEAPEAVValue@Json@@@std@@QEAAPEAPEAPEAVValue@Json@@_K@Z
pdata	ENDS
;	COMDAT pdata
pdata	SEGMENT
$pdata$?_Xlen@?$deque@VErrorInfo@Reader@Json@@V?$allocator@VErrorInfo@Reader@Json@@@std@@@std@@IEBAXXZ DD imagerel $LN4
	DD	imagerel $LN4+18
	DD	imagerel $unwind$?_Xlen@?$deque@VErrorInfo@Reader@Json@@V?$allocator@VErrorInfo@Reader@Json@@@std@@@std@@IEBAXXZ
pdata	ENDS
;	COMDAT pdata
pdata	SEGMENT
$pdata$?allocate@?$allocator@PEAVValue@Json@@@std@@QEAAPEAPEAVValue@Json@@_K@Z DD imagerel $LN4
	DD	imagerel $LN4+26
	DD	imagerel $unwind$?allocate@?$allocator@PEAVValue@Json@@@std@@QEAAPEAPEAVValue@Json@@_K@Z
pdata	ENDS
;	COMDAT pdata
pdata	SEGMENT
$pdata$?_Growmap@?$deque@PEAVValue@Json@@V?$allocator@PEAVValue@Json@@@std@@@std@@IEAAX_K@Z DD imagerel $LN281
	DD	imagerel $LN281+74
	DD	imagerel $unwind$?_Growmap@?$deque@PEAVValue@Json@@V?$allocator@PEAVValue@Json@@@std@@@std@@IEAAX_K@Z
pdata	ENDS
;	COMDAT pdata
pdata	SEGMENT
$pdata$4$?_Growmap@?$deque@PEAVValue@Json@@V?$allocator@PEAVValue@Json@@@std@@@std@@IEAAX_K@Z DD imagerel $LN281+74
	DD	imagerel $LN281+303
	DD	imagerel $chain$4$?_Growmap@?$deque@PEAVValue@Json@@V?$allocator@PEAVValue@Json@@@std@@@std@@IEAAX_K@Z
pdata	ENDS
;	COMDAT pdata
pdata	SEGMENT
$pdata$5$?_Growmap@?$deque@PEAVValue@Json@@V?$allocator@PEAVValue@Json@@@std@@@std@@IEAAX_K@Z DD imagerel $LN281+303
	DD	imagerel $LN281+336
	DD	imagerel $chain$5$?_Growmap@?$deque@PEAVValue@Json@@V?$allocator@PEAVValue@Json@@@std@@@std@@IEAAX_K@Z
pdata	ENDS
;	COMDAT pdata
pdata	SEGMENT
$pdata$6$?_Growmap@?$deque@PEAVValue@Json@@V?$allocator@PEAVValue@Json@@@std@@@std@@IEAAX_K@Z DD imagerel $LN281+336
	DD	imagerel $LN281+342
	DD	imagerel $chain$6$?_Growmap@?$deque@PEAVValue@Json@@V?$allocator@PEAVValue@Json@@@std@@@std@@IEAAX_K@Z
pdata	ENDS
;	COMDAT pdata
pdata	SEGMENT
$pdata$??0?$_Deque_alloc@U?$_Deque_base_types@PEAVValue@Json@@V?$allocator@PEAVValue@Json@@@std@@@std@@@std@@QEAA@XZ DD imagerel $LN58
	DD	imagerel $LN58+85
	DD	imagerel $unwind$??0?$_Deque_alloc@U?$_Deque_base_types@PEAVValue@Json@@V?$allocator@PEAVValue@Json@@@std@@@std@@@std@@QEAA@XZ
pdata	ENDS
;	COMDAT pdata
pdata	SEGMENT
$pdata$?_Free_proxy@?$_Deque_alloc@U?$_Deque_base_types@PEAVValue@Json@@V?$allocator@PEAVValue@Json@@@std@@@std@@@std@@QEAAXXZ DD imagerel $LN43
	DD	imagerel $LN43+35
	DD	imagerel $unwind$?_Free_proxy@?$_Deque_alloc@U?$_Deque_base_types@PEAVValue@Json@@V?$allocator@PEAVValue@Json@@@std@@@std@@@std@@QEAAXXZ
pdata	ENDS
;	COMDAT pdata
pdata	SEGMENT
$pdata$?_Alloc_proxy@?$_Deque_alloc@U?$_Deque_base_types@VErrorInfo@Reader@Json@@V?$allocator@VErrorInfo@Reader@Json@@@std@@@std@@@std@@QEAAXXZ DD imagerel $LN48
	DD	imagerel $LN48+63
	DD	imagerel $unwind$?_Alloc_proxy@?$_Deque_alloc@U?$_Deque_base_types@VErrorInfo@Reader@Json@@V?$allocator@VErrorInfo@Reader@Json@@@std@@@std@@@std@@QEAAXXZ
pdata	ENDS
;	COMDAT pdata
pdata	SEGMENT
$pdata$?_Free_proxy@?$_Deque_alloc@U?$_Deque_base_types@VErrorInfo@Reader@Json@@V?$allocator@VErrorInfo@Reader@Json@@@std@@@std@@@std@@QEAAXXZ DD imagerel $LN43
	DD	imagerel $LN43+35
	DD	imagerel $unwind$?_Free_proxy@?$_Deque_alloc@U?$_Deque_base_types@VErrorInfo@Reader@Json@@V?$allocator@VErrorInfo@Reader@Json@@@std@@@std@@@std@@QEAAXXZ
pdata	ENDS
;	COMDAT pdata
pdata	SEGMENT
$pdata$?allocate@?$allocator@PEAVErrorInfo@Reader@Json@@@std@@QEAAPEAPEAVErrorInfo@Reader@Json@@_K@Z DD imagerel $LN4
	DD	imagerel $LN4+24
	DD	imagerel $unwind$?allocate@?$allocator@PEAVErrorInfo@Reader@Json@@@std@@QEAAPEAPEAVErrorInfo@Reader@Json@@_K@Z
pdata	ENDS
;	COMDAT pdata
pdata	SEGMENT
$pdata$?pop_back@?$deque@VErrorInfo@Reader@Json@@V?$allocator@VErrorInfo@Reader@Json@@@std@@@std@@QEAAXXZ DD imagerel $LN58
	DD	imagerel $LN58+71
	DD	imagerel $unwind$?pop_back@?$deque@VErrorInfo@Reader@Json@@V?$allocator@VErrorInfo@Reader@Json@@@std@@@std@@QEAAXXZ
pdata	ENDS
;	COMDAT pdata
pdata	SEGMENT
$pdata$?_Growmap@?$deque@VErrorInfo@Reader@Json@@V?$allocator@VErrorInfo@Reader@Json@@@std@@@std@@IEAAX_K@Z DD imagerel $LN281
	DD	imagerel $LN281+74
	DD	imagerel $unwind$?_Growmap@?$deque@VErrorInfo@Reader@Json@@V?$allocator@VErrorInfo@Reader@Json@@@std@@@std@@IEAAX_K@Z
pdata	ENDS
;	COMDAT pdata
pdata	SEGMENT
$pdata$4$?_Growmap@?$deque@VErrorInfo@Reader@Json@@V?$allocator@VErrorInfo@Reader@Json@@@std@@@std@@IEAAX_K@Z DD imagerel $LN281+74
	DD	imagerel $LN281+300
	DD	imagerel $chain$4$?_Growmap@?$deque@VErrorInfo@Reader@Json@@V?$allocator@VErrorInfo@Reader@Json@@@std@@@std@@IEAAX_K@Z
pdata	ENDS
;	COMDAT pdata
pdata	SEGMENT
$pdata$5$?_Growmap@?$deque@VErrorInfo@Reader@Json@@V?$allocator@VErrorInfo@Reader@Json@@@std@@@std@@IEAAX_K@Z DD imagerel $LN281+300
	DD	imagerel $LN281+333
	DD	imagerel $chain$5$?_Growmap@?$deque@VErrorInfo@Reader@Json@@V?$allocator@VErrorInfo@Reader@Json@@@std@@@std@@IEAAX_K@Z
pdata	ENDS
;	COMDAT pdata
pdata	SEGMENT
$pdata$6$?_Growmap@?$deque@VErrorInfo@Reader@Json@@V?$allocator@VErrorInfo@Reader@Json@@@std@@@std@@IEAAX_K@Z DD imagerel $LN281+333
	DD	imagerel $LN281+339
	DD	imagerel $chain$6$?_Growmap@?$deque@VErrorInfo@Reader@Json@@V?$allocator@VErrorInfo@Reader@Json@@@std@@@std@@IEAAX_K@Z
pdata	ENDS
;	COMDAT pdata
pdata	SEGMENT
$pdata$?_Tidy@?$deque@VErrorInfo@Reader@Json@@V?$allocator@VErrorInfo@Reader@Json@@@std@@@std@@IEAAXXZ DD imagerel $LN156
	DD	imagerel $LN156+189
	DD	imagerel $unwind$?_Tidy@?$deque@VErrorInfo@Reader@Json@@V?$allocator@VErrorInfo@Reader@Json@@@std@@@std@@IEAAXXZ
pdata	ENDS
;	COMDAT pdata
pdata	SEGMENT
$pdata$??0?$deque@PEAVValue@Json@@V?$allocator@PEAVValue@Json@@@std@@@std@@QEAA@XZ DD imagerel $LN61
	DD	imagerel $LN61+85
	DD	imagerel $unwind$??0?$deque@PEAVValue@Json@@V?$allocator@PEAVValue@Json@@@std@@@std@@QEAA@XZ
pdata	ENDS
;	COMDAT pdata
pdata	SEGMENT
$pdata$?push_back@?$deque@PEAVValue@Json@@V?$allocator@PEAVValue@Json@@@std@@@std@@QEAAX$$QEAPEAVValue@Json@@@Z DD imagerel $LN113
	DD	imagerel $LN113+212
	DD	imagerel $unwind$?push_back@?$deque@PEAVValue@Json@@V?$allocator@PEAVValue@Json@@@std@@@std@@QEAAX$$QEAPEAVValue@Json@@@Z
pdata	ENDS
;	COMDAT pdata
pdata	SEGMENT
$pdata$?_Tidy@?$deque@PEAVValue@Json@@V?$allocator@PEAVValue@Json@@@std@@@std@@IEAAXXZ DD imagerel $LN148
	DD	imagerel $LN148+141
	DD	imagerel $unwind$?_Tidy@?$deque@PEAVValue@Json@@V?$allocator@PEAVValue@Json@@@std@@@std@@IEAAXXZ
pdata	ENDS
;	COMDAT pdata
pdata	SEGMENT
$pdata$??1?$_Deque_alloc@U?$_Deque_base_types@PEAVValue@Json@@V?$allocator@PEAVValue@Json@@@std@@@std@@@std@@QEAA@XZ DD imagerel $LN45
	DD	imagerel $LN45+45
	DD	imagerel $unwind$??1?$_Deque_alloc@U?$_Deque_base_types@PEAVValue@Json@@V?$allocator@PEAVValue@Json@@@std@@@std@@@std@@QEAA@XZ
pdata	ENDS
;	COMDAT pdata
pdata	SEGMENT
$pdata$??0?$_Deque_alloc@U?$_Deque_base_types@VErrorInfo@Reader@Json@@V?$allocator@VErrorInfo@Reader@Json@@@std@@@std@@@std@@QEAA@XZ DD imagerel $LN58
	DD	imagerel $LN58+85
	DD	imagerel $unwind$??0?$_Deque_alloc@U?$_Deque_base_types@VErrorInfo@Reader@Json@@V?$allocator@VErrorInfo@Reader@Json@@@std@@@std@@@std@@QEAA@XZ
pdata	ENDS
;	COMDAT pdata
pdata	SEGMENT
$pdata$??1?$_Deque_alloc@U?$_Deque_base_types@VErrorInfo@Reader@Json@@V?$allocator@VErrorInfo@Reader@Json@@@std@@@std@@@std@@QEAA@XZ DD imagerel $LN45
	DD	imagerel $LN45+45
	DD	imagerel $unwind$??1?$_Deque_alloc@U?$_Deque_base_types@VErrorInfo@Reader@Json@@V?$allocator@VErrorInfo@Reader@Json@@@std@@@std@@@std@@QEAA@XZ
pdata	ENDS
;	COMDAT pdata
pdata	SEGMENT
$pdata$??0?$deque@VErrorInfo@Reader@Json@@V?$allocator@VErrorInfo@Reader@Json@@@std@@@std@@QEAA@XZ DD imagerel $LN61
	DD	imagerel $LN61+85
	DD	imagerel $unwind$??0?$deque@VErrorInfo@Reader@Json@@V?$allocator@VErrorInfo@Reader@Json@@@std@@@std@@QEAA@XZ
pdata	ENDS
;	COMDAT pdata
pdata	SEGMENT
$pdata$??1?$deque@VErrorInfo@Reader@Json@@V?$allocator@VErrorInfo@Reader@Json@@@std@@@std@@QEAA@XZ DD imagerel $LN48
	DD	imagerel $LN48+51
	DD	imagerel $unwind$??1?$deque@VErrorInfo@Reader@Json@@V?$allocator@VErrorInfo@Reader@Json@@@std@@@std@@QEAA@XZ
pdata	ENDS
;	COMDAT pdata
pdata	SEGMENT
$pdata$??$emplace_back@$$V@?$deque@VErrorInfo@Reader@Json@@V?$allocator@VErrorInfo@Reader@Json@@@std@@@std@@QEAAXXZ DD imagerel $LN115
	DD	imagerel $LN115+179
	DD	imagerel $unwind$??$emplace_back@$$V@?$deque@VErrorInfo@Reader@Json@@V?$allocator@VErrorInfo@Reader@Json@@@std@@@std@@QEAAXXZ
pdata	ENDS
;	COMDAT pdata
pdata	SEGMENT
$pdata$?resize@?$deque@VErrorInfo@Reader@Json@@V?$allocator@VErrorInfo@Reader@Json@@@std@@@std@@QEAAX_K@Z DD imagerel $LN198
	DD	imagerel $LN198+282
	DD	imagerel $unwind$?resize@?$deque@VErrorInfo@Reader@Json@@V?$allocator@VErrorInfo@Reader@Json@@@std@@@std@@QEAAX_K@Z
pdata	ENDS
;	COMDAT pdata
pdata	SEGMENT
$pdata$?push_back@?$deque@VErrorInfo@Reader@Json@@V?$allocator@VErrorInfo@Reader@Json@@@std@@@std@@QEAAXAEBVErrorInfo@Reader@Json@@@Z DD imagerel $LN117
	DD	imagerel $LN117+190
	DD	imagerel $unwind$?push_back@?$deque@VErrorInfo@Reader@Json@@V?$allocator@VErrorInfo@Reader@Json@@@std@@@std@@QEAAXAEBVErrorInfo@Reader@Json@@@Z
pdata	ENDS
;	COMDAT pdata
pdata	SEGMENT
$pdata$?clear@?$deque@VErrorInfo@Reader@Json@@V?$allocator@VErrorInfo@Reader@Json@@@std@@@std@@QEAAXXZ DD imagerel $LN5
	DD	imagerel $LN5+24
	DD	imagerel $unwind$?clear@?$deque@VErrorInfo@Reader@Json@@V?$allocator@VErrorInfo@Reader@Json@@@std@@@std@@QEAAXXZ
pdata	ENDS
;	COMDAT pdata
pdata	SEGMENT
$pdata$??1?$deque@PEAVValue@Json@@V?$allocator@PEAVValue@Json@@@std@@@std@@QEAA@XZ DD imagerel $LN192
	DD	imagerel $LN192+180
	DD	imagerel $unwind$??1?$deque@PEAVValue@Json@@V?$allocator@PEAVValue@Json@@@std@@@std@@QEAA@XZ
pdata	ENDS
;	COMDAT pdata
pdata	SEGMENT
$pdata$??0?$stack@PEAVValue@Json@@V?$deque@PEAVValue@Json@@V?$allocator@PEAVValue@Json@@@std@@@std@@@std@@QEAA@XZ DD imagerel $LN64
	DD	imagerel $LN64+85
	DD	imagerel $unwind$??0?$stack@PEAVValue@Json@@V?$deque@PEAVValue@Json@@V?$allocator@PEAVValue@Json@@@std@@@std@@@std@@QEAA@XZ
pdata	ENDS
;	COMDAT pdata
pdata	SEGMENT
$pdata$?push@?$stack@PEAVValue@Json@@V?$deque@PEAVValue@Json@@V?$allocator@PEAVValue@Json@@@std@@@std@@@std@@QEAAX$$QEAPEAVValue@Json@@@Z DD imagerel $LN117
	DD	imagerel $LN117+212
	DD	imagerel $unwind$?push@?$stack@PEAVValue@Json@@V?$deque@PEAVValue@Json@@V?$allocator@PEAVValue@Json@@@std@@@std@@@std@@QEAAX$$QEAPEAVValue@Json@@@Z
pdata	ENDS
;	COMDAT pdata
pdata	SEGMENT
$pdata$??1Reader@Json@@QEAA@XZ DD imagerel $LN244
	DD	imagerel $LN244+228
	DD	imagerel $unwind$??1Reader@Json@@QEAA@XZ
pdata	ENDS
;	COMDAT pdata
pdata	SEGMENT
$pdata$?addErrorAndRecover@Reader@Json@@AEAA_NAEBV?$basic_string@DU?$char_traits@D@std@@V?$allocator@D@2@@std@@AEAVToken@12@W4TokenType@12@@Z DD imagerel $LN26
	DD	imagerel $LN26+104
	DD	imagerel $unwind$?addErrorAndRecover@Reader@Json@@AEAA_NAEBV?$basic_string@DU?$char_traits@D@std@@V?$allocator@D@2@@std@@AEAVToken@12@W4TokenType@12@@Z
pdata	ENDS
;	COMDAT pdata
pdata	SEGMENT
$pdata$?recoverFromError@Reader@Json@@AEAA_NW4TokenType@12@@Z DD imagerel $LN24
	DD	imagerel $LN24+103
	DD	imagerel $unwind$?recoverFromError@Reader@Json@@AEAA_NW4TokenType@12@@Z
pdata	ENDS
;	COMDAT pdata
pdata	SEGMENT
$pdata$??0ErrorInfo@Reader@Json@@QEAA@XZ DD imagerel $LN5
	DD	imagerel $LN5+27
	DD	imagerel $unwind$??0ErrorInfo@Reader@Json@@QEAA@XZ
pdata	ENDS
;	COMDAT pdata
pdata	SEGMENT
$pdata$?addError@Reader@Json@@AEAA_NAEBV?$basic_string@DU?$char_traits@D@std@@V?$allocator@D@2@@std@@AEAVToken@12@PEBD@Z DD imagerel $LN126
	DD	imagerel $LN126+292
	DD	imagerel $unwind$?addError@Reader@Json@@AEAA_NAEBV?$basic_string@DU?$char_traits@D@std@@V?$allocator@D@2@@std@@AEAVToken@12@PEBD@Z
pdata	ENDS
;	COMDAT pdata
pdata	SEGMENT
$pdata$?decodeUnicodeEscapeSequence@Reader@Json@@AEAA_NAEAVToken@12@AEAPEBDPEBDAEAI@Z DD imagerel $LN23
	DD	imagerel $LN23+268
	DD	imagerel $unwind$?decodeUnicodeEscapeSequence@Reader@Json@@AEAA_NAEAVToken@12@AEAPEBDPEBDAEAI@Z
pdata	ENDS
;	COMDAT pdata
pdata	SEGMENT
$pdata$?decodeUnicodeCodePoint@Reader@Json@@AEAA_NAEAVToken@12@AEAPEBDPEBDAEAI@Z DD imagerel $LN55
	DD	imagerel $LN55+713
	DD	imagerel $unwind$?decodeUnicodeCodePoint@Reader@Json@@AEAA_NAEAVToken@12@AEAPEBDPEBDAEAI@Z
pdata	ENDS
;	COMDAT pdata
pdata	SEGMENT
$pdata$?decodeString@Reader@Json@@AEAA_NAEAVToken@12@AEAV?$basic_string@DU?$char_traits@D@std@@V?$allocator@D@2@@std@@@Z DD imagerel $LN37
	DD	imagerel $LN37+580
	DD	imagerel $unwind$?decodeString@Reader@Json@@AEAA_NAEAVToken@12@AEAV?$basic_string@DU?$char_traits@D@std@@V?$allocator@D@2@@std@@@Z
pdata	ENDS
;	COMDAT pdata
pdata	SEGMENT
$pdata$?decodeString@Reader@Json@@AEAA_NAEAVToken@12@@Z DD imagerel $LN138
	DD	imagerel $LN138+431
	DD	imagerel $unwind$?decodeString@Reader@Json@@AEAA_NAEAVToken@12@@Z
pdata	ENDS
;	COMDAT pdata
pdata	SEGMENT
$pdata$?decodeDouble@Reader@Json@@AEAA_NAEAVToken@12@@Z DD imagerel $LN171
	DD	imagerel $LN171+698
	DD	imagerel $unwind$?decodeDouble@Reader@Json@@AEAA_NAEAVToken@12@@Z
pdata	ENDS
;	COMDAT pdata
pdata	SEGMENT
$pdata$?decodeNumber@Reader@Json@@AEAA_NAEAVToken@12@@Z DD imagerel $LN452
	DD	imagerel $LN452+1128
	DD	imagerel $unwind$?decodeNumber@Reader@Json@@AEAA_NAEAVToken@12@@Z
pdata	ENDS
;	COMDAT pdata
pdata	SEGMENT
$pdata$?readArray@Reader@Json@@AEAA_NAEAVToken@12@@Z DD imagerel $LN387
	DD	imagerel $LN387+721
	DD	imagerel $unwind$?readArray@Reader@Json@@AEAA_NAEAVToken@12@@Z
pdata	ENDS
;	COMDAT pdata
pdata	SEGMENT
$pdata$?dtor$2@?0??readArray@Reader@Json@@AEAA_NAEAVToken@12@@Z@4HA DD imagerel ?dtor$2@?0??readArray@Reader@Json@@AEAA_NAEAVToken@12@@Z@4HA
	DD	imagerel ?dtor$2@?0??readArray@Reader@Json@@AEAA_NAEAVToken@12@@Z@4HA+29
	DD	imagerel $unwind$?dtor$2@?0??readArray@Reader@Json@@AEAA_NAEAVToken@12@@Z@4HA
pdata	ENDS
;	COMDAT pdata
pdata	SEGMENT
$pdata$?readObject@Reader@Json@@AEAA_NAEAVToken@12@@Z DD imagerel $LN567
	DD	imagerel $LN567+1174
	DD	imagerel $unwind$?readObject@Reader@Json@@AEAA_NAEAVToken@12@@Z
pdata	ENDS
;	COMDAT pdata
pdata	SEGMENT
$pdata$?dtor$5@?0??readObject@Reader@Json@@AEAA_NAEAVToken@12@@Z@4HA DD imagerel ?dtor$5@?0??readObject@Reader@Json@@AEAA_NAEAVToken@12@@Z@4HA
	DD	imagerel ?dtor$5@?0??readObject@Reader@Json@@AEAA_NAEAVToken@12@@Z@4HA+29
	DD	imagerel $unwind$?dtor$5@?0??readObject@Reader@Json@@AEAA_NAEAVToken@12@@Z@4HA
pdata	ENDS
;	COMDAT pdata
pdata	SEGMENT
$pdata$?addComment@Reader@Json@@AEAAXPEBD0W4CommentPlacement@2@@Z DD imagerel $LN33
	DD	imagerel $LN33+266
	DD	imagerel $unwind$?addComment@Reader@Json@@AEAAXPEBD0W4CommentPlacement@2@@Z
pdata	ENDS
;	COMDAT pdata
pdata	SEGMENT
$pdata$?readComment@Reader@Json@@AEAA_NXZ DD imagerel $LN111
	DD	imagerel $LN111+580
	DD	imagerel $unwind$?readComment@Reader@Json@@AEAA_NXZ
pdata	ENDS
;	COMDAT pdata
pdata	SEGMENT
$pdata$?match@Reader@Json@@AEAA_NPEBDH@Z DD imagerel $LN13
	DD	imagerel $LN13+100
	DD	imagerel $unwind$?match@Reader@Json@@AEAA_NPEBDH@Z
pdata	ENDS
;	COMDAT pdata
pdata	SEGMENT
$pdata$?readToken@Reader@Json@@AEAA_NAEAVToken@12@@Z DD imagerel $LN113
	DD	imagerel $LN113+906
	DD	imagerel $unwind$?readToken@Reader@Json@@AEAA_NAEAVToken@12@@Z
pdata	ENDS
;	COMDAT pdata
pdata	SEGMENT
$pdata$?skipCommentTokens@Reader@Json@@AEAAXAEAVToken@12@@Z DD imagerel $LN12
	DD	imagerel $LN12+74
	DD	imagerel $unwind$?skipCommentTokens@Reader@Json@@AEAAXAEAVToken@12@@Z
pdata	ENDS
;	COMDAT pdata
pdata	SEGMENT
$pdata$?readValue@Reader@Json@@AEAA_NXZ DD imagerel $LN652
	DD	imagerel $LN652+1008
	DD	imagerel $unwind$?readValue@Reader@Json@@AEAA_NXZ
pdata	ENDS
;	COMDAT pdata
pdata	SEGMENT
$pdata$?parse@Reader@Json@@QEAA_NPEBD0AEAVValue@2@_N@Z DD imagerel $LN100
	DD	imagerel $LN100+414
	DD	imagerel $unwind$?parse@Reader@Json@@QEAA_NPEBD0AEAVValue@2@_N@Z
pdata	ENDS
;	COMDAT pdata
pdata	SEGMENT
$pdata$?parse@Reader@Json@@QEAA_NAEBV?$basic_string@DU?$char_traits@D@std@@V?$allocator@D@2@@std@@AEAVValue@2@_N@Z DD imagerel $LN102
	DD	imagerel $LN102+453
	DD	imagerel $unwind$?parse@Reader@Json@@QEAA_NAEBV?$basic_string@DU?$char_traits@D@std@@V?$allocator@D@2@@std@@AEAVValue@2@_N@Z
pdata	ENDS
;	COMDAT pdata
pdata	SEGMENT
$pdata$??1?$stack@PEAVValue@Json@@V?$deque@PEAVValue@Json@@V?$allocator@PEAVValue@Json@@@std@@@std@@@std@@QEAA@XZ DD imagerel $LN195
	DD	imagerel $LN195+180
	DD	imagerel $unwind$??1?$stack@PEAVValue@Json@@V?$deque@PEAVValue@Json@@V?$allocator@PEAVValue@Json@@@std@@@std@@@std@@QEAA@XZ
pdata	ENDS
;	COMDAT pdata
pdata	SEGMENT
$pdata$??0Reader@Json@@QEAA@XZ DD imagerel $LN132
	DD	imagerel $LN132+205
	DD	imagerel $unwind$??0Reader@Json@@QEAA@XZ
pdata	ENDS
;	COMDAT pdata
pdata	SEGMENT
$pdata$?codePointToUTF8@Json@@YA?AV?$basic_string@DU?$char_traits@D@std@@V?$allocator@D@2@@std@@I@Z DD imagerel ?codePointToUTF8@Json@@YA?AV?$basic_string@DU?$char_traits@D@std@@V?$allocator@D@2@@std@@I@Z
	DD	imagerel ?codePointToUTF8@Json@@YA?AV?$basic_string@DU?$char_traits@D@std@@V?$allocator@D@2@@std@@I@Z+421
	DD	imagerel $unwind$?codePointToUTF8@Json@@YA?AV?$basic_string@DU?$char_traits@D@std@@V?$allocator@D@2@@std@@I@Z
pdata	ENDS
;	COMDAT pdata
pdata	SEGMENT
$pdata$?dtor$0@?0??codePointToUTF8@Json@@YA?AV?$basic_string@DU?$char_traits@D@std@@V?$allocator@D@2@@std@@I@Z@4HA DD imagerel ?dtor$0@?0??codePointToUTF8@Json@@YA?AV?$basic_string@DU?$char_traits@D@std@@V?$allocator@D@2@@std@@I@Z@4HA
	DD	imagerel ?dtor$0@?0??codePointToUTF8@Json@@YA?AV?$basic_string@DU?$char_traits@D@std@@V?$allocator@D@2@@std@@I@Z@4HA+38
	DD	imagerel $unwind$?dtor$0@?0??codePointToUTF8@Json@@YA?AV?$basic_string@DU?$char_traits@D@std@@V?$allocator@D@2@@std@@I@Z@4HA
pdata	ENDS
;	COMDAT pdata
pdata	SEGMENT
$pdata$sscanf DD imagerel $LN6
	DD	imagerel $LN6+82
	DD	imagerel $unwind$sscanf
pdata	ENDS
;	COMDAT pdata
pdata	SEGMENT
$pdata$_vsscanf_l DD imagerel $LN4
	DD	imagerel $LN4+81
	DD	imagerel $unwind$_vsscanf_l
pdata	ENDS
;	COMDAT pdata
pdata	SEGMENT
$pdata$sprintf DD imagerel $LN8
	DD	imagerel $LN8+94
	DD	imagerel $unwind$sprintf
pdata	ENDS
;	COMDAT pdata
pdata	SEGMENT
$pdata$_vsprintf_l DD imagerel $LN6
	DD	imagerel $LN6+102
	DD	imagerel $unwind$_vsprintf_l
pdata	ENDS
;	COMDAT pdata
pdata	SEGMENT
$pdata$_vsnprintf_l DD imagerel $LN4
	DD	imagerel $LN4+105
	DD	imagerel $unwind$_vsnprintf_l
pdata	ENDS
;	COMDAT xdata
xdata	SEGMENT
$unwind$_vsnprintf_l DD 081401H
	DD	0a6414H
	DD	095414H
	DD	083414H
	DD	070105214H
xdata	ENDS
;	COMDAT xdata
xdata	SEGMENT
$unwind$_vsprintf_l DD 081401H
	DD	0a6414H
	DD	095414H
	DD	083414H
	DD	070105214H
xdata	ENDS
;	COMDAT xdata
xdata	SEGMENT
$unwind$sprintf DD 041601H
	DD	070125216H
	DD	030106011H
xdata	ENDS
;	COMDAT xdata
xdata	SEGMENT
$unwind$_vsscanf_l DD 060f01H
	DD	09640fH
	DD	08340fH
	DD	0700b520fH
xdata	ENDS
;	COMDAT xdata
xdata	SEGMENT
$unwind$sscanf DD 041601H
	DD	070125216H
	DD	030106011H
xdata	ENDS
;	COMDAT xdata
xdata	SEGMENT
$unwind$?dtor$0@?0??codePointToUTF8@Json@@YA?AV?$basic_string@DU?$char_traits@D@std@@V?$allocator@D@2@@std@@I@Z@4HA DD 020601H
	DD	050023206H
xdata	ENDS
;	COMDAT xdata
xdata	SEGMENT
$ip2state$?codePointToUTF8@Json@@YA?AV?$basic_string@DU?$char_traits@D@std@@V?$allocator@D@2@@std@@I@Z DD imagerel ?codePointToUTF8@Json@@YA?AV?$basic_string@DU?$char_traits@D@std@@V?$allocator@D@2@@std@@I@Z+65
	DD	00H
xdata	ENDS
;	COMDAT xdata
xdata	SEGMENT
$stateUnwindMap$?codePointToUTF8@Json@@YA?AV?$basic_string@DU?$char_traits@D@std@@V?$allocator@D@2@@std@@I@Z DD 0ffffffffH
	DD	imagerel ?dtor$0@?0??codePointToUTF8@Json@@YA?AV?$basic_string@DU?$char_traits@D@std@@V?$allocator@D@2@@std@@I@Z@4HA
xdata	ENDS
;	COMDAT CONST
CONST	SEGMENT
$cppxdata$?codePointToUTF8@Json@@YA?AV?$basic_string@DU?$char_traits@D@std@@V?$allocator@D@2@@std@@I@Z DD 019930522H
	DD	01H
	DD	imagerel $stateUnwindMap$?codePointToUTF8@Json@@YA?AV?$basic_string@DU?$char_traits@D@std@@V?$allocator@D@2@@std@@I@Z
	DD	00H
	DD	00H
	DD	01H
	DD	imagerel $ip2state$?codePointToUTF8@Json@@YA?AV?$basic_string@DU?$char_traits@D@std@@V?$allocator@D@2@@std@@I@Z
	DD	028H
	DD	00H
	DD	01H
CONST	ENDS
;	COMDAT xdata
xdata	SEGMENT
$unwind$?codePointToUTF8@Json@@YA?AV?$basic_string@DU?$char_traits@D@std@@V?$allocator@D@2@@std@@I@Z DD 041811H
	DD	093418H
	DD	07006520aH
	DD	imagerel __CxxFrameHandler3
	DD	imagerel $cppxdata$?codePointToUTF8@Json@@YA?AV?$basic_string@DU?$char_traits@D@std@@V?$allocator@D@2@@std@@I@Z
xdata	ENDS
;	COMDAT xdata
xdata	SEGMENT
$ip2state$??0Reader@Json@@QEAA@XZ DD imagerel ??0Reader@Json@@QEAA@XZ+61
	DD	0ffffffffH
	DD	imagerel ??0Reader@Json@@QEAA@XZ+123
	DD	00H
xdata	ENDS
;	COMDAT xdata
xdata	SEGMENT
$stateUnwindMap$??0Reader@Json@@QEAA@XZ DD 0ffffffffH
	DD	imagerel ?dtor$0@?0???0Reader@Json@@QEAA@XZ@4HA
xdata	ENDS
;	COMDAT CONST
CONST	SEGMENT
$cppxdata$??0Reader@Json@@QEAA@XZ DD 019930522H
	DD	01H
	DD	imagerel $stateUnwindMap$??0Reader@Json@@QEAA@XZ
	DD	00H
	DD	00H
	DD	02H
	DD	imagerel $ip2state$??0Reader@Json@@QEAA@XZ
	DD	020H
	DD	00H
	DD	01H
CONST	ENDS
;	COMDAT xdata
xdata	SEGMENT
$unwind$??0Reader@Json@@QEAA@XZ DD 082211H
	DD	036822H
	DD	0d641dH
	DD	0c3418H
	DD	07006720aH
	DD	imagerel __CxxFrameHandler3
	DD	imagerel $cppxdata$??0Reader@Json@@QEAA@XZ
xdata	ENDS
;	COMDAT xdata
xdata	SEGMENT
$ip2state$??1?$stack@PEAVValue@Json@@V?$deque@PEAVValue@Json@@V?$allocator@PEAVValue@Json@@@std@@@std@@@std@@QEAA@XZ DD imagerel ??1?$stack@PEAVValue@Json@@V?$deque@PEAVValue@Json@@V?$allocator@PEAVValue@Json@@@std@@@std@@@std@@QEAA@XZ+101
	DD	00H
	DD	imagerel ??1?$stack@PEAVValue@Json@@V?$deque@PEAVValue@Json@@V?$allocator@PEAVValue@Json@@@std@@@std@@@std@@QEAA@XZ+147
	DD	01H
	DD	imagerel ??1?$stack@PEAVValue@Json@@V?$deque@PEAVValue@Json@@V?$allocator@PEAVValue@Json@@@std@@@std@@@std@@QEAA@XZ+164
	DD	0ffffffffH
xdata	ENDS
;	COMDAT xdata
xdata	SEGMENT
$stateUnwindMap$??1?$stack@PEAVValue@Json@@V?$deque@PEAVValue@Json@@V?$allocator@PEAVValue@Json@@@std@@@std@@@std@@QEAA@XZ DD 0ffffffffH
	DD	imagerel __imp___std_terminate
	DD	00H
	DD	imagerel __imp___std_terminate
xdata	ENDS
;	COMDAT CONST
CONST	SEGMENT
$cppxdata$??1?$stack@PEAVValue@Json@@V?$deque@PEAVValue@Json@@V?$allocator@PEAVValue@Json@@@std@@@std@@@std@@QEAA@XZ DD 019930522H
	DD	02H
	DD	imagerel $stateUnwindMap$??1?$stack@PEAVValue@Json@@V?$deque@PEAVValue@Json@@V?$allocator@PEAVValue@Json@@@std@@@std@@@std@@QEAA@XZ
	DD	00H
	DD	00H
	DD	03H
	DD	imagerel $ip2state$??1?$stack@PEAVValue@Json@@V?$deque@PEAVValue@Json@@V?$allocator@PEAVValue@Json@@@std@@@std@@@std@@QEAA@XZ
	DD	020H
	DD	00H
	DD	05H
CONST	ENDS
;	COMDAT xdata
xdata	SEGMENT
$unwind$??1?$stack@PEAVValue@Json@@V?$deque@PEAVValue@Json@@V?$allocator@PEAVValue@Json@@@std@@@std@@@std@@QEAA@XZ DD 061919H
	DD	096419H
	DD	083414H
	DD	070025206H
	DD	imagerel __CxxFrameHandler3
	DD	imagerel $cppxdata$??1?$stack@PEAVValue@Json@@V?$deque@PEAVValue@Json@@V?$allocator@PEAVValue@Json@@@std@@@std@@@std@@QEAA@XZ
xdata	ENDS
;	COMDAT xdata
xdata	SEGMENT
$ip2state$?parse@Reader@Json@@QEAA_NAEBV?$basic_string@DU?$char_traits@D@std@@V?$allocator@D@2@@std@@AEAVValue@2@_N@Z DD imagerel ?parse@Reader@Json@@QEAA_NAEBV?$basic_string@DU?$char_traits@D@std@@V?$allocator@D@2@@std@@AEAVValue@2@_N@Z+58
	DD	0ffffffffH
	DD	imagerel ?parse@Reader@Json@@QEAA_NAEBV?$basic_string@DU?$char_traits@D@std@@V?$allocator@D@2@@std@@AEAVValue@2@_N@Z+156
	DD	00H
	DD	imagerel ?parse@Reader@Json@@QEAA_NAEBV?$basic_string@DU?$char_traits@D@std@@V?$allocator@D@2@@std@@AEAVValue@2@_N@Z+166
	DD	0ffffffffH
	DD	imagerel ?parse@Reader@Json@@QEAA_NAEBV?$basic_string@DU?$char_traits@D@std@@V?$allocator@D@2@@std@@AEAVValue@2@_N@Z+380
	DD	01H
	DD	imagerel ?parse@Reader@Json@@QEAA_NAEBV?$basic_string@DU?$char_traits@D@std@@V?$allocator@D@2@@std@@AEAVValue@2@_N@Z+402
	DD	0ffffffffH
xdata	ENDS
;	COMDAT xdata
xdata	SEGMENT
$stateUnwindMap$?parse@Reader@Json@@QEAA_NAEBV?$basic_string@DU?$char_traits@D@std@@V?$allocator@D@2@@std@@AEAVValue@2@_N@Z DD 0ffffffffH
	DD	imagerel __imp___std_terminate
	DD	0ffffffffH
	DD	imagerel ?dtor$0@?0??parse@Reader@Json@@QEAA_NAEBV?$basic_string@DU?$char_traits@D@std@@V?$allocator@D@2@@std@@AEAVValue@2@_N@Z@4HA
xdata	ENDS
;	COMDAT CONST
CONST	SEGMENT
$cppxdata$?parse@Reader@Json@@QEAA_NAEBV?$basic_string@DU?$char_traits@D@std@@V?$allocator@D@2@@std@@AEAVValue@2@_N@Z DD 019930522H
	DD	02H
	DD	imagerel $stateUnwindMap$?parse@Reader@Json@@QEAA_NAEBV?$basic_string@DU?$char_traits@D@std@@V?$allocator@D@2@@std@@AEAVValue@2@_N@Z
	DD	00H
	DD	00H
	DD	05H
	DD	imagerel $ip2state$?parse@Reader@Json@@QEAA_NAEBV?$basic_string@DU?$char_traits@D@std@@V?$allocator@D@2@@std@@AEAVValue@2@_N@Z
	DD	040H
	DD	00H
	DD	01H
CONST	ENDS
;	COMDAT xdata
xdata	SEGMENT
$unwind$?parse@Reader@Json@@QEAA_NAEBV?$basic_string@DU?$char_traits@D@std@@V?$allocator@D@2@@std@@AEAVValue@2@_N@Z DD 082c19H
	DD	017341dH
	DD	0f008d20cH
	DD	07004e006H
	DD	050026003H
	DD	imagerel __GSHandlerCheck_EH
	DD	imagerel $cppxdata$?parse@Reader@Json@@QEAA_NAEBV?$basic_string@DU?$char_traits@D@std@@V?$allocator@D@2@@std@@AEAVValue@2@_N@Z
	DD	06aH
xdata	ENDS
;	COMDAT xdata
xdata	SEGMENT
$ip2state$?parse@Reader@Json@@QEAA_NPEBD0AEAVValue@2@_N@Z DD imagerel ?parse@Reader@Json@@QEAA_NPEBD0AEAVValue@2@_N@Z+119
	DD	0ffffffffH
	DD	imagerel ?parse@Reader@Json@@QEAA_NPEBD0AEAVValue@2@_N@Z+129
	DD	00H
	DD	imagerel ?parse@Reader@Json@@QEAA_NPEBD0AEAVValue@2@_N@Z+176
	DD	0ffffffffH
	DD	imagerel ?parse@Reader@Json@@QEAA_NPEBD0AEAVValue@2@_N@Z+348
	DD	01H
	DD	imagerel ?parse@Reader@Json@@QEAA_NPEBD0AEAVValue@2@_N@Z+370
	DD	0ffffffffH
xdata	ENDS
;	COMDAT xdata
xdata	SEGMENT
$stateUnwindMap$?parse@Reader@Json@@QEAA_NPEBD0AEAVValue@2@_N@Z DD 0ffffffffH
	DD	imagerel __imp___std_terminate
	DD	0ffffffffH
	DD	imagerel ?dtor$0@?0??parse@Reader@Json@@QEAA_NPEBD0AEAVValue@2@_N@Z@4HA
xdata	ENDS
;	COMDAT CONST
CONST	SEGMENT
$cppxdata$?parse@Reader@Json@@QEAA_NPEBD0AEAVValue@2@_N@Z DD 019930522H
	DD	02H
	DD	imagerel $stateUnwindMap$?parse@Reader@Json@@QEAA_NPEBD0AEAVValue@2@_N@Z
	DD	00H
	DD	00H
	DD	05H
	DD	imagerel $ip2state$?parse@Reader@Json@@QEAA_NPEBD0AEAVValue@2@_N@Z
	DD	040H
	DD	00H
	DD	01H
CONST	ENDS
;	COMDAT xdata
xdata	SEGMENT
$unwind$?parse@Reader@Json@@QEAA_NPEBD0AEAVValue@2@_N@Z DD 072519H
	DD	0f009e20dH
	DD	07005e007H
	DD	050036004H
	DD	03002H
	DD	imagerel __GSHandlerCheck_EH
	DD	imagerel $cppxdata$?parse@Reader@Json@@QEAA_NPEBD0AEAVValue@2@_N@Z
	DD	06aH
xdata	ENDS
;	COMDAT xdata
xdata	SEGMENT
$ip2state$?readValue@Reader@Json@@AEAA_NXZ DD imagerel ?readValue@Reader@Json@@AEAA_NXZ+71
	DD	0ffffffffH
	DD	imagerel ?readValue@Reader@Json@@AEAA_NXZ+295
	DD	00H
	DD	imagerel ?readValue@Reader@Json@@AEAA_NXZ+300
	DD	0ffffffffH
	DD	imagerel ?readValue@Reader@Json@@AEAA_NXZ+395
	DD	00H
	DD	imagerel ?readValue@Reader@Json@@AEAA_NXZ+500
	DD	0ffffffffH
	DD	imagerel ?readValue@Reader@Json@@AEAA_NXZ+626
	DD	01H
	DD	imagerel ?readValue@Reader@Json@@AEAA_NXZ+744
	DD	03H
	DD	imagerel ?readValue@Reader@Json@@AEAA_NXZ+894
	DD	0ffffffffH
	DD	imagerel ?readValue@Reader@Json@@AEAA_NXZ+914
	DD	04H
	DD	imagerel ?readValue@Reader@Json@@AEAA_NXZ+941
	DD	0ffffffffH
xdata	ENDS
;	COMDAT xdata
xdata	SEGMENT
$stateUnwindMap$?readValue@Reader@Json@@AEAA_NXZ DD 0ffffffffH
	DD	imagerel ?dtor$0@?0??readValue@Reader@Json@@AEAA_NXZ@4HA
	DD	0ffffffffH
	DD	imagerel ?dtor$1@?0??readValue@Reader@Json@@AEAA_NXZ@4HA
	DD	0ffffffffH
	DD	00H
	DD	0ffffffffH
	DD	imagerel ?dtor$2@?0??readValue@Reader@Json@@AEAA_NXZ@4HA
	DD	0ffffffffH
	DD	imagerel ?dtor$3@?0??readValue@Reader@Json@@AEAA_NXZ@4HA
xdata	ENDS
;	COMDAT CONST
CONST	SEGMENT
$cppxdata$?readValue@Reader@Json@@AEAA_NXZ DD 019930522H
	DD	05H
	DD	imagerel $stateUnwindMap$?readValue@Reader@Json@@AEAA_NXZ
	DD	00H
	DD	00H
	DD	0aH
	DD	imagerel $ip2state$?readValue@Reader@Json@@AEAA_NXZ
	DD	038H
	DD	00H
	DD	01H
CONST	ENDS
;	COMDAT xdata
xdata	SEGMENT
$unwind$?readValue@Reader@Json@@AEAA_NXZ DD 0a3119H
	DD	0157423H
	DD	014641fH
	DD	013341bH
	DD	0f008d20fH
	DD	05004e006H
	DD	imagerel __GSHandlerCheck_EH
	DD	imagerel $cppxdata$?readValue@Reader@Json@@AEAA_NXZ
	DD	062H
xdata	ENDS
;	COMDAT xdata
xdata	SEGMENT
$unwind$?skipCommentTokens@Reader@Json@@AEAAXAEAVToken@12@@Z DD 040a01H
	DD	06340aH
	DD	07006320aH
xdata	ENDS
;	COMDAT xdata
xdata	SEGMENT
$unwind$?readToken@Reader@Json@@AEAA_NAEAVToken@12@@Z DD 040a01H
	DD	06340aH
	DD	07006320aH
xdata	ENDS
;	COMDAT xdata
xdata	SEGMENT
$unwind$?match@Reader@Json@@AEAA_NPEBDH@Z DD 020501H
	DD	013405H
xdata	ENDS
;	COMDAT xdata
xdata	SEGMENT
$ip2state$?readComment@Reader@Json@@AEAA_NXZ DD imagerel ?readComment@Reader@Json@@AEAA_NXZ+171
	DD	0ffffffffH
	DD	imagerel ?readComment@Reader@Json@@AEAA_NXZ+384
	DD	00H
	DD	imagerel ?readComment@Reader@Json@@AEAA_NXZ+417
	DD	01H
	DD	imagerel ?readComment@Reader@Json@@AEAA_NXZ+441
	DD	0ffffffffH
	DD	imagerel ?readComment@Reader@Json@@AEAA_NXZ+516
	DD	02H
	DD	imagerel ?readComment@Reader@Json@@AEAA_NXZ+549
	DD	03H
	DD	imagerel ?readComment@Reader@Json@@AEAA_NXZ+563
	DD	0ffffffffH
xdata	ENDS
;	COMDAT xdata
xdata	SEGMENT
$stateUnwindMap$?readComment@Reader@Json@@AEAA_NXZ DD 0ffffffffH
	DD	imagerel ?dtor$2@?0??readComment@Reader@Json@@AEAA_NXZ@4HA
	DD	0ffffffffH
	DD	imagerel ?dtor$0@?0??readComment@Reader@Json@@AEAA_NXZ@4HA
	DD	0ffffffffH
	DD	imagerel ?dtor$3@?0??readComment@Reader@Json@@AEAA_NXZ@4HA
	DD	0ffffffffH
	DD	imagerel ?dtor$1@?0??readComment@Reader@Json@@AEAA_NXZ@4HA
xdata	ENDS
;	COMDAT CONST
CONST	SEGMENT
$cppxdata$?readComment@Reader@Json@@AEAA_NXZ DD 019930522H
	DD	04H
	DD	imagerel $stateUnwindMap$?readComment@Reader@Json@@AEAA_NXZ
	DD	00H
	DD	00H
	DD	07H
	DD	imagerel $ip2state$?readComment@Reader@Json@@AEAA_NXZ
	DD	028H
	DD	00H
	DD	01H
CONST	ENDS
;	COMDAT xdata
xdata	SEGMENT
$unwind$?readComment@Reader@Json@@AEAA_NXZ DD 062b19H
	DD	010641cH
	DD	0f3414H
	DD	07002b206H
	DD	imagerel __GSHandlerCheck_EH
	DD	imagerel $cppxdata$?readComment@Reader@Json@@AEAA_NXZ
	DD	052H
xdata	ENDS
;	COMDAT xdata
xdata	SEGMENT
$ip2state$?addComment@Reader@Json@@AEAAXPEBD0W4CommentPlacement@2@@Z DD imagerel ?addComment@Reader@Json@@AEAAXPEBD0W4CommentPlacement@2@@Z+65
	DD	0ffffffffH
	DD	imagerel ?addComment@Reader@Json@@AEAAXPEBD0W4CommentPlacement@2@@Z+76
	DD	00H
	DD	imagerel ?addComment@Reader@Json@@AEAAXPEBD0W4CommentPlacement@2@@Z+104
	DD	01H
	DD	imagerel ?addComment@Reader@Json@@AEAAXPEBD0W4CommentPlacement@2@@Z+128
	DD	0ffffffffH
	DD	imagerel ?addComment@Reader@Json@@AEAAXPEBD0W4CommentPlacement@2@@Z+188
	DD	02H
	DD	imagerel ?addComment@Reader@Json@@AEAAXPEBD0W4CommentPlacement@2@@Z+221
	DD	03H
	DD	imagerel ?addComment@Reader@Json@@AEAAXPEBD0W4CommentPlacement@2@@Z+235
	DD	0ffffffffH
xdata	ENDS
;	COMDAT xdata
xdata	SEGMENT
$stateUnwindMap$?addComment@Reader@Json@@AEAAXPEBD0W4CommentPlacement@2@@Z DD 0ffffffffH
	DD	imagerel ?dtor$2@?0??addComment@Reader@Json@@AEAAXPEBD0W4CommentPlacement@2@@Z@4HA
	DD	0ffffffffH
	DD	imagerel ?dtor$0@?0??addComment@Reader@Json@@AEAAXPEBD0W4CommentPlacement@2@@Z@4HA
	DD	0ffffffffH
	DD	imagerel ?dtor$3@?0??addComment@Reader@Json@@AEAAXPEBD0W4CommentPlacement@2@@Z@4HA
	DD	0ffffffffH
	DD	imagerel ?dtor$1@?0??addComment@Reader@Json@@AEAAXPEBD0W4CommentPlacement@2@@Z@4HA
xdata	ENDS
;	COMDAT CONST
CONST	SEGMENT
$cppxdata$?addComment@Reader@Json@@AEAAXPEBD0W4CommentPlacement@2@@Z DD 019930522H
	DD	04H
	DD	imagerel $stateUnwindMap$?addComment@Reader@Json@@AEAAXPEBD0W4CommentPlacement@2@@Z
	DD	00H
	DD	00H
	DD	07H
	DD	imagerel $ip2state$?addComment@Reader@Json@@AEAAXPEBD0W4CommentPlacement@2@@Z
	DD	028H
	DD	00H
	DD	01H
CONST	ENDS
;	COMDAT xdata
xdata	SEGMENT
$unwind$?addComment@Reader@Json@@AEAAXPEBD0W4CommentPlacement@2@@Z DD 042019H
	DD	07004b208H
	DD	030026003H
	DD	imagerel __GSHandlerCheck_EH
	DD	imagerel $cppxdata$?addComment@Reader@Json@@AEAAXPEBD0W4CommentPlacement@2@@Z
	DD	052H
xdata	ENDS
;	COMDAT xdata
xdata	SEGMENT
$unwind$?dtor$5@?0??readObject@Reader@Json@@AEAA_NAEAVToken@12@@Z@4HA DD 020601H
	DD	050023206H
xdata	ENDS
;	COMDAT xdata
xdata	SEGMENT
$ip2state$?readObject@Reader@Json@@AEAA_NAEAVToken@12@@Z DD imagerel ?readObject@Reader@Json@@AEAA_NAEAVToken@12@@Z+91
	DD	00H
	DD	imagerel ?readObject@Reader@Json@@AEAA_NAEAVToken@12@@Z+119
	DD	01H
	DD	imagerel ?readObject@Reader@Json@@AEAA_NAEAVToken@12@@Z+229
	DD	02H
	DD	imagerel ?readObject@Reader@Json@@AEAA_NAEAVToken@12@@Z+251
	DD	00H
	DD	imagerel ?readObject@Reader@Json@@AEAA_NAEAVToken@12@@Z+793
	DD	04H
	DD	imagerel ?readObject@Reader@Json@@AEAA_NAEAVToken@12@@Z+872
	DD	00H
	DD	imagerel ?readObject@Reader@Json@@AEAA_NAEAVToken@12@@Z+916
	DD	03H
	DD	imagerel ?readObject@Reader@Json@@AEAA_NAEAVToken@12@@Z+996
	DD	00H
	DD	imagerel ?readObject@Reader@Json@@AEAA_NAEAVToken@12@@Z+1032
	DD	05H
	DD	imagerel ?readObject@Reader@Json@@AEAA_NAEAVToken@12@@Z+1111
	DD	00H
	DD	imagerel ?readObject@Reader@Json@@AEAA_NAEAVToken@12@@Z+1140
	DD	0ffffffffH
xdata	ENDS
;	COMDAT xdata
xdata	SEGMENT
$stateUnwindMap$?readObject@Reader@Json@@AEAA_NAEAVToken@12@@Z DD 0ffffffffH
	DD	imagerel ?dtor$0@?0??readObject@Reader@Json@@AEAA_NAEAVToken@12@@Z@4HA
	DD	00H
	DD	imagerel ?dtor$5@?0??readObject@Reader@Json@@AEAA_NAEAVToken@12@@Z@4HA
	DD	00H
	DD	imagerel ?dtor$1@?0??readObject@Reader@Json@@AEAA_NAEAVToken@12@@Z@4HA
	DD	00H
	DD	imagerel ?dtor$2@?0??readObject@Reader@Json@@AEAA_NAEAVToken@12@@Z@4HA
	DD	00H
	DD	imagerel ?dtor$3@?0??readObject@Reader@Json@@AEAA_NAEAVToken@12@@Z@4HA
	DD	00H
	DD	imagerel ?dtor$4@?0??readObject@Reader@Json@@AEAA_NAEAVToken@12@@Z@4HA
xdata	ENDS
;	COMDAT CONST
CONST	SEGMENT
$cppxdata$?readObject@Reader@Json@@AEAA_NAEAVToken@12@@Z DD 019930522H
	DD	06H
	DD	imagerel $stateUnwindMap$?readObject@Reader@Json@@AEAA_NAEAVToken@12@@Z
	DD	00H
	DD	00H
	DD	0bH
	DD	imagerel $ip2state$?readObject@Reader@Json@@AEAA_NAEAVToken@12@@Z
	DD	040H
	DD	00H
	DD	01H
CONST	ENDS
;	COMDAT xdata
xdata	SEGMENT
$unwind$?readObject@Reader@Json@@AEAA_NAEAVToken@12@@Z DD 0b3519H
	DD	01f7427H
	DD	01e6423H
	DD	01d341fH
	DD	0180113H
	DD	0e006f008H
	DD	05004H
	DD	imagerel __GSHandlerCheck_EH
	DD	imagerel $cppxdata$?readObject@Reader@Json@@AEAA_NAEAVToken@12@@Z
	DD	0b2H
xdata	ENDS
;	COMDAT xdata
xdata	SEGMENT
$unwind$?dtor$2@?0??readArray@Reader@Json@@AEAA_NAEAVToken@12@@Z@4HA DD 020601H
	DD	050023206H
xdata	ENDS
;	COMDAT xdata
xdata	SEGMENT
$ip2state$?readArray@Reader@Json@@AEAA_NAEAVToken@12@@Z DD imagerel ?readArray@Reader@Json@@AEAA_NAEAVToken@12@@Z+70
	DD	0ffffffffH
	DD	imagerel ?readArray@Reader@Json@@AEAA_NAEAVToken@12@@Z+100
	DD	00H
	DD	imagerel ?readArray@Reader@Json@@AEAA_NAEAVToken@12@@Z+212
	DD	01H
	DD	imagerel ?readArray@Reader@Json@@AEAA_NAEAVToken@12@@Z+316
	DD	0ffffffffH
	DD	imagerel ?readArray@Reader@Json@@AEAA_NAEAVToken@12@@Z+576
	DD	02H
	DD	imagerel ?readArray@Reader@Json@@AEAA_NAEAVToken@12@@Z+663
	DD	0ffffffffH
xdata	ENDS
;	COMDAT xdata
xdata	SEGMENT
$stateUnwindMap$?readArray@Reader@Json@@AEAA_NAEAVToken@12@@Z DD 0ffffffffH
	DD	imagerel ?dtor$2@?0??readArray@Reader@Json@@AEAA_NAEAVToken@12@@Z@4HA
	DD	0ffffffffH
	DD	imagerel ?dtor$0@?0??readArray@Reader@Json@@AEAA_NAEAVToken@12@@Z@4HA
	DD	0ffffffffH
	DD	imagerel ?dtor$1@?0??readArray@Reader@Json@@AEAA_NAEAVToken@12@@Z@4HA
xdata	ENDS
;	COMDAT CONST
CONST	SEGMENT
$cppxdata$?readArray@Reader@Json@@AEAA_NAEAVToken@12@@Z DD 019930522H
	DD	03H
	DD	imagerel $stateUnwindMap$?readArray@Reader@Json@@AEAA_NAEAVToken@12@@Z
	DD	00H
	DD	00H
	DD	06H
	DD	imagerel $ip2state$?readArray@Reader@Json@@AEAA_NAEAVToken@12@@Z
	DD	048H
	DD	00H
	DD	01H
CONST	ENDS
;	COMDAT xdata
xdata	SEGMENT
$unwind$?readArray@Reader@Json@@AEAA_NAEAVToken@12@@Z DD 062a19H
	DD	014641bH
	DD	0133417H
	DD	07004f20bH
	DD	imagerel __GSHandlerCheck_EH
	DD	imagerel $cppxdata$?readArray@Reader@Json@@AEAA_NAEAVToken@12@@Z
	DD	072H
xdata	ENDS
;	COMDAT xdata
xdata	SEGMENT
$ip2state$?decodeNumber@Reader@Json@@AEAA_NAEAVToken@12@@Z DD imagerel ?decodeNumber@Reader@Json@@AEAA_NAEAVToken@12@@Z+140
	DD	0ffffffffH
	DD	imagerel ?decodeNumber@Reader@Json@@AEAA_NAEAVToken@12@@Z+366
	DD	04H
	DD	imagerel ?decodeNumber@Reader@Json@@AEAA_NAEAVToken@12@@Z+492
	DD	0ffffffffH
	DD	imagerel ?decodeNumber@Reader@Json@@AEAA_NAEAVToken@12@@Z+502
	DD	00H
	DD	imagerel ?decodeNumber@Reader@Json@@AEAA_NAEAVToken@12@@Z+528
	DD	01H
	DD	imagerel ?decodeNumber@Reader@Json@@AEAA_NAEAVToken@12@@Z+567
	DD	02H
	DD	imagerel ?decodeNumber@Reader@Json@@AEAA_NAEAVToken@12@@Z+588
	DD	03H
	DD	imagerel ?decodeNumber@Reader@Json@@AEAA_NAEAVToken@12@@Z+608
	DD	02H
	DD	imagerel ?decodeNumber@Reader@Json@@AEAA_NAEAVToken@12@@Z+771
	DD	05H
	DD	imagerel ?decodeNumber@Reader@Json@@AEAA_NAEAVToken@12@@Z+984
	DD	06H
	DD	imagerel ?decodeNumber@Reader@Json@@AEAA_NAEAVToken@12@@Z+1099
	DD	0ffffffffH
xdata	ENDS
;	COMDAT xdata
xdata	SEGMENT
$stateUnwindMap$?decodeNumber@Reader@Json@@AEAA_NAEAVToken@12@@Z DD 0ffffffffH
	DD	imagerel ?dtor$6@?0??decodeNumber@Reader@Json@@AEAA_NAEAVToken@12@@Z@4HA
	DD	0ffffffffH
	DD	imagerel ?dtor$0@?0??decodeNumber@Reader@Json@@AEAA_NAEAVToken@12@@Z@4HA
	DD	01H
	DD	imagerel ?dtor$1@?0??decodeNumber@Reader@Json@@AEAA_NAEAVToken@12@@Z@4HA
	DD	02H
	DD	imagerel ?dtor$2@?0??decodeNumber@Reader@Json@@AEAA_NAEAVToken@12@@Z@4HA
	DD	0ffffffffH
	DD	imagerel ?dtor$3@?0??decodeNumber@Reader@Json@@AEAA_NAEAVToken@12@@Z@4HA
	DD	0ffffffffH
	DD	imagerel ?dtor$4@?0??decodeNumber@Reader@Json@@AEAA_NAEAVToken@12@@Z@4HA
	DD	0ffffffffH
	DD	imagerel ?dtor$5@?0??decodeNumber@Reader@Json@@AEAA_NAEAVToken@12@@Z@4HA
xdata	ENDS
;	COMDAT CONST
CONST	SEGMENT
$cppxdata$?decodeNumber@Reader@Json@@AEAA_NAEAVToken@12@@Z DD 019930522H
	DD	07H
	DD	imagerel $stateUnwindMap$?decodeNumber@Reader@Json@@AEAA_NAEAVToken@12@@Z
	DD	00H
	DD	00H
	DD	0bH
	DD	imagerel $ip2state$?decodeNumber@Reader@Json@@AEAA_NAEAVToken@12@@Z
	DD	028H
	DD	00H
	DD	01H
CONST	ENDS
;	COMDAT xdata
xdata	SEGMENT
$unwind$?decodeNumber@Reader@Json@@AEAA_NAEAVToken@12@@Z DD 093019H
	DD	01b6422H
	DD	01a341eH
	DD	0140112H
	DD	07005e007H
	DD	05004H
	DD	imagerel __GSHandlerCheck_EH
	DD	imagerel $cppxdata$?decodeNumber@Reader@Json@@AEAA_NAEAVToken@12@@Z
	DD	092H
xdata	ENDS
;	COMDAT xdata
xdata	SEGMENT
$ip2state$?decodeDouble@Reader@Json@@AEAA_NAEAVToken@12@@Z DD imagerel ?decodeDouble@Reader@Json@@AEAA_NAEAVToken@12@@Z+155
	DD	0ffffffffH
	DD	imagerel ?decodeDouble@Reader@Json@@AEAA_NAEAVToken@12@@Z+165
	DD	00H
	DD	imagerel ?decodeDouble@Reader@Json@@AEAA_NAEAVToken@12@@Z+191
	DD	0ffffffffH
	DD	imagerel ?decodeDouble@Reader@Json@@AEAA_NAEAVToken@12@@Z+269
	DD	01H
	DD	imagerel ?decodeDouble@Reader@Json@@AEAA_NAEAVToken@12@@Z+299
	DD	02H
	DD	imagerel ?decodeDouble@Reader@Json@@AEAA_NAEAVToken@12@@Z+338
	DD	03H
	DD	imagerel ?decodeDouble@Reader@Json@@AEAA_NAEAVToken@12@@Z+359
	DD	04H
	DD	imagerel ?decodeDouble@Reader@Json@@AEAA_NAEAVToken@12@@Z+379
	DD	03H
	DD	imagerel ?decodeDouble@Reader@Json@@AEAA_NAEAVToken@12@@Z+548
	DD	05H
	DD	imagerel ?decodeDouble@Reader@Json@@AEAA_NAEAVToken@12@@Z+663
	DD	0ffffffffH
xdata	ENDS
;	COMDAT xdata
xdata	SEGMENT
$stateUnwindMap$?decodeDouble@Reader@Json@@AEAA_NAEAVToken@12@@Z DD 0ffffffffH
	DD	imagerel ?dtor$5@?0??decodeDouble@Reader@Json@@AEAA_NAEAVToken@12@@Z@4HA
	DD	0ffffffffH
	DD	imagerel ?dtor$6@?0??decodeDouble@Reader@Json@@AEAA_NAEAVToken@12@@Z@4HA
	DD	0ffffffffH
	DD	imagerel ?dtor$1@?0??decodeDouble@Reader@Json@@AEAA_NAEAVToken@12@@Z@4HA
	DD	02H
	DD	imagerel ?dtor$2@?0??decodeDouble@Reader@Json@@AEAA_NAEAVToken@12@@Z@4HA
	DD	03H
	DD	imagerel ?dtor$3@?0??decodeDouble@Reader@Json@@AEAA_NAEAVToken@12@@Z@4HA
	DD	0ffffffffH
	DD	imagerel ?dtor$4@?0??decodeDouble@Reader@Json@@AEAA_NAEAVToken@12@@Z@4HA
xdata	ENDS
;	COMDAT CONST
CONST	SEGMENT
$cppxdata$?decodeDouble@Reader@Json@@AEAA_NAEAVToken@12@@Z DD 019930522H
	DD	06H
	DD	imagerel $stateUnwindMap$?decodeDouble@Reader@Json@@AEAA_NAEAVToken@12@@Z
	DD	00H
	DD	00H
	DD	0aH
	DD	imagerel $ip2state$?decodeDouble@Reader@Json@@AEAA_NAEAVToken@12@@Z
	DD	030H
	DD	00H
	DD	01H
CONST	ENDS
;	COMDAT xdata
xdata	SEGMENT
$unwind$?decodeDouble@Reader@Json@@AEAA_NAEAVToken@12@@Z DD 093019H
	DD	01b6422H
	DD	01a341eH
	DD	0140112H
	DD	07005e007H
	DD	05004H
	DD	imagerel __GSHandlerCheck_EH
	DD	imagerel $cppxdata$?decodeDouble@Reader@Json@@AEAA_NAEAVToken@12@@Z
	DD	09aH
xdata	ENDS
;	COMDAT xdata
xdata	SEGMENT
$ip2state$?decodeString@Reader@Json@@AEAA_NAEAVToken@12@@Z DD imagerel ?decodeString@Reader@Json@@AEAA_NAEAVToken@12@@Z+72
	DD	00H
	DD	imagerel ?decodeString@Reader@Json@@AEAA_NAEAVToken@12@@Z+164
	DD	01H
	DD	imagerel ?decodeString@Reader@Json@@AEAA_NAEAVToken@12@@Z+369
	DD	00H
	DD	imagerel ?decodeString@Reader@Json@@AEAA_NAEAVToken@12@@Z+402
	DD	0ffffffffH
xdata	ENDS
;	COMDAT xdata
xdata	SEGMENT
$stateUnwindMap$?decodeString@Reader@Json@@AEAA_NAEAVToken@12@@Z DD 0ffffffffH
	DD	imagerel ?dtor$0@?0??decodeString@Reader@Json@@AEAA_NAEAVToken@12@@Z@4HA
	DD	00H
	DD	imagerel ?dtor$1@?0??decodeString@Reader@Json@@AEAA_NAEAVToken@12@@Z@4HA
xdata	ENDS
;	COMDAT CONST
CONST	SEGMENT
$cppxdata$?decodeString@Reader@Json@@AEAA_NAEAVToken@12@@Z DD 019930522H
	DD	02H
	DD	imagerel $stateUnwindMap$?decodeString@Reader@Json@@AEAA_NAEAVToken@12@@Z
	DD	00H
	DD	00H
	DD	04H
	DD	imagerel $ip2state$?decodeString@Reader@Json@@AEAA_NAEAVToken@12@@Z
	DD	050H
	DD	00H
	DD	01H
CONST	ENDS
;	COMDAT xdata
xdata	SEGMENT
$unwind$?decodeString@Reader@Json@@AEAA_NAEAVToken@12@@Z DD 082d19H
	DD	017541eH
	DD	016341aH
	DD	0e007f20eH
	DD	060047005H
	DD	imagerel __GSHandlerCheck_EH
	DD	imagerel $cppxdata$?decodeString@Reader@Json@@AEAA_NAEAVToken@12@@Z
	DD	07aH
xdata	ENDS
;	COMDAT xdata
xdata	SEGMENT
$ip2state$?decodeString@Reader@Json@@AEAA_NAEAVToken@12@AEAV?$basic_string@DU?$char_traits@D@std@@V?$allocator@D@2@@std@@@Z DD imagerel ?decodeString@Reader@Json@@AEAA_NAEAVToken@12@AEAV?$basic_string@DU?$char_traits@D@std@@V?$allocator@D@2@@std@@@Z+68
	DD	0ffffffffH
	DD	imagerel ?decodeString@Reader@Json@@AEAA_NAEAVToken@12@AEAV?$basic_string@DU?$char_traits@D@std@@V?$allocator@D@2@@std@@@Z+298
	DD	01H
	DD	imagerel ?decodeString@Reader@Json@@AEAA_NAEAVToken@12@AEAV?$basic_string@DU?$char_traits@D@std@@V?$allocator@D@2@@std@@@Z+310
	DD	0ffffffffH
	DD	imagerel ?decodeString@Reader@Json@@AEAA_NAEAVToken@12@AEAV?$basic_string@DU?$char_traits@D@std@@V?$allocator@D@2@@std@@@Z+355
	DD	02H
	DD	imagerel ?decodeString@Reader@Json@@AEAA_NAEAVToken@12@AEAV?$basic_string@DU?$char_traits@D@std@@V?$allocator@D@2@@std@@@Z+377
	DD	0ffffffffH
	DD	imagerel ?decodeString@Reader@Json@@AEAA_NAEAVToken@12@AEAV?$basic_string@DU?$char_traits@D@std@@V?$allocator@D@2@@std@@@Z+413
	DD	00H
	DD	imagerel ?decodeString@Reader@Json@@AEAA_NAEAVToken@12@AEAV?$basic_string@DU?$char_traits@D@std@@V?$allocator@D@2@@std@@@Z+435
	DD	0ffffffffH
xdata	ENDS
;	COMDAT xdata
xdata	SEGMENT
$stateUnwindMap$?decodeString@Reader@Json@@AEAA_NAEAVToken@12@AEAV?$basic_string@DU?$char_traits@D@std@@V?$allocator@D@2@@std@@@Z DD 0ffffffffH
	DD	imagerel ?dtor$0@?0??decodeString@Reader@Json@@AEAA_NAEAVToken@12@AEAV?$basic_string@DU?$char_traits@D@std@@V?$allocator@D@2@@std@@@Z@4HA
	DD	0ffffffffH
	DD	imagerel ?dtor$1@?0??decodeString@Reader@Json@@AEAA_NAEAVToken@12@AEAV?$basic_string@DU?$char_traits@D@std@@V?$allocator@D@2@@std@@@Z@4HA
	DD	0ffffffffH
	DD	imagerel ?dtor$2@?0??decodeString@Reader@Json@@AEAA_NAEAVToken@12@AEAV?$basic_string@DU?$char_traits@D@std@@V?$allocator@D@2@@std@@@Z@4HA
xdata	ENDS
;	COMDAT CONST
CONST	SEGMENT
$cppxdata$?decodeString@Reader@Json@@AEAA_NAEAVToken@12@AEAV?$basic_string@DU?$char_traits@D@std@@V?$allocator@D@2@@std@@@Z DD 019930522H
	DD	03H
	DD	imagerel $stateUnwindMap$?decodeString@Reader@Json@@AEAA_NAEAVToken@12@AEAV?$basic_string@DU?$char_traits@D@std@@V?$allocator@D@2@@std@@@Z
	DD	00H
	DD	00H
	DD	07H
	DD	imagerel $ip2state$?decodeString@Reader@Json@@AEAA_NAEAVToken@12@AEAV?$basic_string@DU?$char_traits@D@std@@V?$allocator@D@2@@std@@@Z
	DD	040H
	DD	00H
	DD	01H
CONST	ENDS
;	COMDAT xdata
xdata	SEGMENT
$unwind$?decodeString@Reader@Json@@AEAA_NAEAVToken@12@AEAV?$basic_string@DU?$char_traits@D@std@@V?$allocator@D@2@@std@@@Z DD 082c19H
	DD	017341dH
	DD	0f008d20cH
	DD	07004e006H
	DD	050026003H
	DD	imagerel __GSHandlerCheck_EH
	DD	imagerel $cppxdata$?decodeString@Reader@Json@@AEAA_NAEAVToken@12@AEAV?$basic_string@DU?$char_traits@D@std@@V?$allocator@D@2@@std@@@Z
	DD	06aH
xdata	ENDS
;	COMDAT xdata
xdata	SEGMENT
$ip2state$?decodeUnicodeCodePoint@Reader@Json@@AEAA_NAEAVToken@12@AEAPEBDPEBDAEAI@Z DD imagerel ?decodeUnicodeCodePoint@Reader@Json@@AEAA_NAEAVToken@12@AEAPEBDPEBDAEAI@Z+88
	DD	0ffffffffH
	DD	imagerel ?decodeUnicodeCodePoint@Reader@Json@@AEAA_NAEAVToken@12@AEAPEBDPEBDAEAI@Z+108
	DD	00H
	DD	imagerel ?decodeUnicodeCodePoint@Reader@Json@@AEAA_NAEAVToken@12@AEAPEBDPEBDAEAI@Z+264
	DD	0ffffffffH
	DD	imagerel ?decodeUnicodeCodePoint@Reader@Json@@AEAA_NAEAVToken@12@AEAPEBDPEBDAEAI@Z+284
	DD	02H
	DD	imagerel ?decodeUnicodeCodePoint@Reader@Json@@AEAA_NAEAVToken@12@AEAPEBDPEBDAEAI@Z+322
	DD	0ffffffffH
	DD	imagerel ?decodeUnicodeCodePoint@Reader@Json@@AEAA_NAEAVToken@12@AEAPEBDPEBDAEAI@Z+342
	DD	01H
	DD	imagerel ?decodeUnicodeCodePoint@Reader@Json@@AEAA_NAEAVToken@12@AEAPEBDPEBDAEAI@Z+431
	DD	0ffffffffH
	DD	imagerel ?decodeUnicodeCodePoint@Reader@Json@@AEAA_NAEAVToken@12@AEAPEBDPEBDAEAI@Z+451
	DD	03H
	DD	imagerel ?decodeUnicodeCodePoint@Reader@Json@@AEAA_NAEAVToken@12@AEAPEBDPEBDAEAI@Z+555
	DD	0ffffffffH
	DD	imagerel ?decodeUnicodeCodePoint@Reader@Json@@AEAA_NAEAVToken@12@AEAPEBDPEBDAEAI@Z+575
	DD	04H
	DD	imagerel ?decodeUnicodeCodePoint@Reader@Json@@AEAA_NAEAVToken@12@AEAPEBDPEBDAEAI@Z+635
	DD	0ffffffffH
	DD	imagerel ?decodeUnicodeCodePoint@Reader@Json@@AEAA_NAEAVToken@12@AEAPEBDPEBDAEAI@Z+676
	DD	05H
	DD	imagerel ?decodeUnicodeCodePoint@Reader@Json@@AEAA_NAEAVToken@12@AEAPEBDPEBDAEAI@Z+698
	DD	0ffffffffH
xdata	ENDS
;	COMDAT xdata
xdata	SEGMENT
$stateUnwindMap$?decodeUnicodeCodePoint@Reader@Json@@AEAA_NAEAVToken@12@AEAPEBDPEBDAEAI@Z DD 0ffffffffH
	DD	imagerel ?dtor$2@?0??decodeUnicodeCodePoint@Reader@Json@@AEAA_NAEAVToken@12@AEAPEBDPEBDAEAI@Z@4HA
	DD	0ffffffffH
	DD	imagerel ?dtor$3@?0??decodeUnicodeCodePoint@Reader@Json@@AEAA_NAEAVToken@12@AEAPEBDPEBDAEAI@Z@4HA
	DD	0ffffffffH
	DD	imagerel ?dtor$0@?0??decodeUnicodeCodePoint@Reader@Json@@AEAA_NAEAVToken@12@AEAPEBDPEBDAEAI@Z@4HA
	DD	0ffffffffH
	DD	imagerel ?dtor$4@?0??decodeUnicodeCodePoint@Reader@Json@@AEAA_NAEAVToken@12@AEAPEBDPEBDAEAI@Z@4HA
	DD	0ffffffffH
	DD	imagerel ?dtor$5@?0??decodeUnicodeCodePoint@Reader@Json@@AEAA_NAEAVToken@12@AEAPEBDPEBDAEAI@Z@4HA
	DD	0ffffffffH
	DD	imagerel ?dtor$1@?0??decodeUnicodeCodePoint@Reader@Json@@AEAA_NAEAVToken@12@AEAPEBDPEBDAEAI@Z@4HA
xdata	ENDS
;	COMDAT CONST
CONST	SEGMENT
$cppxdata$?decodeUnicodeCodePoint@Reader@Json@@AEAA_NAEAVToken@12@AEAPEBDPEBDAEAI@Z DD 019930522H
	DD	06H
	DD	imagerel $stateUnwindMap$?decodeUnicodeCodePoint@Reader@Json@@AEAA_NAEAVToken@12@AEAPEBDPEBDAEAI@Z
	DD	00H
	DD	00H
	DD	0dH
	DD	imagerel $ip2state$?decodeUnicodeCodePoint@Reader@Json@@AEAA_NAEAVToken@12@AEAPEBDPEBDAEAI@Z
	DD	028H
	DD	00H
	DD	01H
CONST	ENDS
;	COMDAT xdata
xdata	SEGMENT
$unwind$?decodeUnicodeCodePoint@Reader@Json@@AEAA_NAEAVToken@12@AEAPEBDPEBDAEAI@Z DD 082a19H
	DD	0f00bf212H
	DD	0c007e009H
	DD	060047005H
	DD	030025003H
	DD	imagerel __GSHandlerCheck_EH
	DD	imagerel $cppxdata$?decodeUnicodeCodePoint@Reader@Json@@AEAA_NAEAVToken@12@AEAPEBDPEBDAEAI@Z
	DD	072H
xdata	ENDS
;	COMDAT xdata
xdata	SEGMENT
$ip2state$?decodeUnicodeEscapeSequence@Reader@Json@@AEAA_NAEAVToken@12@AEAPEBDPEBDAEAI@Z DD imagerel ?decodeUnicodeEscapeSequence@Reader@Json@@AEAA_NAEAVToken@12@AEAPEBDPEBDAEAI@Z+70
	DD	0ffffffffH
	DD	imagerel ?decodeUnicodeEscapeSequence@Reader@Json@@AEAA_NAEAVToken@12@AEAPEBDPEBDAEAI@Z+90
	DD	00H
	DD	imagerel ?decodeUnicodeEscapeSequence@Reader@Json@@AEAA_NAEAVToken@12@AEAPEBDPEBDAEAI@Z+206
	DD	0ffffffffH
	DD	imagerel ?decodeUnicodeEscapeSequence@Reader@Json@@AEAA_NAEAVToken@12@AEAPEBDPEBDAEAI@Z+226
	DD	01H
	DD	imagerel ?decodeUnicodeEscapeSequence@Reader@Json@@AEAA_NAEAVToken@12@AEAPEBDPEBDAEAI@Z+255
	DD	0ffffffffH
xdata	ENDS
;	COMDAT xdata
xdata	SEGMENT
$stateUnwindMap$?decodeUnicodeEscapeSequence@Reader@Json@@AEAA_NAEAVToken@12@AEAPEBDPEBDAEAI@Z DD 0ffffffffH
	DD	imagerel ?dtor$0@?0??decodeUnicodeEscapeSequence@Reader@Json@@AEAA_NAEAVToken@12@AEAPEBDPEBDAEAI@Z@4HA
	DD	0ffffffffH
	DD	imagerel ?dtor$1@?0??decodeUnicodeEscapeSequence@Reader@Json@@AEAA_NAEAVToken@12@AEAPEBDPEBDAEAI@Z@4HA
xdata	ENDS
;	COMDAT CONST
CONST	SEGMENT
$cppxdata$?decodeUnicodeEscapeSequence@Reader@Json@@AEAA_NAEAVToken@12@AEAPEBDPEBDAEAI@Z DD 019930522H
	DD	02H
	DD	imagerel $stateUnwindMap$?decodeUnicodeEscapeSequence@Reader@Json@@AEAA_NAEAVToken@12@AEAPEBDPEBDAEAI@Z
	DD	00H
	DD	00H
	DD	05H
	DD	imagerel $ip2state$?decodeUnicodeEscapeSequence@Reader@Json@@AEAA_NAEAVToken@12@AEAPEBDPEBDAEAI@Z
	DD	020H
	DD	00H
	DD	01H
CONST	ENDS
;	COMDAT xdata
xdata	SEGMENT
$unwind$?decodeUnicodeEscapeSequence@Reader@Json@@AEAA_NAEAVToken@12@AEAPEBDPEBDAEAI@Z DD 042019H
	DD	070049208H
	DD	030026003H
	DD	imagerel __GSHandlerCheck_EH
	DD	imagerel $cppxdata$?decodeUnicodeEscapeSequence@Reader@Json@@AEAA_NAEAVToken@12@AEAPEBDPEBDAEAI@Z
	DD	04aH
xdata	ENDS
;	COMDAT xdata
xdata	SEGMENT
$ip2state$?addError@Reader@Json@@AEAA_NAEBV?$basic_string@DU?$char_traits@D@std@@V?$allocator@D@2@@std@@AEAVToken@12@PEBD@Z DD imagerel ?addError@Reader@Json@@AEAA_NAEBV?$basic_string@DU?$char_traits@D@std@@V?$allocator@D@2@@std@@AEAVToken@12@PEBD@Z+86
	DD	00H
	DD	imagerel ?addError@Reader@Json@@AEAA_NAEBV?$basic_string@DU?$char_traits@D@std@@V?$allocator@D@2@@std@@AEAVToken@12@PEBD@Z+255
	DD	0ffffffffH
xdata	ENDS
;	COMDAT xdata
xdata	SEGMENT
$stateUnwindMap$?addError@Reader@Json@@AEAA_NAEBV?$basic_string@DU?$char_traits@D@std@@V?$allocator@D@2@@std@@AEAVToken@12@PEBD@Z DD 0ffffffffH
	DD	imagerel ?dtor$0@?0??addError@Reader@Json@@AEAA_NAEBV?$basic_string@DU?$char_traits@D@std@@V?$allocator@D@2@@std@@AEAVToken@12@PEBD@Z@4HA
xdata	ENDS
;	COMDAT CONST
CONST	SEGMENT
$cppxdata$?addError@Reader@Json@@AEAA_NAEBV?$basic_string@DU?$char_traits@D@std@@V?$allocator@D@2@@std@@AEAVToken@12@PEBD@Z DD 019930522H
	DD	01H
	DD	imagerel $stateUnwindMap$?addError@Reader@Json@@AEAA_NAEBV?$basic_string@DU?$char_traits@D@std@@V?$allocator@D@2@@std@@AEAVToken@12@PEBD@Z
	DD	00H
	DD	00H
	DD	02H
	DD	imagerel $ip2state$?addError@Reader@Json@@AEAA_NAEBV?$basic_string@DU?$char_traits@D@std@@V?$allocator@D@2@@std@@AEAVToken@12@PEBD@Z
	DD	020H
	DD	00H
	DD	01H
CONST	ENDS
;	COMDAT xdata
xdata	SEGMENT
$unwind$?addError@Reader@Json@@AEAA_NAEBV?$basic_string@DU?$char_traits@D@std@@V?$allocator@D@2@@std@@AEAVToken@12@PEBD@Z DD 062419H
	DD	011010cH
	DD	060047005H
	DD	030025003H
	DD	imagerel __GSHandlerCheck_EH
	DD	imagerel $cppxdata$?addError@Reader@Json@@AEAA_NAEBV?$basic_string@DU?$char_traits@D@std@@V?$allocator@D@2@@std@@AEAVToken@12@PEBD@Z
	DD	072H
xdata	ENDS
;	COMDAT xdata
xdata	SEGMENT
$unwind$??0ErrorInfo@Reader@Json@@QEAA@XZ DD 020601H
	DD	030023206H
xdata	ENDS
;	COMDAT xdata
xdata	SEGMENT
$unwind$?recoverFromError@Reader@Json@@AEAA_NW4TokenType@12@@Z DD 060f01H
	DD	0b640fH
	DD	0a340fH
	DD	0700b720fH
xdata	ENDS
;	COMDAT xdata
xdata	SEGMENT
$unwind$?addErrorAndRecover@Reader@Json@@AEAA_NAEBV?$basic_string@DU?$char_traits@D@std@@V?$allocator@D@2@@std@@AEAVToken@12@W4TokenType@12@@Z DD 060f01H
	DD	0b640fH
	DD	0a340fH
	DD	0700b720fH
xdata	ENDS
;	COMDAT xdata
xdata	SEGMENT
$ip2state$??1Reader@Json@@QEAA@XZ DD imagerel ??1Reader@Json@@QEAA@XZ+55
	DD	00H
	DD	imagerel ??1Reader@Json@@QEAA@XZ+70
	DD	01H
	DD	imagerel ??1Reader@Json@@QEAA@XZ+149
	DD	00H
	DD	imagerel ??1Reader@Json@@QEAA@XZ+195
	DD	02H
	DD	imagerel ??1Reader@Json@@QEAA@XZ+212
	DD	0ffffffffH
xdata	ENDS
;	COMDAT xdata
xdata	SEGMENT
$stateUnwindMap$??1Reader@Json@@QEAA@XZ DD 0ffffffffH
	DD	imagerel __imp___std_terminate
	DD	00H
	DD	imagerel __imp___std_terminate
	DD	00H
	DD	imagerel __imp___std_terminate
xdata	ENDS
;	COMDAT CONST
CONST	SEGMENT
$cppxdata$??1Reader@Json@@QEAA@XZ DD 019930522H
	DD	03H
	DD	imagerel $stateUnwindMap$??1Reader@Json@@QEAA@XZ
	DD	00H
	DD	00H
	DD	05H
	DD	imagerel $ip2state$??1Reader@Json@@QEAA@XZ
	DD	020H
	DD	00H
	DD	05H
CONST	ENDS
;	COMDAT xdata
xdata	SEGMENT
$unwind$??1Reader@Json@@QEAA@XZ DD 061919H
	DD	096419H
	DD	083414H
	DD	070025206H
	DD	imagerel __CxxFrameHandler3
	DD	imagerel $cppxdata$??1Reader@Json@@QEAA@XZ
xdata	ENDS
;	COMDAT xdata
xdata	SEGMENT
$unwind$?push@?$stack@PEAVValue@Json@@V?$deque@PEAVValue@Json@@V?$allocator@PEAVValue@Json@@@std@@@std@@@std@@QEAAX$$QEAPEAVValue@Json@@@Z DD 081501H
	DD	087415H
	DD	076415H
	DD	063415H
	DD	0e0113215H
xdata	ENDS
;	COMDAT xdata
xdata	SEGMENT
$unwind$??0?$stack@PEAVValue@Json@@V?$deque@PEAVValue@Json@@V?$allocator@PEAVValue@Json@@@std@@@std@@@std@@QEAA@XZ DD 040d01H
	DD	02680dH
	DD	030025206H
xdata	ENDS
;	COMDAT xdata
xdata	SEGMENT
$ip2state$??1?$deque@PEAVValue@Json@@V?$allocator@PEAVValue@Json@@@std@@@std@@QEAA@XZ DD imagerel ??1?$deque@PEAVValue@Json@@V?$allocator@PEAVValue@Json@@@std@@@std@@QEAA@XZ+101
	DD	0ffffffffH
	DD	imagerel ??1?$deque@PEAVValue@Json@@V?$allocator@PEAVValue@Json@@@std@@@std@@QEAA@XZ+147
	DD	00H
	DD	imagerel ??1?$deque@PEAVValue@Json@@V?$allocator@PEAVValue@Json@@@std@@@std@@QEAA@XZ+164
	DD	0ffffffffH
xdata	ENDS
;	COMDAT xdata
xdata	SEGMENT
$stateUnwindMap$??1?$deque@PEAVValue@Json@@V?$allocator@PEAVValue@Json@@@std@@@std@@QEAA@XZ DD 0ffffffffH
	DD	imagerel __imp___std_terminate
xdata	ENDS
;	COMDAT CONST
CONST	SEGMENT
$cppxdata$??1?$deque@PEAVValue@Json@@V?$allocator@PEAVValue@Json@@@std@@@std@@QEAA@XZ DD 019930522H
	DD	01H
	DD	imagerel $stateUnwindMap$??1?$deque@PEAVValue@Json@@V?$allocator@PEAVValue@Json@@@std@@@std@@QEAA@XZ
	DD	00H
	DD	00H
	DD	03H
	DD	imagerel $ip2state$??1?$deque@PEAVValue@Json@@V?$allocator@PEAVValue@Json@@@std@@@std@@QEAA@XZ
	DD	020H
	DD	00H
	DD	05H
CONST	ENDS
;	COMDAT xdata
xdata	SEGMENT
$unwind$??1?$deque@PEAVValue@Json@@V?$allocator@PEAVValue@Json@@@std@@@std@@QEAA@XZ DD 061919H
	DD	096419H
	DD	083414H
	DD	070025206H
	DD	imagerel __CxxFrameHandler3
	DD	imagerel $cppxdata$??1?$deque@PEAVValue@Json@@V?$allocator@PEAVValue@Json@@@std@@@std@@QEAA@XZ
xdata	ENDS
;	COMDAT xdata
xdata	SEGMENT
$ip2state$?clear@?$deque@VErrorInfo@Reader@Json@@V?$allocator@VErrorInfo@Reader@Json@@@std@@@std@@QEAAXXZ DD imagerel ?clear@?$deque@VErrorInfo@Reader@Json@@V?$allocator@VErrorInfo@Reader@Json@@@std@@@std@@QEAAXXZ+13
	DD	0ffffffffH
xdata	ENDS
;	COMDAT CONST
CONST	SEGMENT
$cppxdata$?clear@?$deque@VErrorInfo@Reader@Json@@V?$allocator@VErrorInfo@Reader@Json@@@std@@@std@@QEAAXXZ DD 019930522H
	DD	00H
	DD	00H
	DD	00H
	DD	00H
	DD	01H
	DD	imagerel $ip2state$?clear@?$deque@VErrorInfo@Reader@Json@@V?$allocator@VErrorInfo@Reader@Json@@@std@@@std@@QEAAXXZ
	DD	020H
	DD	00H
	DD	05H
CONST	ENDS
;	COMDAT xdata
xdata	SEGMENT
$unwind$?clear@?$deque@VErrorInfo@Reader@Json@@V?$allocator@VErrorInfo@Reader@Json@@@std@@@std@@QEAAXXZ DD 010d19H
	DD	06204H
	DD	imagerel __CxxFrameHandler3
	DD	imagerel $cppxdata$?clear@?$deque@VErrorInfo@Reader@Json@@V?$allocator@VErrorInfo@Reader@Json@@@std@@@std@@QEAAXXZ
xdata	ENDS
;	COMDAT xdata
xdata	SEGMENT
$unwind$?push_back@?$deque@VErrorInfo@Reader@Json@@V?$allocator@VErrorInfo@Reader@Json@@@std@@@std@@QEAAXAEBVErrorInfo@Reader@Json@@@Z DD 060f01H
	DD	07640fH
	DD	06340fH
	DD	0700b320fH
xdata	ENDS
;	COMDAT xdata
xdata	SEGMENT
$unwind$?resize@?$deque@VErrorInfo@Reader@Json@@V?$allocator@VErrorInfo@Reader@Json@@@std@@@std@@QEAAX_K@Z DD 060f01H
	DD	07640fH
	DD	06340fH
	DD	0700b320fH
xdata	ENDS
;	COMDAT xdata
xdata	SEGMENT
$unwind$??$emplace_back@$$V@?$deque@VErrorInfo@Reader@Json@@V?$allocator@VErrorInfo@Reader@Json@@@std@@@std@@QEAAXXZ DD 040a01H
	DD	06340aH
	DD	07006320aH
xdata	ENDS
;	COMDAT xdata
xdata	SEGMENT
$ip2state$??1?$deque@VErrorInfo@Reader@Json@@V?$allocator@VErrorInfo@Reader@Json@@@std@@@std@@QEAA@XZ DD imagerel ??1?$deque@VErrorInfo@Reader@Json@@V?$allocator@VErrorInfo@Reader@Json@@@std@@@std@@QEAA@XZ+18
	DD	0ffffffffH
	DD	imagerel ??1?$deque@VErrorInfo@Reader@Json@@V?$allocator@VErrorInfo@Reader@Json@@@std@@@std@@QEAA@XZ+32
	DD	00H
xdata	ENDS
;	COMDAT xdata
xdata	SEGMENT
$stateUnwindMap$??1?$deque@VErrorInfo@Reader@Json@@V?$allocator@VErrorInfo@Reader@Json@@@std@@@std@@QEAA@XZ DD 0ffffffffH
	DD	imagerel __imp___std_terminate
xdata	ENDS
;	COMDAT CONST
CONST	SEGMENT
$cppxdata$??1?$deque@VErrorInfo@Reader@Json@@V?$allocator@VErrorInfo@Reader@Json@@@std@@@std@@QEAA@XZ DD 019930522H
	DD	01H
	DD	imagerel $stateUnwindMap$??1?$deque@VErrorInfo@Reader@Json@@V?$allocator@VErrorInfo@Reader@Json@@@std@@@std@@QEAA@XZ
	DD	00H
	DD	00H
	DD	02H
	DD	imagerel $ip2state$??1?$deque@VErrorInfo@Reader@Json@@V?$allocator@VErrorInfo@Reader@Json@@@std@@@std@@QEAA@XZ
	DD	020H
	DD	00H
	DD	05H
CONST	ENDS
;	COMDAT xdata
xdata	SEGMENT
$unwind$??1?$deque@VErrorInfo@Reader@Json@@V?$allocator@VErrorInfo@Reader@Json@@@std@@@std@@QEAA@XZ DD 020f19H
	DD	030025206H
	DD	imagerel __CxxFrameHandler3
	DD	imagerel $cppxdata$??1?$deque@VErrorInfo@Reader@Json@@V?$allocator@VErrorInfo@Reader@Json@@@std@@@std@@QEAA@XZ
xdata	ENDS
;	COMDAT xdata
xdata	SEGMENT
$unwind$??0?$deque@VErrorInfo@Reader@Json@@V?$allocator@VErrorInfo@Reader@Json@@@std@@@std@@QEAA@XZ DD 040d01H
	DD	02680dH
	DD	030025206H
xdata	ENDS
;	COMDAT xdata
xdata	SEGMENT
$ip2state$??1?$_Deque_alloc@U?$_Deque_base_types@VErrorInfo@Reader@Json@@V?$allocator@VErrorInfo@Reader@Json@@@std@@@std@@@std@@QEAA@XZ DD imagerel ??1?$_Deque_alloc@U?$_Deque_base_types@VErrorInfo@Reader@Json@@V?$allocator@VErrorInfo@Reader@Json@@@std@@@std@@@std@@QEAA@XZ+26
	DD	0ffffffffH
xdata	ENDS
;	COMDAT CONST
CONST	SEGMENT
$cppxdata$??1?$_Deque_alloc@U?$_Deque_base_types@VErrorInfo@Reader@Json@@V?$allocator@VErrorInfo@Reader@Json@@@std@@@std@@@std@@QEAA@XZ DD 019930522H
	DD	00H
	DD	00H
	DD	00H
	DD	00H
	DD	01H
	DD	imagerel $ip2state$??1?$_Deque_alloc@U?$_Deque_base_types@VErrorInfo@Reader@Json@@V?$allocator@VErrorInfo@Reader@Json@@@std@@@std@@@std@@QEAA@XZ
	DD	020H
	DD	00H
	DD	05H
CONST	ENDS
;	COMDAT xdata
xdata	SEGMENT
$unwind$??1?$_Deque_alloc@U?$_Deque_base_types@VErrorInfo@Reader@Json@@V?$allocator@VErrorInfo@Reader@Json@@@std@@@std@@@std@@QEAA@XZ DD 020f19H
	DD	030025206H
	DD	imagerel __CxxFrameHandler3
	DD	imagerel $cppxdata$??1?$_Deque_alloc@U?$_Deque_base_types@VErrorInfo@Reader@Json@@V?$allocator@VErrorInfo@Reader@Json@@@std@@@std@@@std@@QEAA@XZ
xdata	ENDS
;	COMDAT xdata
xdata	SEGMENT
$unwind$??0?$_Deque_alloc@U?$_Deque_base_types@VErrorInfo@Reader@Json@@V?$allocator@VErrorInfo@Reader@Json@@@std@@@std@@@std@@QEAA@XZ DD 040d01H
	DD	02680dH
	DD	030025206H
xdata	ENDS
;	COMDAT xdata
xdata	SEGMENT
$ip2state$??1?$_Deque_alloc@U?$_Deque_base_types@PEAVValue@Json@@V?$allocator@PEAVValue@Json@@@std@@@std@@@std@@QEAA@XZ DD imagerel ??1?$_Deque_alloc@U?$_Deque_base_types@PEAVValue@Json@@V?$allocator@PEAVValue@Json@@@std@@@std@@@std@@QEAA@XZ+26
	DD	0ffffffffH
xdata	ENDS
;	COMDAT CONST
CONST	SEGMENT
$cppxdata$??1?$_Deque_alloc@U?$_Deque_base_types@PEAVValue@Json@@V?$allocator@PEAVValue@Json@@@std@@@std@@@std@@QEAA@XZ DD 019930522H
	DD	00H
	DD	00H
	DD	00H
	DD	00H
	DD	01H
	DD	imagerel $ip2state$??1?$_Deque_alloc@U?$_Deque_base_types@PEAVValue@Json@@V?$allocator@PEAVValue@Json@@@std@@@std@@@std@@QEAA@XZ
	DD	020H
	DD	00H
	DD	05H
CONST	ENDS
;	COMDAT xdata
xdata	SEGMENT
$unwind$??1?$_Deque_alloc@U?$_Deque_base_types@PEAVValue@Json@@V?$allocator@PEAVValue@Json@@@std@@@std@@@std@@QEAA@XZ DD 020f19H
	DD	030025206H
	DD	imagerel __CxxFrameHandler3
	DD	imagerel $cppxdata$??1?$_Deque_alloc@U?$_Deque_base_types@PEAVValue@Json@@V?$allocator@PEAVValue@Json@@@std@@@std@@@std@@QEAA@XZ
xdata	ENDS
;	COMDAT xdata
xdata	SEGMENT
$unwind$?_Tidy@?$deque@PEAVValue@Json@@V?$allocator@PEAVValue@Json@@@std@@@std@@IEAAXXZ DD 060f01H
	DD	07640fH
	DD	06340fH
	DD	0700b320fH
xdata	ENDS
;	COMDAT xdata
xdata	SEGMENT
$unwind$?push_back@?$deque@PEAVValue@Json@@V?$allocator@PEAVValue@Json@@@std@@@std@@QEAAX$$QEAPEAVValue@Json@@@Z DD 081501H
	DD	087415H
	DD	076415H
	DD	063415H
	DD	0e0113215H
xdata	ENDS
;	COMDAT xdata
xdata	SEGMENT
$unwind$??0?$deque@PEAVValue@Json@@V?$allocator@PEAVValue@Json@@@std@@@std@@QEAA@XZ DD 040d01H
	DD	02680dH
	DD	030025206H
xdata	ENDS
;	COMDAT xdata
xdata	SEGMENT
$unwind$?_Tidy@?$deque@VErrorInfo@Reader@Json@@V?$allocator@VErrorInfo@Reader@Json@@@std@@@std@@IEAAXXZ DD 060f01H
	DD	07640fH
	DD	06340fH
	DD	0700b320fH
xdata	ENDS
;	COMDAT xdata
xdata	SEGMENT
$chain$6$?_Growmap@?$deque@VErrorInfo@Reader@Json@@V?$allocator@VErrorInfo@Reader@Json@@@std@@@std@@IEAAX_K@Z DD 021H
	DD	imagerel $LN281
	DD	imagerel $LN281+74
	DD	imagerel $unwind$?_Growmap@?$deque@VErrorInfo@Reader@Json@@V?$allocator@VErrorInfo@Reader@Json@@@std@@@std@@IEAAX_K@Z
xdata	ENDS
;	COMDAT xdata
xdata	SEGMENT
$chain$5$?_Growmap@?$deque@VErrorInfo@Reader@Json@@V?$allocator@VErrorInfo@Reader@Json@@@std@@@std@@IEAAX_K@Z DD 020021H
	DD	0be400H
	DD	imagerel $LN281
	DD	imagerel $LN281+74
	DD	imagerel $unwind$?_Growmap@?$deque@VErrorInfo@Reader@Json@@V?$allocator@VErrorInfo@Reader@Json@@@std@@@std@@IEAAX_K@Z
xdata	ENDS
;	COMDAT xdata
xdata	SEGMENT
$chain$4$?_Growmap@?$deque@VErrorInfo@Reader@Json@@V?$allocator@VErrorInfo@Reader@Json@@@std@@@std@@IEAAX_K@Z DD 0a1d21H
	DD	04f41dH
	DD	0be418H
	DD	0ac40fH
	DD	09740aH
	DD	083405H
	DD	imagerel $LN281
	DD	imagerel $LN281+74
	DD	imagerel $unwind$?_Growmap@?$deque@VErrorInfo@Reader@Json@@V?$allocator@VErrorInfo@Reader@Json@@@std@@@std@@IEAAX_K@Z
xdata	ENDS
;	COMDAT xdata
xdata	SEGMENT
$unwind$?_Growmap@?$deque@VErrorInfo@Reader@Json@@V?$allocator@VErrorInfo@Reader@Json@@@std@@@std@@IEAAX_K@Z DD 030701H
	DD	060034207H
	DD	05002H
xdata	ENDS
;	COMDAT xdata
xdata	SEGMENT
$unwind$?pop_back@?$deque@VErrorInfo@Reader@Json@@V?$allocator@VErrorInfo@Reader@Json@@@std@@@std@@QEAAXXZ DD 020601H
	DD	030023206H
xdata	ENDS
;	COMDAT xdata
xdata	SEGMENT
$unwind$?allocate@?$allocator@PEAVErrorInfo@Reader@Json@@@std@@QEAAPEAPEAVErrorInfo@Reader@Json@@_K@Z DD 010401H
	DD	04204H
xdata	ENDS
;	COMDAT xdata
xdata	SEGMENT
$unwind$?_Free_proxy@?$_Deque_alloc@U?$_Deque_base_types@VErrorInfo@Reader@Json@@V?$allocator@VErrorInfo@Reader@Json@@@std@@@std@@@std@@QEAAXXZ DD 020601H
	DD	030023206H
xdata	ENDS
;	COMDAT xdata
xdata	SEGMENT
$unwind$?_Alloc_proxy@?$_Deque_alloc@U?$_Deque_base_types@VErrorInfo@Reader@Json@@V?$allocator@VErrorInfo@Reader@Json@@@std@@@std@@@std@@QEAAXXZ DD 040e01H
	DD	02680eH
	DD	030025206H
xdata	ENDS
;	COMDAT xdata
xdata	SEGMENT
$unwind$?_Free_proxy@?$_Deque_alloc@U?$_Deque_base_types@PEAVValue@Json@@V?$allocator@PEAVValue@Json@@@std@@@std@@@std@@QEAAXXZ DD 020601H
	DD	030023206H
xdata	ENDS
;	COMDAT xdata
xdata	SEGMENT
$unwind$??0?$_Deque_alloc@U?$_Deque_base_types@PEAVValue@Json@@V?$allocator@PEAVValue@Json@@@std@@@std@@@std@@QEAA@XZ DD 040d01H
	DD	02680dH
	DD	030025206H
xdata	ENDS
;	COMDAT xdata
xdata	SEGMENT
$chain$6$?_Growmap@?$deque@PEAVValue@Json@@V?$allocator@PEAVValue@Json@@@std@@@std@@IEAAX_K@Z DD 021H
	DD	imagerel $LN281
	DD	imagerel $LN281+74
	DD	imagerel $unwind$?_Growmap@?$deque@PEAVValue@Json@@V?$allocator@PEAVValue@Json@@@std@@@std@@IEAAX_K@Z
xdata	ENDS
;	COMDAT xdata
xdata	SEGMENT
$chain$5$?_Growmap@?$deque@PEAVValue@Json@@V?$allocator@PEAVValue@Json@@@std@@@std@@IEAAX_K@Z DD 020021H
	DD	0be400H
	DD	imagerel $LN281
	DD	imagerel $LN281+74
	DD	imagerel $unwind$?_Growmap@?$deque@PEAVValue@Json@@V?$allocator@PEAVValue@Json@@@std@@@std@@IEAAX_K@Z
xdata	ENDS
;	COMDAT xdata
xdata	SEGMENT
$chain$4$?_Growmap@?$deque@PEAVValue@Json@@V?$allocator@PEAVValue@Json@@@std@@@std@@IEAAX_K@Z DD 0a2021H
	DD	04f420H
	DD	0be418H
	DD	0ac40fH
	DD	09740aH
	DD	083405H
	DD	imagerel $LN281
	DD	imagerel $LN281+74
	DD	imagerel $unwind$?_Growmap@?$deque@PEAVValue@Json@@V?$allocator@PEAVValue@Json@@@std@@@std@@IEAAX_K@Z
xdata	ENDS
;	COMDAT xdata
xdata	SEGMENT
$unwind$?_Growmap@?$deque@PEAVValue@Json@@V?$allocator@PEAVValue@Json@@@std@@@std@@IEAAX_K@Z DD 030701H
	DD	060034207H
	DD	05002H
xdata	ENDS
;	COMDAT xdata
xdata	SEGMENT
$unwind$?allocate@?$allocator@PEAVValue@Json@@@std@@QEAAPEAPEAVValue@Json@@_K@Z DD 010401H
	DD	04204H
xdata	ENDS
;	COMDAT xdata
xdata	SEGMENT
$unwind$?_Xlen@?$deque@VErrorInfo@Reader@Json@@V?$allocator@VErrorInfo@Reader@Json@@@std@@@std@@IEBAXXZ DD 010401H
	DD	04204H
xdata	ENDS
;	COMDAT xdata
xdata	SEGMENT
$unwind$?allocate@?$allocator@PEAPEAVValue@Json@@@std@@QEAAPEAPEAPEAVValue@Json@@_K@Z DD 010401H
	DD	04204H
xdata	ENDS
;	COMDAT xdata
xdata	SEGMENT
$unwind$?_Alloc_proxy@?$_Deque_alloc@U?$_Deque_base_types@PEAVValue@Json@@V?$allocator@PEAVValue@Json@@@std@@@std@@@std@@QEAAXXZ DD 040e01H
	DD	02680eH
	DD	030025206H
xdata	ENDS
;	COMDAT xdata
xdata	SEGMENT
$unwind$?_Xlen@?$deque@PEAVValue@Json@@V?$allocator@PEAVValue@Json@@@std@@@std@@IEBAXXZ DD 010401H
	DD	04204H
xdata	ENDS
;	COMDAT xdata
xdata	SEGMENT
$unwind$??$construct@VErrorInfo@Reader@Json@@AEBV123@@?$_Default_allocator_traits@V?$allocator@VErrorInfo@Reader@Json@@@std@@@std@@SAXAEAV?$allocator@VErrorInfo@Reader@Json@@@1@QEAVErrorInfo@Reader@Json@@AEBV345@@Z DD 040a01H
	DD	06340aH
	DD	07006320aH
xdata	ENDS
;	COMDAT xdata
xdata	SEGMENT
$unwind$??$construct@VErrorInfo@Reader@Json@@$$V@?$_Default_allocator_traits@V?$allocator@VErrorInfo@Reader@Json@@@std@@@std@@SAXAEAV?$allocator@VErrorInfo@Reader@Json@@@1@QEAVErrorInfo@Reader@Json@@@Z DD 010401H
	DD	04204H
xdata	ENDS
;	COMDAT xdata
xdata	SEGMENT
$unwind$??$construct@PEAVValue@Json@@PEAV12@@?$_Default_allocator_traits@V?$allocator@PEAVValue@Json@@@std@@@std@@SAXAEAV?$allocator@PEAVValue@Json@@@1@QEAPEAVValue@Json@@$$QEAPEAV34@@Z DD 020601H
	DD	030023206H
xdata	ENDS
;	COMDAT xdata
xdata	SEGMENT
$unwind$??$_Uninitialized_copy@PEAPEAVErrorInfo@Reader@Json@@PEAPEAV123@V?$allocator@PEAVErrorInfo@Reader@Json@@@std@@@std@@YAPEAPEAVErrorInfo@Reader@Json@@QEAPEAV123@0PEAPEAV123@AEAV?$allocator@PEAVErrorInfo@Reader@Json@@@0@@Z DD 040a01H
	DD	06340aH
	DD	07006320aH
xdata	ENDS
;	COMDAT xdata
xdata	SEGMENT
$unwind$??$_Uninitialized_value_construct_n@PEAPEAVErrorInfo@Reader@Json@@_KV?$allocator@PEAVErrorInfo@Reader@Json@@@std@@@std@@YAPEAPEAVErrorInfo@Reader@Json@@PEAPEAV123@_KAEAV?$allocator@PEAVErrorInfo@Reader@Json@@@0@@Z DD 040a01H
	DD	06340aH
	DD	07006320aH
xdata	ENDS
;	COMDAT xdata
xdata	SEGMENT
$unwind$??$construct@U_Container_proxy@std@@U12@@?$_Default_allocator_traits@V?$allocator@U_Container_proxy@std@@@std@@@std@@SAXAEAV?$allocator@U_Container_proxy@std@@@1@QEAU_Container_proxy@1@$$QEAU31@@Z DD 020601H
	DD	030023206H
xdata	ENDS
;	COMDAT xdata
xdata	SEGMENT
$unwind$??$_Uninitialized_copy@PEAPEAPEAVValue@Json@@PEAPEAPEAV12@V?$allocator@PEAPEAVValue@Json@@@std@@@std@@YAPEAPEAPEAVValue@Json@@QEAPEAPEAV12@0PEAPEAPEAV12@AEAV?$allocator@PEAPEAVValue@Json@@@0@@Z DD 040a01H
	DD	06340aH
	DD	07006320aH
xdata	ENDS
;	COMDAT xdata
xdata	SEGMENT
$unwind$??$_Uninitialized_value_construct_n@PEAPEAPEAVValue@Json@@_KV?$allocator@PEAPEAVValue@Json@@@std@@@std@@YAPEAPEAPEAVValue@Json@@PEAPEAPEAV12@_KAEAV?$allocator@PEAPEAVValue@Json@@@0@@Z DD 040a01H
	DD	06340aH
	DD	07006320aH
xdata	ENDS
;	COMDAT xdata
xdata	SEGMENT
$unwind$??0ErrorInfo@Reader@Json@@QEAA@AEBV012@@Z DD 040a01H
	DD	06340aH
	DD	07006320aH
xdata	ENDS
;	COMDAT xdata
xdata	SEGMENT
$unwind$??_GErrorInfo@Reader@Json@@QEAAPEAXI@Z DD 040a01H
	DD	06340aH
	DD	07006320aH
xdata	ENDS
;	COMDAT xdata
xdata	SEGMENT
$unwind$??$_Uninitialized_copy_al_unchecked@PEAVErrorInfo@Reader@Json@@PEAV123@V?$allocator@PEAVErrorInfo@Reader@Json@@@std@@@std@@YAPEAPEAVErrorInfo@Reader@Json@@QEAPEAV123@00AEAV?$allocator@PEAVErrorInfo@Reader@Json@@@0@U_Really_trivial_ptr_iterator_tag@0@U?$integral_constant@_N$00@0@@Z DD 040a01H
	DD	06340aH
	DD	07006320aH
xdata	ENDS
;	COMDAT xdata
xdata	SEGMENT
$unwind$??$_Uninitialized_value_construct_n1@PEAPEAVErrorInfo@Reader@Json@@_KV?$allocator@PEAVErrorInfo@Reader@Json@@@std@@@std@@YAPEAPEAVErrorInfo@Reader@Json@@PEAPEAV123@_KAEAV?$allocator@PEAVErrorInfo@Reader@Json@@@0@U?$integral_constant@_N$00@0@@Z DD 040a01H
	DD	06340aH
	DD	07006320aH
xdata	ENDS
;	COMDAT xdata
xdata	SEGMENT
$unwind$??$_Uninitialized_copy_al_unchecked@PEAPEAVValue@Json@@PEAPEAV12@V?$allocator@PEAPEAVValue@Json@@@std@@@std@@YAPEAPEAPEAVValue@Json@@QEAPEAPEAV12@00AEAV?$allocator@PEAPEAVValue@Json@@@0@U_Really_trivial_ptr_iterator_tag@0@U?$integral_constant@_N$00@0@@Z DD 040a01H
	DD	06340aH
	DD	07006320aH
xdata	ENDS
;	COMDAT xdata
xdata	SEGMENT
$unwind$??$_Uninitialized_value_construct_n1@PEAPEAPEAVValue@Json@@_KV?$allocator@PEAPEAVValue@Json@@@std@@@std@@YAPEAPEAPEAVValue@Json@@PEAPEAPEAV12@_KAEAV?$allocator@PEAPEAVValue@Json@@@0@U?$integral_constant@_N$00@0@@Z DD 040a01H
	DD	06340aH
	DD	07006320aH
xdata	ENDS
;	COMDAT xdata
xdata	SEGMENT
$unwind$??$_Copy_memmove@PEAPEAVErrorInfo@Reader@Json@@PEAPEAV123@@std@@YAPEAPEAVErrorInfo@Reader@Json@@PEAPEAV123@00@Z DD 040a01H
	DD	06340aH
	DD	07006320aH
xdata	ENDS
;	COMDAT xdata
xdata	SEGMENT
$unwind$??$_Zero_range@PEAPEAVErrorInfo@Reader@Json@@@std@@YAPEAPEAVErrorInfo@Reader@Json@@QEAPEAV123@0@Z DD 020601H
	DD	030023206H
xdata	ENDS
;	COMDAT xdata
xdata	SEGMENT
$unwind$??$_Copy_memmove@PEAPEAPEAVValue@Json@@PEAPEAPEAV12@@std@@YAPEAPEAPEAVValue@Json@@PEAPEAPEAV12@00@Z DD 040a01H
	DD	06340aH
	DD	07006320aH
xdata	ENDS
;	COMDAT xdata
xdata	SEGMENT
$unwind$??$_Zero_range@PEAPEAPEAVValue@Json@@@std@@YAPEAPEAPEAVValue@Json@@QEAPEAPEAV12@0@Z DD 020601H
	DD	030023206H
; Function compile flags: /Ogtpy
; File c:\program files (x86)\windows kits\10\include\10.0.10240.0\ucrt\corecrt_stdio_config.h
;	COMDAT __local_stdio_scanf_options
_TEXT	SEGMENT
__local_stdio_scanf_options PROC			; COMDAT

; 83   :     static unsigned __int64 _OptionsStorage;
; 84   :     return &_OptionsStorage;

	lea	rax, OFFSET FLAT:?_OptionsStorage@?1??__local_stdio_scanf_options@@9@4_KA ; `__local_stdio_scanf_options'::`2'::_OptionsStorage

; 85   : }

	ret	0
__local_stdio_scanf_options ENDP
_TEXT	ENDS
; Function compile flags: /Ogtpy
; File c:\program files (x86)\windows kits\10\include\10.0.10240.0\ucrt\stdio.h
;	COMDAT _vsnprintf_l
_TEXT	SEGMENT
_Buffer$ = 64
_BufferCount$ = 72
_Format$ = 80
_Locale$ = 88
_ArgList$ = 96
_vsnprintf_l PROC					; COMDAT

; 1385 : {

$LN4:
	mov	QWORD PTR [rsp+8], rbx
	mov	QWORD PTR [rsp+16], rbp
	mov	QWORD PTR [rsp+24], rsi
	push	rdi
	sub	rsp, 48					; 00000030H
	mov	rbx, r9
	mov	rdi, r8
	mov	rsi, rdx
	mov	rbp, rcx

; 1386 :     int const _Result = __stdio_common_vsprintf(

	call	__local_stdio_printf_options
	mov	r9, rdi
	mov	r8, rsi
	mov	rdx, rbp
	mov	rcx, QWORD PTR [rax]
	mov	rax, QWORD PTR _ArgList$[rsp]
	or	rcx, 1
	mov	QWORD PTR [rsp+40], rax
	mov	QWORD PTR [rsp+32], rbx
	call	QWORD PTR __imp___stdio_common_vsprintf

; 1387 :         _CRT_INTERNAL_LOCAL_PRINTF_OPTIONS | _CRT_INTERNAL_PRINTF_LEGACY_VSPRINTF_NULL_TERMINATION,
; 1388 :         _Buffer, _BufferCount, _Format, _Locale, _ArgList);
; 1389 : 
; 1390 :     return _Result < 0 ? -1 : _Result;
; 1391 : }

	mov	rbx, QWORD PTR [rsp+64]
	mov	ecx, -1
	mov	rbp, QWORD PTR [rsp+72]
	test	eax, eax
	mov	rsi, QWORD PTR [rsp+80]
	cmovs	eax, ecx
	add	rsp, 48					; 00000030H
	pop	rdi
	ret	0
_vsnprintf_l ENDP
_TEXT	ENDS
; Function compile flags: /Ogtpy
; File c:\program files (x86)\windows kits\10\include\10.0.10240.0\ucrt\stdio.h
;	COMDAT _vsprintf_l
_TEXT	SEGMENT
_Buffer$ = 64
_Format$ = 72
_Locale$ = 80
_ArgList$ = 88
_vsprintf_l PROC					; COMDAT

; 1455 : {

$LN6:
	mov	QWORD PTR [rsp+8], rbx
	mov	QWORD PTR [rsp+16], rbp
	mov	QWORD PTR [rsp+24], rsi
	push	rdi
	sub	rsp, 48					; 00000030H
	mov	rbx, r9
	mov	rdi, r8
	mov	rsi, rdx
	mov	rbp, rcx

; 1386 :     int const _Result = __stdio_common_vsprintf(

	call	__local_stdio_printf_options
	mov	QWORD PTR [rsp+40], rbx
	mov	r9, rsi
	mov	rbx, -1
	mov	QWORD PTR [rsp+32], rdi
	mov	r8, rbx
	mov	rdx, rbp
	mov	rcx, QWORD PTR [rax]
	or	rcx, 1
	call	QWORD PTR __imp___stdio_common_vsprintf

; 1456 :     #pragma warning(push)
; 1457 :     #pragma warning(disable: 4996) // Deprecation
; 1458 :     return _vsnprintf_l(_Buffer, (size_t)-1, _Format, _Locale, _ArgList);
; 1459 :     #pragma warning(pop)
; 1460 : }

	mov	rbp, QWORD PTR [rsp+72]

; 1390 :     return _Result < 0 ? -1 : _Result;

	test	eax, eax

; 1456 :     #pragma warning(push)
; 1457 :     #pragma warning(disable: 4996) // Deprecation
; 1458 :     return _vsnprintf_l(_Buffer, (size_t)-1, _Format, _Locale, _ArgList);
; 1459 :     #pragma warning(pop)
; 1460 : }

	mov	rsi, QWORD PTR [rsp+80]

; 1390 :     return _Result < 0 ? -1 : _Result;

	cmovs	eax, ebx

; 1456 :     #pragma warning(push)
; 1457 :     #pragma warning(disable: 4996) // Deprecation
; 1458 :     return _vsnprintf_l(_Buffer, (size_t)-1, _Format, _Locale, _ArgList);
; 1459 :     #pragma warning(pop)
; 1460 : }

	mov	rbx, QWORD PTR [rsp+64]
	add	rsp, 48					; 00000030H
	pop	rdi
	ret	0
_vsprintf_l ENDP
_TEXT	ENDS
; Function compile flags: /Ogtpy
; File c:\program files (x86)\windows kits\10\include\10.0.10240.0\ucrt\stdio.h
;	COMDAT sprintf
_TEXT	SEGMENT
_Buffer$ = 80
_Format$ = 88
sprintf	PROC						; COMDAT

; 1776 : {

$LN8:
	mov	QWORD PTR [rsp+16], rdx
	mov	QWORD PTR [rsp+24], r8
	mov	QWORD PTR [rsp+32], r9
	push	rbx
	push	rsi
	push	rdi
	sub	rsp, 48					; 00000030H
	mov	rbx, rdx

; 1777 :     int _Result;
; 1778 :     va_list _ArgList;
; 1779 :     __crt_va_start(_ArgList, _Format);

	lea	rsi, QWORD PTR _Format$[rsp+8]
	mov	rdi, rcx

; 1386 :     int const _Result = __stdio_common_vsprintf(

	call	__local_stdio_printf_options
	mov	r9, rbx
	mov	QWORD PTR [rsp+40], rsi
	mov	rbx, -1
	mov	QWORD PTR [rsp+32], 0
	mov	r8, rbx
	mov	rdx, rdi
	mov	rcx, QWORD PTR [rax]
	or	rcx, 1
	call	QWORD PTR __imp___stdio_common_vsprintf

; 1387 :         _CRT_INTERNAL_LOCAL_PRINTF_OPTIONS | _CRT_INTERNAL_PRINTF_LEGACY_VSPRINTF_NULL_TERMINATION,
; 1388 :         _Buffer, _BufferCount, _Format, _Locale, _ArgList);
; 1389 : 
; 1390 :     return _Result < 0 ? -1 : _Result;

	test	eax, eax
	cmovs	eax, ebx

; 1780 : 
; 1781 :     #pragma warning(push)
; 1782 :     #pragma warning(disable: 4996) // Deprecation
; 1783 :     _Result = _vsprintf_l(_Buffer, _Format, NULL, _ArgList);
; 1784 :     #pragma warning(pop)
; 1785 : 
; 1786 :     __crt_va_end(_ArgList);
; 1787 :     return _Result;
; 1788 : }

	add	rsp, 48					; 00000030H
	pop	rdi
	pop	rsi
	pop	rbx
	ret	0
sprintf	ENDP
_TEXT	ENDS
; Function compile flags: /Ogtpy
; File c:\program files (x86)\windows kits\10\include\10.0.10240.0\ucrt\stdio.h
;	COMDAT _vsscanf_l
_TEXT	SEGMENT
_Buffer$ = 64
_Format$ = 72
_Locale$dead$ = 80
_ArgList$ = 88
_vsscanf_l PROC						; COMDAT

; 2166 : {

$LN4:
	mov	QWORD PTR [rsp+8], rbx
	mov	QWORD PTR [rsp+16], rsi
	push	rdi
	sub	rsp, 48					; 00000030H
	mov	rbx, r9
	mov	rdi, rdx
	mov	rsi, rcx

; 2167 :     return __stdio_common_vsscanf(

	call	__local_stdio_scanf_options
	mov	QWORD PTR [rsp+40], rbx
	mov	r9, rdi
	mov	r8, -1
	mov	QWORD PTR [rsp+32], 0
	mov	rdx, rsi
	mov	rcx, QWORD PTR [rax]
	call	QWORD PTR __imp___stdio_common_vsscanf

; 2168 :         _CRT_INTERNAL_LOCAL_SCANF_OPTIONS,
; 2169 :         _Buffer, (size_t)-1, _Format, _Locale, _ArgList);
; 2170 : }

	mov	rbx, QWORD PTR [rsp+64]
	mov	rsi, QWORD PTR [rsp+72]
	add	rsp, 48					; 00000030H
	pop	rdi
	ret	0
_vsscanf_l ENDP
_TEXT	ENDS
; Function compile flags: /Ogtpy
; File c:\program files (x86)\windows kits\10\include\10.0.10240.0\ucrt\stdio.h
;	COMDAT sscanf
_TEXT	SEGMENT
_Buffer$ = 80
_Format$ = 88
sscanf	PROC						; COMDAT

; 2261 : {

$LN6:
	mov	QWORD PTR [rsp+16], rdx
	mov	QWORD PTR [rsp+24], r8
	mov	QWORD PTR [rsp+32], r9
	push	rbx
	push	rsi
	push	rdi
	sub	rsp, 48					; 00000030H
	mov	rbx, rdx

; 2262 :     int _Result;
; 2263 :     va_list _ArgList;
; 2264 :     __crt_va_start(_ArgList, _Format);

	lea	rsi, QWORD PTR _Format$[rsp+8]
	mov	rdi, rcx

; 2167 :     return __stdio_common_vsscanf(

	call	__local_stdio_scanf_options
	mov	QWORD PTR [rsp+40], rsi
	mov	r9, rbx
	mov	r8, -1
	mov	QWORD PTR [rsp+32], 0
	mov	rdx, rdi
	mov	rcx, QWORD PTR [rax]
	call	QWORD PTR __imp___stdio_common_vsscanf

; 2265 :     _Result = _vsscanf_l(_Buffer, _Format, NULL, _ArgList);
; 2266 :     __crt_va_end(_ArgList);
; 2267 :     return _Result;
; 2268 : }

	add	rsp, 48					; 00000030H
	pop	rdi
	pop	rsi
	pop	rbx
	ret	0
sscanf	ENDP
_TEXT	ENDS
; Function compile flags: /Ogtpy
; File c:\program files (x86)\microsoft visual studio\2017\enterprise\vc\tools\msvc\14.16.27023\include\xutility
;	COMDAT ??0_Container_proxy@std@@QEAA@XZ
_TEXT	SEGMENT
this$ = 8
??0_Container_proxy@std@@QEAA@XZ PROC			; std::_Container_proxy::_Container_proxy, COMDAT

; 68   : 		: _Mycont(nullptr), _Myfirstiter(nullptr)

	xor	eax, eax
	mov	QWORD PTR [rcx], rax
	mov	QWORD PTR [rcx+8], rax

; 70   : 		}

	mov	rax, rcx
	ret	0
??0_Container_proxy@std@@QEAA@XZ ENDP			; std::_Container_proxy::_Container_proxy
_TEXT	ENDS
; Function compile flags: /Ogtpy
; File c:\program files (x86)\microsoft visual studio\2017\enterprise\vc\tools\msvc\14.16.27023\include\xutility
;	COMDAT ??0_Container_base12@std@@QEAA@XZ
_TEXT	SEGMENT
this$ = 8
??0_Container_base12@std@@QEAA@XZ PROC			; std::_Container_base12::_Container_base12, COMDAT

; 80   : 		: _Myproxy(nullptr)

	mov	QWORD PTR [rcx], 0

; 82   : 		}

	mov	rax, rcx
	ret	0
??0_Container_base12@std@@QEAA@XZ ENDP			; std::_Container_base12::_Container_base12
_TEXT	ENDS
; Function compile flags: /Ogtpy
; File c:\program files (x86)\microsoft visual studio\2017\enterprise\vc\tools\msvc\14.16.27023\include\xutility
;	COMDAT ??0_Iterator_base12@std@@QEAA@XZ
_TEXT	SEGMENT
this$ = 8
??0_Iterator_base12@std@@QEAA@XZ PROC			; std::_Iterator_base12::_Iterator_base12, COMDAT

; 108  : 		: _Myproxy(nullptr), _Mynextiter(nullptr)

	xor	eax, eax
	mov	QWORD PTR [rcx], rax
	mov	QWORD PTR [rcx+8], rax

; 110  : 		}

	mov	rax, rcx
	ret	0
??0_Iterator_base12@std@@QEAA@XZ ENDP			; std::_Iterator_base12::_Iterator_base12
_TEXT	ENDS
; Function compile flags: /Ogtpy
; File c:\program files (x86)\microsoft visual studio\2017\enterprise\vc\tools\msvc\14.16.27023\include\xutility
;	COMDAT ??0_Iterator_base12@std@@QEAA@AEBU01@@Z
_TEXT	SEGMENT
this$ = 8
_Right$ = 16
??0_Iterator_base12@std@@QEAA@AEBU01@@Z PROC		; std::_Iterator_base12::_Iterator_base12, COMDAT

; 113  : 		: _Myproxy(nullptr), _Mynextiter(nullptr)

	xor	eax, eax
	mov	QWORD PTR [rcx], rax
	mov	QWORD PTR [rcx+8], rax

; 120  : 		if (_Myproxy != _Right._Myproxy)

	mov	rax, QWORD PTR [rdx]
	test	rax, rax
	je	SHORT $LN13@Iterator_b

; 121  : 			{
; 122  : 			if (_Right._Myproxy == nullptr)
; 123  : 				{	// becoming invalid, disown current parent
; 124  :  #if _ITERATOR_DEBUG_LEVEL == 2
; 125  : 				_Lockit _Lock(_LOCK_DEBUG);
; 126  : 				_Orphan_me();
; 127  :  #endif /* _ITERATOR_DEBUG_LEVEL == 2 */
; 128  : 				}
; 129  : 			else
; 130  : 				{
; 131  : 				_Adopt(_Right._Myproxy->_Mycont);

	mov	rax, QWORD PTR [rax]

; 148  : 		if (_Parent == nullptr)

	test	rax, rax
	je	SHORT $LN13@Iterator_b

; 149  : 			{	// no future parent, just disown current parent
; 150  :  #if _ITERATOR_DEBUG_LEVEL == 2
; 151  : 			_Lockit _Lock(_LOCK_DEBUG);
; 152  : 			_Orphan_me();
; 153  :  #endif /* _ITERATOR_DEBUG_LEVEL == 2 */
; 154  : 			}
; 155  : 		else
; 156  : 			{	// have a parent, do adoption
; 157  : 			_Container_proxy *_Parent_proxy = _Parent->_Myproxy;
; 158  : 
; 159  :  #if _ITERATOR_DEBUG_LEVEL == 2
; 160  : 			if (_Myproxy != _Parent_proxy)
; 161  : 				{	// change parentage
; 162  : 				_Lockit _Lock(_LOCK_DEBUG);
; 163  : 				_Orphan_me();
; 164  : 				_Mynextiter = _Parent_proxy->_Myfirstiter;
; 165  : 				_Parent_proxy->_Myfirstiter = this;
; 166  : 				_Myproxy = _Parent_proxy;
; 167  : 				}
; 168  : 
; 169  :  #else /* _ITERATOR_DEBUG_LEVEL == 2 */
; 170  : 			_Myproxy = _Parent_proxy;

	mov	rax, QWORD PTR [rax]
	mov	QWORD PTR [rcx], rax
$LN13@Iterator_b:

; 115  : 		*this = _Right;
; 116  : 		}

	mov	rax, rcx
	ret	0
??0_Iterator_base12@std@@QEAA@AEBU01@@Z ENDP		; std::_Iterator_base12::_Iterator_base12
_TEXT	ENDS
; Function compile flags: /Ogtpy
; File c:\program files (x86)\microsoft visual studio\2017\enterprise\vc\tools\msvc\14.16.27023\include\xutility
;	COMDAT ??4_Iterator_base12@std@@QEAAAEAU01@AEBU01@@Z
_TEXT	SEGMENT
this$ = 8
_Right$ = 16
??4_Iterator_base12@std@@QEAAAEAU01@AEBU01@@Z PROC	; std::_Iterator_base12::operator=, COMDAT

; 120  : 		if (_Myproxy != _Right._Myproxy)

	mov	rax, QWORD PTR [rdx]
	cmp	QWORD PTR [rcx], rax
	je	SHORT $LN10@operator

; 121  : 			{
; 122  : 			if (_Right._Myproxy == nullptr)

	test	rax, rax
	je	SHORT $LN10@operator

; 123  : 				{	// becoming invalid, disown current parent
; 124  :  #if _ITERATOR_DEBUG_LEVEL == 2
; 125  : 				_Lockit _Lock(_LOCK_DEBUG);
; 126  : 				_Orphan_me();
; 127  :  #endif /* _ITERATOR_DEBUG_LEVEL == 2 */
; 128  : 				}
; 129  : 			else
; 130  : 				{
; 131  : 				_Adopt(_Right._Myproxy->_Mycont);

	mov	rax, QWORD PTR [rax]

; 148  : 		if (_Parent == nullptr)

	test	rax, rax
	je	SHORT $LN10@operator

; 149  : 			{	// no future parent, just disown current parent
; 150  :  #if _ITERATOR_DEBUG_LEVEL == 2
; 151  : 			_Lockit _Lock(_LOCK_DEBUG);
; 152  : 			_Orphan_me();
; 153  :  #endif /* _ITERATOR_DEBUG_LEVEL == 2 */
; 154  : 			}
; 155  : 		else
; 156  : 			{	// have a parent, do adoption
; 157  : 			_Container_proxy *_Parent_proxy = _Parent->_Myproxy;
; 158  : 
; 159  :  #if _ITERATOR_DEBUG_LEVEL == 2
; 160  : 			if (_Myproxy != _Parent_proxy)
; 161  : 				{	// change parentage
; 162  : 				_Lockit _Lock(_LOCK_DEBUG);
; 163  : 				_Orphan_me();
; 164  : 				_Mynextiter = _Parent_proxy->_Myfirstiter;
; 165  : 				_Parent_proxy->_Myfirstiter = this;
; 166  : 				_Myproxy = _Parent_proxy;
; 167  : 				}
; 168  : 
; 169  :  #else /* _ITERATOR_DEBUG_LEVEL == 2 */
; 170  : 			_Myproxy = _Parent_proxy;

	mov	rax, QWORD PTR [rax]
	mov	QWORD PTR [rcx], rax
$LN10@operator:

; 132  : 				}
; 133  : 			}
; 134  : 
; 135  : 		return (*this);
; 136  : 		}

	mov	rax, rcx
	ret	0
??4_Iterator_base12@std@@QEAAAEAU01@AEBU01@@Z ENDP	; std::_Iterator_base12::operator=
_TEXT	ENDS
; Function compile flags: /Ogtpy
; File c:\program files (x86)\microsoft visual studio\2017\enterprise\vc\tools\msvc\14.16.27023\include\xutility
;	COMDAT ??1_Iterator_base12@std@@QEAA@XZ
_TEXT	SEGMENT
this$dead$ = 8
??1_Iterator_base12@std@@QEAA@XZ PROC			; std::_Iterator_base12::~_Iterator_base12, COMDAT

; 140  :  #if _ITERATOR_DEBUG_LEVEL == 2
; 141  : 		_Lockit _Lock(_LOCK_DEBUG);
; 142  : 		_Orphan_me();
; 143  :  #endif /* _ITERATOR_DEBUG_LEVEL == 2 */
; 144  : 		}

	ret	0
??1_Iterator_base12@std@@QEAA@XZ ENDP			; std::_Iterator_base12::~_Iterator_base12
_TEXT	ENDS
; Function compile flags: /Ogtpy
; File c:\program files (x86)\microsoft visual studio\2017\enterprise\vc\tools\msvc\14.16.27023\include\xutility
;	COMDAT ?_Adopt@_Iterator_base12@std@@QEAAXPEBU_Container_base12@2@@Z
_TEXT	SEGMENT
this$ = 8
_Parent$ = 16
?_Adopt@_Iterator_base12@std@@QEAAXPEBU_Container_base12@2@@Z PROC ; std::_Iterator_base12::_Adopt, COMDAT

; 148  : 		if (_Parent == nullptr)

	test	rdx, rdx
	je	SHORT $LN3@Adopt

; 149  : 			{	// no future parent, just disown current parent
; 150  :  #if _ITERATOR_DEBUG_LEVEL == 2
; 151  : 			_Lockit _Lock(_LOCK_DEBUG);
; 152  : 			_Orphan_me();
; 153  :  #endif /* _ITERATOR_DEBUG_LEVEL == 2 */
; 154  : 			}
; 155  : 		else
; 156  : 			{	// have a parent, do adoption
; 157  : 			_Container_proxy *_Parent_proxy = _Parent->_Myproxy;
; 158  : 
; 159  :  #if _ITERATOR_DEBUG_LEVEL == 2
; 160  : 			if (_Myproxy != _Parent_proxy)
; 161  : 				{	// change parentage
; 162  : 				_Lockit _Lock(_LOCK_DEBUG);
; 163  : 				_Orphan_me();
; 164  : 				_Mynextiter = _Parent_proxy->_Myfirstiter;
; 165  : 				_Parent_proxy->_Myfirstiter = this;
; 166  : 				_Myproxy = _Parent_proxy;
; 167  : 				}
; 168  : 
; 169  :  #else /* _ITERATOR_DEBUG_LEVEL == 2 */
; 170  : 			_Myproxy = _Parent_proxy;

	mov	rax, QWORD PTR [rdx]
	mov	QWORD PTR [rcx], rax
$LN3@Adopt:

; 171  :  #endif /* _ITERATOR_DEBUG_LEVEL == 2 */
; 172  : 			}
; 173  : 		}

	ret	0
?_Adopt@_Iterator_base12@std@@QEAAXPEBU_Container_base12@2@@Z ENDP ; std::_Iterator_base12::_Adopt
_TEXT	ENDS
; Function compile flags: /Ogtpy
; File c:\program files (x86)\microsoft visual studio\2017\enterprise\vc\tools\msvc\14.16.27023\include\xutility
;	COMDAT ?_Getcont@_Iterator_base12@std@@QEBAPEBU_Container_base12@2@XZ
_TEXT	SEGMENT
this$ = 8
?_Getcont@_Iterator_base12@std@@QEBAPEBU_Container_base12@2@XZ PROC ; std::_Iterator_base12::_Getcont, COMDAT

; 182  : 		return (_Myproxy == nullptr ? nullptr : _Myproxy->_Mycont);

	mov	rax, QWORD PTR [rcx]
	test	rax, rax
	jne	SHORT $LN3@Getcont

; 183  : 		}

	ret	0
$LN3@Getcont:

; 182  : 		return (_Myproxy == nullptr ? nullptr : _Myproxy->_Mycont);

	mov	rax, QWORD PTR [rax]

; 183  : 		}

	ret	0
?_Getcont@_Iterator_base12@std@@QEBAPEBU_Container_base12@2@XZ ENDP ; std::_Iterator_base12::_Getcont
_TEXT	ENDS
; Function compile flags: /Ogtpy
; File c:\program files (x86)\microsoft visual studio\2017\enterprise\vc\tools\msvc\14.16.27023\include\xutility
;	COMDAT ?_Orphan_all@_Container_base12@std@@QEAAXXZ
_TEXT	SEGMENT
this$ = 8
?_Orphan_all@_Container_base12@std@@QEAAXXZ PROC	; std::_Container_base12::_Orphan_all, COMDAT

; 215  :  #if _ITERATOR_DEBUG_LEVEL == 2
; 216  : 	if (_Myproxy != nullptr)
; 217  : 		{	// proxy allocated, drain it
; 218  : 		_Lockit _Lock(_LOCK_DEBUG);
; 219  : 
; 220  : 		for (_Iterator_base12 **_Pnext = &_Myproxy->_Myfirstiter;
; 221  : 			*_Pnext != nullptr; *_Pnext = (*_Pnext)->_Mynextiter)
; 222  : 			(*_Pnext)->_Myproxy = nullptr;
; 223  : 		_Myproxy->_Myfirstiter = nullptr;
; 224  : 		}
; 225  :  #endif /* _ITERATOR_DEBUG_LEVEL == 2 */
; 226  : 	}

	ret	0
?_Orphan_all@_Container_base12@std@@QEAAXXZ ENDP	; std::_Container_base12::_Orphan_all
_TEXT	ENDS
; Function compile flags: /Ogtpy
; File d:\code\libshared\jsoncpp-src-0.5.0\src\lib_json\json_reader.cpp
;	COMDAT ??0Features@Json@@QEAA@XZ
_TEXT	SEGMENT
this$ = 8
??0Features@Json@@QEAA@XZ PROC				; Json::Features::Features, COMDAT

	mov	WORD PTR [rcx], 1

	mov	rax, rcx
	ret	0
??0Features@Json@@QEAA@XZ ENDP				; Json::Features::Features
_TEXT	ENDS
; Function compile flags: /Ogtpy
; File d:\code\libshared\jsoncpp-src-0.5.0\src\lib_json\json_reader.cpp
;	COMDAT ?all@Features@Json@@SA?AV12@XZ
_TEXT	SEGMENT
__$ReturnUdt$ = 8
?all@Features@Json@@SA?AV12@XZ PROC			; Json::Features::all, COMDAT

	mov	WORD PTR [rcx], 1

	mov	rax, rcx

	ret	0
?all@Features@Json@@SA?AV12@XZ ENDP			; Json::Features::all
_TEXT	ENDS
; Function compile flags: /Ogtpy
; File d:\code\libshared\jsoncpp-src-0.5.0\src\lib_json\json_reader.cpp
;	COMDAT ?in@Json@@YA_NDDDDD@Z
_TEXT	SEGMENT
c$ = 8
c1$dead$ = 16
c2$dead$ = 24
c3$dead$ = 32
c4$dead$ = 40
?in@Json@@YA_NDDDDD@Z PROC				; Json::in, COMDAT

	sub	cl, 43					; 0000002bH
	cmp	cl, 58					; 0000003aH
	ja	SHORT $LN5@in
	movsx	rax, cl
	mov	rcx, 288230376218820617			; 0400000004000009H
	bt	rcx, rax
	jae	SHORT $LN5@in
	mov	al, 1

	ret	0
$LN5@in:

	xor	al, al

	ret	0
?in@Json@@YA_NDDDDD@Z ENDP				; Json::in
_TEXT	ENDS
; Function compile flags: /Ogtpy
; File d:\code\libshared\jsoncpp-src-0.5.0\src\lib_json\json_reader.cpp
;	COMDAT ?in@Json@@YA_NDDDDDD@Z
_TEXT	SEGMENT
c$ = 8
c1$dead$ = 16
c2$dead$ = 24
c3$dead$ = 32
c4$dead$ = 40
c5$dead$ = 48
?in@Json@@YA_NDDDDDD@Z PROC				; Json::in, COMDAT

	sub	cl, 43					; 0000002bH
	cmp	cl, 58					; 0000003aH
	ja	SHORT $LN5@in
	movsx	rax, cl
	mov	rcx, 288230376218820621			; 040000000400000dH
	bt	rcx, rax
	jae	SHORT $LN5@in
	mov	al, 1

	ret	0
$LN5@in:

	xor	al, al

	ret	0
?in@Json@@YA_NDDDDDD@Z ENDP				; Json::in
_TEXT	ENDS
; Function compile flags: /Ogtpy
; File d:\code\libshared\jsoncpp-src-0.5.0\src\lib_json\json_reader.cpp
;	COMDAT ?containsNewLine@Json@@YA_NPEBD0@Z
_TEXT	SEGMENT
begin$ = 8
end$ = 16
?containsNewLine@Json@@YA_NPEBD0@Z PROC			; Json::containsNewLine, COMDAT

	cmp	rcx, rdx
	jae	SHORT $LN3@containsNe
$LL4@containsNe:

	movzx	eax, BYTE PTR [rcx]
	cmp	al, 10
	je	SHORT $LN9@containsNe
	cmp	al, 13
	je	SHORT $LN9@containsNe

	inc	rcx
	cmp	rcx, rdx
	jb	SHORT $LL4@containsNe
$LN3@containsNe:

	xor	al, al

	ret	0
$LN9@containsNe:

	mov	al, 1

	ret	0
?containsNewLine@Json@@YA_NPEBD0@Z ENDP			; Json::containsNewLine
_TEXT	ENDS
; Function compile flags: /Ogtpy
; File d:\code\libshared\jsoncpp-src-0.5.0\src\lib_json\json_reader.cpp
;	COMDAT ?codePointToUTF8@Json@@YA?AV?$basic_string@DU?$char_traits@D@std@@V?$allocator@D@2@@std@@I@Z
_TEXT	SEGMENT
$T1 = 32
$T2 = 40
__$ReturnUdt$ = 64
cp$ = 72
?codePointToUTF8@Json@@YA?AV?$basic_string@DU?$char_traits@D@std@@V?$allocator@D@2@@std@@I@Z PROC ; Json::codePointToUTF8, COMDAT

	mov	QWORD PTR [rsp+8], rcx
	push	rdi
	sub	rsp, 48					; 00000030H
	mov	QWORD PTR $T2[rsp], -2
	mov	QWORD PTR [rsp+72], rbx
	mov	ebx, edx
	mov	rdi, rcx
	mov	DWORD PTR $T1[rsp], 0

	call	??0?$basic_string@DU?$char_traits@D@std@@V?$allocator@D@2@@std@@QEAA@XZ ; std::basic_string<char,std::char_traits<char>,std::allocator<char> >::basic_string<char,std::char_traits<char>,std::allocator<char> >

	mov	DWORD PTR $T1[rsp], 1

	cmp	ebx, 127				; 0000007fH
	ja	SHORT $LN2@codePointT

	xor	r8d, r8d
	lea	edx, QWORD PTR [r8+1]
	mov	rcx, rdi
	call	?resize@?$basic_string@DU?$char_traits@D@std@@V?$allocator@D@2@@std@@QEAAX_KD@Z ; std::basic_string<char,std::char_traits<char>,std::allocator<char> >::resize

	xor	edx, edx
	mov	rcx, rdi
	call	??A?$basic_string@DU?$char_traits@D@std@@V?$allocator@D@2@@std@@QEAAAEAD_K@Z ; std::basic_string<char,std::char_traits<char>,std::allocator<char> >::operator[]

	mov	BYTE PTR [rax], bl
	mov	rax, rdi
	mov	rbx, QWORD PTR [rsp+72]
	add	rsp, 48					; 00000030H
	pop	rdi
	ret	0
$LN2@codePointT:

	cmp	ebx, 2047				; 000007ffH
	ja	SHORT $LN4@codePointT

	xor	r8d, r8d
	lea	edx, QWORD PTR [r8+2]
	mov	rcx, rdi
	call	?resize@?$basic_string@DU?$char_traits@D@std@@V?$allocator@D@2@@std@@QEAAX_KD@Z ; std::basic_string<char,std::char_traits<char>,std::allocator<char> >::resize

	mov	edx, 1
	mov	rcx, rdi
	call	??A?$basic_string@DU?$char_traits@D@std@@V?$allocator@D@2@@std@@QEAAAEAD_K@Z ; std::basic_string<char,std::char_traits<char>,std::allocator<char> >::operator[]
	movzx	ecx, bl
	and	cl, 63					; 0000003fH
	or	cl, -128				; ffffffffffffff80H
	mov	BYTE PTR [rax], cl

	xor	edx, edx
	mov	rcx, rdi
	call	??A?$basic_string@DU?$char_traits@D@std@@V?$allocator@D@2@@std@@QEAAAEAD_K@Z ; std::basic_string<char,std::char_traits<char>,std::allocator<char> >::operator[]
	shr	ebx, 6
	and	bl, 31
	or	bl, -64					; ffffffffffffffc0H

	mov	BYTE PTR [rax], bl
	mov	rax, rdi
	mov	rbx, QWORD PTR [rsp+72]
	add	rsp, 48					; 00000030H
	pop	rdi
	ret	0
$LN4@codePointT:

	cmp	ebx, 65535				; 0000ffffH
	ja	SHORT $LN6@codePointT

	xor	r8d, r8d
	lea	edx, QWORD PTR [r8+3]
	mov	rcx, rdi
	call	?resize@?$basic_string@DU?$char_traits@D@std@@V?$allocator@D@2@@std@@QEAAX_KD@Z ; std::basic_string<char,std::char_traits<char>,std::allocator<char> >::resize

	mov	edx, 2
	mov	rcx, rdi
	call	??A?$basic_string@DU?$char_traits@D@std@@V?$allocator@D@2@@std@@QEAAAEAD_K@Z ; std::basic_string<char,std::char_traits<char>,std::allocator<char> >::operator[]
	movzx	ecx, bl
	and	cl, 63					; 0000003fH
	or	cl, -128				; ffffffffffffff80H
	mov	BYTE PTR [rax], cl

	mov	edx, 1
	mov	rcx, rdi
	call	??A?$basic_string@DU?$char_traits@D@std@@V?$allocator@D@2@@std@@QEAAAEAD_K@Z ; std::basic_string<char,std::char_traits<char>,std::allocator<char> >::operator[]
	mov	ecx, ebx
	shr	ecx, 6
	and	cl, 63					; 0000003fH
	or	cl, -128				; ffffffffffffff80H
	mov	BYTE PTR [rax], cl

	xor	edx, edx
	mov	rcx, rdi
	call	??A?$basic_string@DU?$char_traits@D@std@@V?$allocator@D@2@@std@@QEAAAEAD_K@Z ; std::basic_string<char,std::char_traits<char>,std::allocator<char> >::operator[]
	shr	ebx, 12
	and	bl, 15
	or	bl, -32					; ffffffffffffffe0H

	mov	BYTE PTR [rax], bl
	mov	rax, rdi
	mov	rbx, QWORD PTR [rsp+72]
	add	rsp, 48					; 00000030H
	pop	rdi
	ret	0
$LN6@codePointT:

	cmp	ebx, 1114111				; 0010ffffH
	ja	SHORT $LN12@codePointT

	xor	r8d, r8d
	lea	edx, QWORD PTR [r8+4]
	mov	rcx, rdi
	call	?resize@?$basic_string@DU?$char_traits@D@std@@V?$allocator@D@2@@std@@QEAAX_KD@Z ; std::basic_string<char,std::char_traits<char>,std::allocator<char> >::resize

	mov	edx, 3
	mov	rcx, rdi
	call	??A?$basic_string@DU?$char_traits@D@std@@V?$allocator@D@2@@std@@QEAAAEAD_K@Z ; std::basic_string<char,std::char_traits<char>,std::allocator<char> >::operator[]
	movzx	ecx, bl
	and	cl, 63					; 0000003fH
	or	cl, -128				; ffffffffffffff80H
	mov	BYTE PTR [rax], cl

	mov	edx, 2
	mov	rcx, rdi
	call	??A?$basic_string@DU?$char_traits@D@std@@V?$allocator@D@2@@std@@QEAAAEAD_K@Z ; std::basic_string<char,std::char_traits<char>,std::allocator<char> >::operator[]
	mov	ecx, ebx
	shr	ecx, 6
	and	cl, 63					; 0000003fH
	or	cl, -128				; ffffffffffffff80H
	mov	BYTE PTR [rax], cl

	mov	edx, 1
	mov	rcx, rdi
	call	??A?$basic_string@DU?$char_traits@D@std@@V?$allocator@D@2@@std@@QEAAAEAD_K@Z ; std::basic_string<char,std::char_traits<char>,std::allocator<char> >::operator[]
	mov	ecx, ebx
	shr	ecx, 12
	and	cl, 63					; 0000003fH
	or	cl, -128				; ffffffffffffff80H
	mov	BYTE PTR [rax], cl

	xor	edx, edx
	mov	rcx, rdi
	call	??A?$basic_string@DU?$char_traits@D@std@@V?$allocator@D@2@@std@@QEAAAEAD_K@Z ; std::basic_string<char,std::char_traits<char>,std::allocator<char> >::operator[]
	shr	ebx, 18
	and	bl, 7
	or	bl, -16

	mov	BYTE PTR [rax], bl
$LN12@codePointT:
	mov	rax, rdi
	mov	rbx, QWORD PTR [rsp+72]
	add	rsp, 48					; 00000030H
	pop	rdi
	ret	0
	int	3
?codePointToUTF8@Json@@YA?AV?$basic_string@DU?$char_traits@D@std@@V?$allocator@D@2@@std@@I@Z ENDP ; Json::codePointToUTF8
_TEXT	ENDS
;	COMDAT text$x
text$x	SEGMENT
$T1 = 32
$T2 = 40
__$ReturnUdt$ = 64
cp$ = 72
?dtor$0@?0??codePointToUTF8@Json@@YA?AV?$basic_string@DU?$char_traits@D@std@@V?$allocator@D@2@@std@@I@Z@4HA PROC ; `Json::codePointToUTF8'::`1'::dtor$0
	push	rbp
	sub	rsp, 32					; 00000020H
	mov	rbp, rdx
	mov	eax, DWORD PTR $T1[rbp]
	and	eax, 1
	test	eax, eax
	je	SHORT $LN11@dtor$0
	and	DWORD PTR $T1[rbp], -2
	mov	rcx, QWORD PTR __$ReturnUdt$[rbp]
	call	??1?$basic_string@DU?$char_traits@D@std@@V?$allocator@D@2@@std@@QEAA@XZ ; std::basic_string<char,std::char_traits<char>,std::allocator<char> >::~basic_string<char,std::char_traits<char>,std::allocator<char> >
$LN11@dtor$0:
	add	rsp, 32					; 00000020H
	pop	rbp
	ret	0
?dtor$0@?0??codePointToUTF8@Json@@YA?AV?$basic_string@DU?$char_traits@D@std@@V?$allocator@D@2@@std@@I@Z@4HA ENDP ; `Json::codePointToUTF8'::`1'::dtor$0
text$x	ENDS
; Function compile flags: /Ogtpy
;	COMDAT text$x
text$x	SEGMENT
$T1 = 32
$T2 = 40
__$ReturnUdt$ = 64
cp$ = 72
?dtor$0@?0??codePointToUTF8@Json@@YA?AV?$basic_string@DU?$char_traits@D@std@@V?$allocator@D@2@@std@@I@Z@4HA PROC ; `Json::codePointToUTF8'::`1'::dtor$0
	push	rbp
	sub	rsp, 32					; 00000020H
	mov	rbp, rdx
	mov	eax, DWORD PTR $T1[rbp]
	and	eax, 1
	test	eax, eax
	je	SHORT $LN11@dtor$0
	and	DWORD PTR $T1[rbp], -2
	mov	rcx, QWORD PTR __$ReturnUdt$[rbp]
	call	??1?$basic_string@DU?$char_traits@D@std@@V?$allocator@D@2@@std@@QEAA@XZ ; std::basic_string<char,std::char_traits<char>,std::allocator<char> >::~basic_string<char,std::char_traits<char>,std::allocator<char> >
$LN11@dtor$0:
	add	rsp, 32					; 00000020H
	pop	rbp
	ret	0
?dtor$0@?0??codePointToUTF8@Json@@YA?AV?$basic_string@DU?$char_traits@D@std@@V?$allocator@D@2@@std@@I@Z@4HA ENDP ; `Json::codePointToUTF8'::`1'::dtor$0
text$x	ENDS
; Function compile flags: /Ogtpy
; File d:\code\libshared\jsoncpp-src-0.5.0\src\lib_json\json_reader.cpp
; File c:\program files (x86)\microsoft visual studio\2017\enterprise\vc\tools\msvc\14.16.27023\include\xutility
; File c:\program files (x86)\microsoft visual studio\2017\enterprise\vc\tools\msvc\14.16.27023\include\deque
; File c:\program files (x86)\microsoft visual studio\2017\enterprise\vc\tools\msvc\14.16.27023\include\xmemory0
; File c:\program files (x86)\microsoft visual studio\2017\enterprise\vc\tools\msvc\14.16.27023\include\deque
; File c:\program files (x86)\microsoft visual studio\2017\enterprise\vc\tools\msvc\14.16.27023\include\xmemory0
; File c:\program files (x86)\microsoft visual studio\2017\enterprise\vc\tools\msvc\14.16.27023\include\deque
; File d:\code\libshared\jsoncpp-src-0.5.0\src\lib_json\json_reader.cpp
; File c:\program files (x86)\microsoft visual studio\2017\enterprise\vc\tools\msvc\14.16.27023\include\xutility
; File c:\program files (x86)\microsoft visual studio\2017\enterprise\vc\tools\msvc\14.16.27023\include\deque
; File c:\program files (x86)\microsoft visual studio\2017\enterprise\vc\tools\msvc\14.16.27023\include\xmemory0
; File c:\program files (x86)\microsoft visual studio\2017\enterprise\vc\tools\msvc\14.16.27023\include\deque
; File c:\program files (x86)\microsoft visual studio\2017\enterprise\vc\tools\msvc\14.16.27023\include\xmemory0
; File c:\program files (x86)\microsoft visual studio\2017\enterprise\vc\tools\msvc\14.16.27023\include\deque
; File d:\code\libshared\jsoncpp-src-0.5.0\src\lib_json\json_reader.cpp
;	COMDAT ??0Reader@Json@@QEAA@XZ
_TEXT	SEGMENT
$T37 = 32
this$ = 80
this$ = 88
??0Reader@Json@@QEAA@XZ PROC				; Json::Reader::Reader, COMDAT

$LN132:
	mov	QWORD PTR [rsp+8], rcx
	push	rdi
	sub	rsp, 64					; 00000040H
	mov	QWORD PTR $T37[rsp], -2
	mov	QWORD PTR [rsp+96], rbx
	mov	QWORD PTR [rsp+104], rsi
	movaps	XMMWORD PTR [rsp+48], xmm6
	mov	rdi, rcx
; File c:\program files (x86)\microsoft visual studio\2017\enterprise\vc\tools\msvc\14.16.27023\include\xutility

; 80   : 		: _Myproxy(nullptr)

	xor	esi, esi
	mov	QWORD PTR [rcx], rsi
; File c:\program files (x86)\microsoft visual studio\2017\enterprise\vc\tools\msvc\14.16.27023\include\deque

; 680  : 		: _Map(),

	mov	QWORD PTR [rcx+8], rsi

; 681  : 		_Mapsize(0),

	mov	QWORD PTR [rcx+16], rsi

; 682  : 		_Myoff(0),

	mov	QWORD PTR [rcx+24], rsi

; 683  : 		_Mysize(0)

	mov	QWORD PTR [rcx+32], rsi
; File c:\program files (x86)\microsoft visual studio\2017\enterprise\vc\tools\msvc\14.16.27023\include\xmemory0

; 997  : 		return (static_cast<_Ty *>(_Allocate<_New_alignof<_Ty>>(_Get_size_of_n<sizeof(_Ty)>(_Count))));

	lea	ecx, QWORD PTR [rsi+16]
	call	??$_Allocate@$0BA@U_Default_allocate_traits@std@@$0A@@std@@YAPEAX_K@Z ; std::_Allocate<16,std::_Default_allocate_traits,0>
; File c:\program files (x86)\microsoft visual studio\2017\enterprise\vc\tools\msvc\14.16.27023\include\deque

; 787  : 		_Myproxy() = _Unfancy(_Proxy_allocator.allocate(1));

	mov	QWORD PTR [rdi], rax
	xorps	xmm6, xmm6
; File c:\program files (x86)\microsoft visual studio\2017\enterprise\vc\tools\msvc\14.16.27023\include\xmemory0

; 880  : 		::new (const_cast<void *>(static_cast<const volatile void *>(_Ptr)))

	mov	rdx, rax
	lea	ecx, QWORD PTR [rsi+16]
	call	??2@YAPEAX_KPEAX@Z			; operator new
	movups	XMMWORD PTR [rax], xmm6
; File c:\program files (x86)\microsoft visual studio\2017\enterprise\vc\tools\msvc\14.16.27023\include\deque

; 789  : 		_Myproxy()->_Mycont = _STD addressof(_Get_data());

	mov	rax, QWORD PTR [rdi]
	mov	QWORD PTR [rax], rdi
; File d:\code\libshared\jsoncpp-src-0.5.0\src\lib_json\json_reader.cpp

	lea	rbx, QWORD PTR [rdi+40]
	mov	QWORD PTR this$[rsp], rbx
; File c:\program files (x86)\microsoft visual studio\2017\enterprise\vc\tools\msvc\14.16.27023\include\xutility

; 80   : 		: _Myproxy(nullptr)

	mov	QWORD PTR [rbx], rsi
; File c:\program files (x86)\microsoft visual studio\2017\enterprise\vc\tools\msvc\14.16.27023\include\deque

; 680  : 		: _Map(),

	mov	QWORD PTR [rbx+8], rsi

; 681  : 		_Mapsize(0),

	mov	QWORD PTR [rbx+16], rsi

; 682  : 		_Myoff(0),

	mov	QWORD PTR [rbx+24], rsi

; 683  : 		_Mysize(0)

	mov	QWORD PTR [rbx+32], rsi
; File c:\program files (x86)\microsoft visual studio\2017\enterprise\vc\tools\msvc\14.16.27023\include\xmemory0

; 997  : 		return (static_cast<_Ty *>(_Allocate<_New_alignof<_Ty>>(_Get_size_of_n<sizeof(_Ty)>(_Count))));

	lea	ecx, QWORD PTR [rsi+16]
	call	??$_Allocate@$0BA@U_Default_allocate_traits@std@@$0A@@std@@YAPEAX_K@Z ; std::_Allocate<16,std::_Default_allocate_traits,0>
; File c:\program files (x86)\microsoft visual studio\2017\enterprise\vc\tools\msvc\14.16.27023\include\deque

; 787  : 		_Myproxy() = _Unfancy(_Proxy_allocator.allocate(1));

	mov	QWORD PTR [rbx], rax
; File c:\program files (x86)\microsoft visual studio\2017\enterprise\vc\tools\msvc\14.16.27023\include\xmemory0

; 880  : 		::new (const_cast<void *>(static_cast<const volatile void *>(_Ptr)))

	mov	rdx, rax
	lea	ecx, QWORD PTR [rsi+16]
	call	??2@YAPEAX_KPEAX@Z			; operator new
	movups	XMMWORD PTR [rax], xmm6
; File c:\program files (x86)\microsoft visual studio\2017\enterprise\vc\tools\msvc\14.16.27023\include\deque

; 789  : 		_Myproxy()->_Mycont = _STD addressof(_Get_data());

	mov	rax, QWORD PTR [rbx]
	mov	QWORD PTR [rax], rbx
; File d:\code\libshared\jsoncpp-src-0.5.0\src\lib_json\json_reader.cpp

	lea	rcx, QWORD PTR [rdi+80]
	call	??0?$basic_string@DU?$char_traits@D@std@@V?$allocator@D@2@@std@@QEAA@XZ ; std::basic_string<char,std::char_traits<char>,std::allocator<char> >::basic_string<char,std::char_traits<char>,std::allocator<char> >
	lea	rcx, QWORD PTR [rdi+152]
	call	??0?$basic_string@DU?$char_traits@D@std@@V?$allocator@D@2@@std@@QEAA@XZ ; std::basic_string<char,std::char_traits<char>,std::allocator<char> >::basic_string<char,std::char_traits<char>,std::allocator<char> >

	mov	WORD PTR [rdi+184], 1

	mov	rax, rdi
	mov	rbx, QWORD PTR [rsp+96]
	mov	rsi, QWORD PTR [rsp+104]
	movaps	xmm6, XMMWORD PTR [rsp+48]
	add	rsp, 64					; 00000040H
	pop	rdi
	ret	0
??0Reader@Json@@QEAA@XZ ENDP				; Json::Reader::Reader
_TEXT	ENDS
;	COMDAT text$x
text$x	SEGMENT
$T37 = 32
this$ = 80
this$ = 88
?dtor$0@?0???0Reader@Json@@QEAA@XZ@4HA PROC		; `Json::Reader::Reader'::`1'::dtor$0
	mov	rcx, QWORD PTR this$[rdx]
	jmp	??1?$stack@PEAVValue@Json@@V?$deque@PEAVValue@Json@@V?$allocator@PEAVValue@Json@@@std@@@std@@@std@@QEAA@XZ
?dtor$0@?0???0Reader@Json@@QEAA@XZ@4HA ENDP		; `Json::Reader::Reader'::`1'::dtor$0
text$x	ENDS
; Function compile flags: /Ogtpy
;	COMDAT text$x
text$x	SEGMENT
$T37 = 32
this$ = 80
this$ = 88
?dtor$0@?0???0Reader@Json@@QEAA@XZ@4HA PROC		; `Json::Reader::Reader'::`1'::dtor$0
	mov	rcx, QWORD PTR this$[rdx]
	jmp	??1?$stack@PEAVValue@Json@@V?$deque@PEAVValue@Json@@V?$allocator@PEAVValue@Json@@@std@@@std@@@std@@QEAA@XZ
?dtor$0@?0???0Reader@Json@@QEAA@XZ@4HA ENDP		; `Json::Reader::Reader'::`1'::dtor$0
text$x	ENDS
; Function compile flags: /Ogtpy
; File c:\program files (x86)\microsoft visual studio\2017\enterprise\vc\tools\msvc\14.16.27023\include\deque
; File c:\program files (x86)\microsoft visual studio\2017\enterprise\vc\tools\msvc\14.16.27023\include\xmemory0
; File c:\program files (x86)\microsoft visual studio\2017\enterprise\vc\tools\msvc\14.16.27023\include\deque
; File c:\program files (x86)\microsoft visual studio\2017\enterprise\vc\tools\msvc\14.16.27023\include\xmemory0
; File c:\program files (x86)\microsoft visual studio\2017\enterprise\vc\tools\msvc\14.16.27023\include\deque
; File c:\program files (x86)\microsoft visual studio\2017\enterprise\vc\tools\msvc\14.16.27023\include\xmemory0
; File c:\program files (x86)\microsoft visual studio\2017\enterprise\vc\tools\msvc\14.16.27023\include\deque
;	COMDAT ??1?$stack@PEAVValue@Json@@V?$deque@PEAVValue@Json@@V?$allocator@PEAVValue@Json@@@std@@@std@@@std@@QEAA@XZ
_TEXT	SEGMENT
$T69 = 32
this$ = 64
??1?$stack@PEAVValue@Json@@V?$deque@PEAVValue@Json@@V?$allocator@PEAVValue@Json@@@std@@@std@@@std@@QEAA@XZ PROC ; std::stack<Json::Value *,std::deque<Json::Value *,std::allocator<Json::Value *> > >::~stack<Json::Value *,std::deque<Json::Value *,std::allocator<Json::Value *> > >, COMDAT
$LN195:
	push	rdi
	sub	rsp, 48					; 00000030H
	mov	QWORD PTR $T69[rsp], -2
	mov	QWORD PTR [rsp+64], rbx
	mov	QWORD PTR [rsp+72], rsi
	mov	rbx, rcx

; 1377 : 		return (this->_Mysize() == 0);

	mov	rax, QWORD PTR [rcx+32]

; 1871 : 		while (!empty())

	xor	esi, esi
	test	rax, rax
	je	SHORT $LN8@stack
	npad	9
$LL7@stack:

; 1518 : 		if (--this->_Mysize() == 0)

	sub	rax, 1
	mov	QWORD PTR [rcx+32], rax
	jne	SHORT $LN30@stack

; 1519 : 			{
; 1520 : 			this->_Myoff() = 0;

	mov	QWORD PTR [rcx+24], rsi
$LN30@stack:

; 1871 : 		while (!empty())

	test	rax, rax
	jne	SHORT $LL7@stack
$LN8@stack:

; 1876 : 		for (size_type _Block = this->_Mapsize(); 0 < _Block; )

	mov	rdi, QWORD PTR [rcx+16]
	test	rdi, rdi
	je	SHORT $LN10@stack
	npad	4
$LL9@stack:

; 1877 : 			{	// free storage for a block and destroy pointer
; 1878 : 			if (this->_Map()[--_Block] != pointer())

	dec	rdi
	mov	rax, QWORD PTR [rbx+8]
	mov	rcx, QWORD PTR [rax+rdi*8]
	test	rcx, rcx
	je	SHORT $LN109@stack
; File c:\program files (x86)\microsoft visual studio\2017\enterprise\vc\tools\msvc\14.16.27023\include\xmemory0

; 992  : 		_Deallocate<_New_alignof<_Ty>>(_Ptr, sizeof(_Ty) * _Count);

	mov	edx, 16
	call	??$_Deallocate@$0BA@$0A@@std@@YAXPEAX_K@Z ; std::_Deallocate<16,0>
	npad	1
$LN109@stack:
; File c:\program files (x86)\microsoft visual studio\2017\enterprise\vc\tools\msvc\14.16.27023\include\deque

; 1876 : 		for (size_type _Block = this->_Mapsize(); 0 < _Block; )

	test	rdi, rdi
	jne	SHORT $LL9@stack
$LN10@stack:

; 1879 : 				{	// free block and destroy its pointer
; 1880 : 				this->_Getal().deallocate(this->_Map()[_Block], _DEQUESIZ);
; 1881 : 				_Alpty_traits::destroy(_Almap, _STD addressof(this->_Map()[_Block]));
; 1882 : 				}
; 1883 : 			}
; 1884 : 
; 1885 : 		if (this->_Map() != _Mapptr())

	mov	rcx, QWORD PTR [rbx+8]
	test	rcx, rcx
	je	SHORT $LN13@stack

; 1886 : 			{
; 1887 : 			_Almap.deallocate(this->_Map(), this->_Mapsize());	// free storage for map

	mov	rdx, QWORD PTR [rbx+16]
; File c:\program files (x86)\microsoft visual studio\2017\enterprise\vc\tools\msvc\14.16.27023\include\xmemory0

; 992  : 		_Deallocate<_New_alignof<_Ty>>(_Ptr, sizeof(_Ty) * _Count);

	lea	rdx, QWORD PTR [rdx*8]
	call	??$_Deallocate@$0BA@$0A@@std@@YAXPEAX_K@Z ; std::_Deallocate<16,0>
	npad	1
$LN13@stack:
; File c:\program files (x86)\microsoft visual studio\2017\enterprise\vc\tools\msvc\14.16.27023\include\deque

; 1890 : 		this->_Mapsize() = 0;

	mov	QWORD PTR [rbx+16], rsi

; 1891 : 		this->_Map() = _Mapptr();

	mov	QWORD PTR [rbx+8], rsi
; File c:\program files (x86)\microsoft visual studio\2017\enterprise\vc\tools\msvc\14.16.27023\include\xmemory0

; 873  : 		_Deallocate<_New_alignof<value_type>>(_Ptr, sizeof(value_type) * _Count);

	mov	edx, 16
	mov	rcx, QWORD PTR [rbx]
	call	??$_Deallocate@$0BA@$0A@@std@@YAXPEAX_K@Z ; std::_Deallocate<16,0>
	npad	1
; File c:\program files (x86)\microsoft visual studio\2017\enterprise\vc\tools\msvc\14.16.27023\include\deque

; 798  : 		_Myproxy() = nullptr;

	mov	QWORD PTR [rbx], rsi
	mov	rbx, QWORD PTR [rsp+64]
	mov	rsi, QWORD PTR [rsp+72]
	add	rsp, 48					; 00000030H
	pop	rdi
	ret	0
??1?$stack@PEAVValue@Json@@V?$deque@PEAVValue@Json@@V?$allocator@PEAVValue@Json@@@std@@@std@@@std@@QEAA@XZ ENDP ; std::stack<Json::Value *,std::deque<Json::Value *,std::allocator<Json::Value *> > >::~stack<Json::Value *,std::deque<Json::Value *,std::allocator<Json::Value *> > >
_TEXT	ENDS
; Function compile flags: /Ogtpy
; File d:\code\libshared\jsoncpp-src-0.5.0\src\lib_json\json_reader.cpp
; File c:\program files (x86)\microsoft visual studio\2017\enterprise\vc\tools\msvc\14.16.27023\include\deque
; File d:\code\libshared\jsoncpp-src-0.5.0\src\lib_json\json_reader.cpp
; File c:\program files (x86)\microsoft visual studio\2017\enterprise\vc\tools\msvc\14.16.27023\include\deque
; File d:\code\libshared\jsoncpp-src-0.5.0\src\lib_json\json_reader.cpp
; File d:\code\libshared\jsoncpp-src-0.5.0\src\lib_json\json_value.cpp
; File d:\code\libshared\jsoncpp-src-0.5.0\src\lib_json\json_reader.cpp
;	COMDAT ?parse@Reader@Json@@QEAA_NAEBV?$basic_string@DU?$char_traits@D@std@@V?$allocator@D@2@@std@@AEAVValue@2@_N@Z
_TEXT	SEGMENT
token$27 = 32
$T24 = 56
$T28 = 64
$T25 = 72
__$ArrayPad$ = 104
this$ = 160
document$ = 168
root$ = 176
collectComments$ = 184
?parse@Reader@Json@@QEAA_NAEBV?$basic_string@DU?$char_traits@D@std@@V?$allocator@D@2@@std@@AEAVValue@2@_N@Z PROC ; Json::Reader::parse, COMDAT

$LN102:
	push	rbp
	push	rsi
	push	rdi
	push	r14
	push	r15
	sub	rsp, 112				; 00000070H
	mov	QWORD PTR $T28[rsp], -2
	mov	QWORD PTR [rsp+184], rbx
	mov	rax, QWORD PTR __security_cookie
	xor	rax, rsp
	mov	QWORD PTR __$ArrayPad$[rsp], rax
	movzx	esi, r9b
	mov	rbp, r8
	mov	rbx, rcx

	add	rcx, 80					; 00000050H
	call	??4?$basic_string@DU?$char_traits@D@std@@V?$allocator@D@2@@std@@QEAAAEAV01@AEBV01@@Z ; std::basic_string<char,std::char_traits<char>,std::allocator<char> >::operator=

	lea	rcx, QWORD PTR [rbx+80]
	call	?c_str@?$basic_string@DU?$char_traits@D@std@@V?$allocator@D@2@@std@@QEBAPEBDXZ ; std::basic_string<char,std::char_traits<char>,std::allocator<char> >::c_str
	mov	r14, rax

	lea	rcx, QWORD PTR [rbx+80]
	call	?length@?$basic_string@DU?$char_traits@D@std@@V?$allocator@D@2@@std@@QEBA_KXZ ; std::basic_string<char,std::char_traits<char>,std::allocator<char> >::length
	lea	r15, QWORD PTR [r14+rax]

	mov	QWORD PTR [rbx+112], r14

	mov	QWORD PTR [rbx+120], r15

	xor	edi, edi
	mov	edx, edi
	cmp	BYTE PTR [rbx+184], dl
	cmovne	edx, esi

	mov	BYTE PTR [rbx+186], dl

	mov	QWORD PTR [rbx+128], r14

	mov	QWORD PTR [rbx+136], rdi

	mov	QWORD PTR [rbx+144], rdi

	lea	rdx, OFFSET FLAT:??_C@_00CNPNBAHC@@
	lea	rcx, QWORD PTR [rbx+152]
	call	??4?$basic_string@DU?$char_traits@D@std@@V?$allocator@D@2@@std@@QEAAAEAV01@QEBD@Z ; std::basic_string<char,std::char_traits<char>,std::allocator<char> >::operator=
	npad	1

	lea	rcx, QWORD PTR [rbx+40]
; File c:\program files (x86)\microsoft visual studio\2017\enterprise\vc\tools\msvc\14.16.27023\include\deque

; 1690 : 		_Tidy();

	call	?_Tidy@?$deque@VErrorInfo@Reader@Json@@V?$allocator@VErrorInfo@Reader@Json@@@std@@@std@@IEAAXXZ ; std::deque<Json::Reader::ErrorInfo,std::allocator<Json::Reader::ErrorInfo> >::_Tidy
	npad	1

; 1377 : 		return (this->_Mysize() == 0);

	mov	rax, QWORD PTR [rbx+32]
; File d:\code\libshared\jsoncpp-src-0.5.0\src\lib_json\json_reader.cpp

	test	rax, rax
	je	SHORT $LN5@parse
	npad	1
$LL4@parse:
; File c:\program files (x86)\microsoft visual studio\2017\enterprise\vc\tools\msvc\14.16.27023\include\deque

; 1518 : 		if (--this->_Mysize() == 0)

	sub	rax, 1
	mov	QWORD PTR [rbx+32], rax
	jne	SHORT $LN28@parse

; 1519 : 			{
; 1520 : 			this->_Myoff() = 0;

	mov	QWORD PTR [rbx+24], rdi
$LN28@parse:
; File d:\code\libshared\jsoncpp-src-0.5.0\src\lib_json\json_reader.cpp

	test	rax, rax
	jne	SHORT $LL4@parse
$LN5@parse:

	mov	QWORD PTR $T24[rsp], rbp
	lea	rdx, QWORD PTR $T24[rsp]
	mov	rcx, rbx
	call	?push@?$stack@PEAVValue@Json@@V?$deque@PEAVValue@Json@@V?$allocator@PEAVValue@Json@@@std@@@std@@@std@@QEAAX$$QEAPEAVValue@Json@@@Z ; std::stack<Json::Value *,std::deque<Json::Value *,std::allocator<Json::Value *> > >::push

	mov	rcx, rbx
	call	?readValue@Reader@Json@@AEAA_NXZ	; Json::Reader::readValue
	movzx	edi, al

	cmp	BYTE PTR [rbx+184], 0
	je	SHORT $LN80@parse
	npad	7
$LL79@parse:

	lea	rdx, QWORD PTR token$27[rsp]
	mov	rcx, rbx
	call	?readToken@Reader@Json@@AEAA_NAEAVToken@12@@Z ; Json::Reader::readToken

	cmp	DWORD PTR token$27[rsp], 12
	je	SHORT $LL79@parse

	jmp	SHORT $LN81@parse
$LN80@parse:

	lea	rdx, QWORD PTR token$27[rsp]
	mov	rcx, rbx
	call	?readToken@Reader@Json@@AEAA_NAEAVToken@12@@Z ; Json::Reader::readToken
$LN81@parse:

	cmp	BYTE PTR [rbx+186], 0
	je	SHORT $LN7@parse
	lea	rcx, QWORD PTR [rbx+152]
	call	?empty@?$basic_string@DU?$char_traits@D@std@@V?$allocator@D@2@@std@@QEBA_NXZ ; std::basic_string<char,std::char_traits<char>,std::allocator<char> >::empty
	test	al, al
	jne	SHORT $LN7@parse

	mov	r8d, 2
	lea	rdx, QWORD PTR [rbx+152]
	mov	rcx, rbp
	call	?setComment@Value@Json@@QEAAXAEBV?$basic_string@DU?$char_traits@D@std@@V?$allocator@D@2@@std@@W4CommentPlacement@2@@Z ; Json::Value::setComment
$LN7@parse:

	cmp	BYTE PTR [rbx+185], 0
	je	SHORT $LN9@parse
; File d:\code\libshared\jsoncpp-src-0.5.0\src\lib_json\json_value.cpp

; 1315 :    return type_ == stringValue;

	movzx	eax, BYTE PTR [rbp+8]
	test	al, al
	je	SHORT $LN9@parse
	sub	al, 6
	cmp	al, 1
	jbe	SHORT $LN9@parse
; File d:\code\libshared\jsoncpp-src-0.5.0\src\lib_json\json_reader.cpp

	mov	DWORD PTR token$27[rsp], 13

	mov	QWORD PTR token$27[rsp+8], r14

	mov	QWORD PTR token$27[rsp+16], r15

	lea	rdx, OFFSET FLAT:??_C@_0EC@HCHNIDLM@A?5valid?5JSON?5document?5must?5be?5e@
	lea	rcx, QWORD PTR $T25[rsp]
	call	??0?$basic_string@DU?$char_traits@D@std@@V?$allocator@D@2@@std@@QEAA@QEBD@Z ; std::basic_string<char,std::char_traits<char>,std::allocator<char> >::basic_string<char,std::char_traits<char>,std::allocator<char> >
	npad	1
	xor	r9d, r9d
	lea	r8, QWORD PTR token$27[rsp]
	lea	rdx, QWORD PTR $T25[rsp]
	mov	rcx, rbx
	call	?addError@Reader@Json@@AEAA_NAEBV?$basic_string@DU?$char_traits@D@std@@V?$allocator@D@2@@std@@AEAVToken@12@PEBD@Z ; Json::Reader::addError
	npad	1
	lea	rcx, QWORD PTR $T25[rsp]
	call	??1?$basic_string@DU?$char_traits@D@std@@V?$allocator@D@2@@std@@QEAA@XZ ; std::basic_string<char,std::char_traits<char>,std::allocator<char> >::~basic_string<char,std::char_traits<char>,std::allocator<char> >

	xor	al, al

	jmp	SHORT $LN3@parse
$LN9@parse:

	movzx	eax, dil
$LN3@parse:

	mov	rcx, QWORD PTR __$ArrayPad$[rsp]
	xor	rcx, rsp
	call	__security_check_cookie
	mov	rbx, QWORD PTR [rsp+184]
	add	rsp, 112				; 00000070H
	pop	r15
	pop	r14
	pop	rdi
	pop	rsi
	pop	rbp
	ret	0
?parse@Reader@Json@@QEAA_NAEBV?$basic_string@DU?$char_traits@D@std@@V?$allocator@D@2@@std@@AEAVValue@2@_N@Z ENDP ; Json::Reader::parse
_TEXT	ENDS
;	COMDAT text$x
text$x	SEGMENT
token$27 = 32
$T24 = 56
$T28 = 64
$T25 = 72
__$ArrayPad$ = 104
this$ = 160
document$ = 168
root$ = 176
collectComments$ = 184
?dtor$0@?0??parse@Reader@Json@@QEAA_NAEBV?$basic_string@DU?$char_traits@D@std@@V?$allocator@D@2@@std@@AEAVValue@2@_N@Z@4HA PROC ; `Json::Reader::parse'::`1'::dtor$0
	lea	rcx, QWORD PTR $T25[rdx]
	jmp	??1?$basic_string@DU?$char_traits@D@std@@V?$allocator@D@2@@std@@QEAA@XZ ; std::basic_string<char,std::char_traits<char>,std::allocator<char> >::~basic_string<char,std::char_traits<char>,std::allocator<char> >
?dtor$0@?0??parse@Reader@Json@@QEAA_NAEBV?$basic_string@DU?$char_traits@D@std@@V?$allocator@D@2@@std@@AEAVValue@2@_N@Z@4HA ENDP ; `Json::Reader::parse'::`1'::dtor$0
text$x	ENDS
; Function compile flags: /Ogtpy
;	COMDAT text$x
text$x	SEGMENT
token$27 = 32
$T24 = 56
$T28 = 64
$T25 = 72
__$ArrayPad$ = 104
this$ = 160
document$ = 168
root$ = 176
collectComments$ = 184
?dtor$0@?0??parse@Reader@Json@@QEAA_NAEBV?$basic_string@DU?$char_traits@D@std@@V?$allocator@D@2@@std@@AEAVValue@2@_N@Z@4HA PROC ; `Json::Reader::parse'::`1'::dtor$0
	lea	rcx, QWORD PTR $T25[rdx]
	jmp	??1?$basic_string@DU?$char_traits@D@std@@V?$allocator@D@2@@std@@QEAA@XZ ; std::basic_string<char,std::char_traits<char>,std::allocator<char> >::~basic_string<char,std::char_traits<char>,std::allocator<char> >
?dtor$0@?0??parse@Reader@Json@@QEAA_NAEBV?$basic_string@DU?$char_traits@D@std@@V?$allocator@D@2@@std@@AEAVValue@2@_N@Z@4HA ENDP ; `Json::Reader::parse'::`1'::dtor$0
text$x	ENDS
; Function compile flags: /Ogtpy
; File d:\code\libshared\jsoncpp-src-0.5.0\src\lib_json\json_reader.cpp
; File c:\program files (x86)\microsoft visual studio\2017\enterprise\vc\tools\msvc\14.16.27023\include\deque
; File d:\code\libshared\jsoncpp-src-0.5.0\src\lib_json\json_reader.cpp
; File c:\program files (x86)\microsoft visual studio\2017\enterprise\vc\tools\msvc\14.16.27023\include\deque
; File d:\code\libshared\jsoncpp-src-0.5.0\src\lib_json\json_reader.cpp
; File d:\code\libshared\jsoncpp-src-0.5.0\src\lib_json\json_value.cpp
; File d:\code\libshared\jsoncpp-src-0.5.0\src\lib_json\json_reader.cpp
;	COMDAT ?parse@Reader@Json@@QEAA_NPEBD0AEAVValue@2@_N@Z
_TEXT	SEGMENT
token$ = 32
$T24 = 56
$T26 = 64
$T25 = 72
__$ArrayPad$ = 104
this$ = 176
beginDoc$ = 184
endDoc$ = 192
root$ = 200
collectComments$ = 208
?parse@Reader@Json@@QEAA_NPEBD0AEAVValue@2@_N@Z PROC	; Json::Reader::parse, COMDAT

$LN100:
	push	rbx
	push	rbp
	push	rsi
	push	rdi
	push	r14
	push	r15
	sub	rsp, 120				; 00000078H
	mov	QWORD PTR $T26[rsp], -2
	mov	rax, QWORD PTR __security_cookie
	xor	rax, rsp
	mov	QWORD PTR __$ArrayPad$[rsp], rax
	mov	rsi, r9
	mov	r15, r8
	mov	r14, rdx
	mov	rbx, rcx

	mov	QWORD PTR [rcx+112], rdx

	mov	QWORD PTR [rcx+120], r8

	xor	edi, edi
	mov	ecx, edi
	movzx	eax, BYTE PTR collectComments$[rsp]
	cmp	BYTE PTR [rbx+184], cl
	cmovne	ecx, eax

	mov	BYTE PTR [rbx+186], cl

	mov	QWORD PTR [rbx+128], rdx

	mov	QWORD PTR [rbx+136], rdi

	mov	QWORD PTR [rbx+144], rdi

	lea	rdx, OFFSET FLAT:??_C@_00CNPNBAHC@@
	lea	rcx, QWORD PTR [rbx+152]
	call	??4?$basic_string@DU?$char_traits@D@std@@V?$allocator@D@2@@std@@QEAAAEAV01@QEBD@Z ; std::basic_string<char,std::char_traits<char>,std::allocator<char> >::operator=
	npad	1

	lea	rcx, QWORD PTR [rbx+40]
; File c:\program files (x86)\microsoft visual studio\2017\enterprise\vc\tools\msvc\14.16.27023\include\deque

; 1690 : 		_Tidy();

	call	?_Tidy@?$deque@VErrorInfo@Reader@Json@@V?$allocator@VErrorInfo@Reader@Json@@@std@@@std@@IEAAXXZ ; std::deque<Json::Reader::ErrorInfo,std::allocator<Json::Reader::ErrorInfo> >::_Tidy
	npad	1

; 1377 : 		return (this->_Mysize() == 0);

	mov	rax, QWORD PTR [rbx+32]
; File d:\code\libshared\jsoncpp-src-0.5.0\src\lib_json\json_reader.cpp

	test	rax, rax
	je	SHORT $LN3@parse
$LL2@parse:
; File c:\program files (x86)\microsoft visual studio\2017\enterprise\vc\tools\msvc\14.16.27023\include\deque

; 1518 : 		if (--this->_Mysize() == 0)

	sub	rax, 1
	mov	QWORD PTR [rbx+32], rax
	jne	SHORT $LN26@parse

; 1519 : 			{
; 1520 : 			this->_Myoff() = 0;

	mov	QWORD PTR [rbx+24], rdi
$LN26@parse:
; File d:\code\libshared\jsoncpp-src-0.5.0\src\lib_json\json_reader.cpp

	test	rax, rax
	jne	SHORT $LL2@parse
$LN3@parse:

	mov	QWORD PTR $T24[rsp], rsi
	lea	rdx, QWORD PTR $T24[rsp]
	mov	rcx, rbx
	call	?push@?$stack@PEAVValue@Json@@V?$deque@PEAVValue@Json@@V?$allocator@PEAVValue@Json@@@std@@@std@@@std@@QEAAX$$QEAPEAVValue@Json@@@Z ; std::stack<Json::Value *,std::deque<Json::Value *,std::allocator<Json::Value *> > >::push

	mov	rcx, rbx
	call	?readValue@Reader@Json@@AEAA_NXZ	; Json::Reader::readValue
	movzx	edi, al

	cmp	BYTE PTR [rbx+184], 0
	je	SHORT $LN78@parse
	npad	7
$LL77@parse:

	lea	rdx, QWORD PTR token$[rsp]
	mov	rcx, rbx
	call	?readToken@Reader@Json@@AEAA_NAEAVToken@12@@Z ; Json::Reader::readToken

	cmp	DWORD PTR token$[rsp], 12
	je	SHORT $LL77@parse

	jmp	SHORT $LN79@parse
$LN78@parse:

	lea	rdx, QWORD PTR token$[rsp]
	mov	rcx, rbx
	call	?readToken@Reader@Json@@AEAA_NAEAVToken@12@@Z ; Json::Reader::readToken
$LN79@parse:

	cmp	BYTE PTR [rbx+186], 0
	je	SHORT $LN5@parse
	lea	rcx, QWORD PTR [rbx+152]
	call	?empty@?$basic_string@DU?$char_traits@D@std@@V?$allocator@D@2@@std@@QEBA_NXZ ; std::basic_string<char,std::char_traits<char>,std::allocator<char> >::empty
	test	al, al
	jne	SHORT $LN5@parse

	mov	r8d, 2
	lea	rdx, QWORD PTR [rbx+152]
	mov	rcx, rsi
	call	?setComment@Value@Json@@QEAAXAEBV?$basic_string@DU?$char_traits@D@std@@V?$allocator@D@2@@std@@W4CommentPlacement@2@@Z ; Json::Value::setComment
$LN5@parse:

	cmp	BYTE PTR [rbx+185], 0
	je	SHORT $LN7@parse
; File d:\code\libshared\jsoncpp-src-0.5.0\src\lib_json\json_value.cpp

; 1315 :    return type_ == stringValue;

	movzx	eax, BYTE PTR [rsi+8]
	test	al, al
	je	SHORT $LN7@parse
	sub	al, 6
	cmp	al, 1
	jbe	SHORT $LN7@parse
; File d:\code\libshared\jsoncpp-src-0.5.0\src\lib_json\json_reader.cpp

	mov	DWORD PTR token$[rsp], 13

	mov	QWORD PTR token$[rsp+8], r14

	mov	QWORD PTR token$[rsp+16], r15

	lea	rdx, OFFSET FLAT:??_C@_0EC@HCHNIDLM@A?5valid?5JSON?5document?5must?5be?5e@
	lea	rcx, QWORD PTR $T25[rsp]
	call	??0?$basic_string@DU?$char_traits@D@std@@V?$allocator@D@2@@std@@QEAA@QEBD@Z ; std::basic_string<char,std::char_traits<char>,std::allocator<char> >::basic_string<char,std::char_traits<char>,std::allocator<char> >
	npad	1
	xor	r9d, r9d
	lea	r8, QWORD PTR token$[rsp]
	lea	rdx, QWORD PTR $T25[rsp]
	mov	rcx, rbx
	call	?addError@Reader@Json@@AEAA_NAEBV?$basic_string@DU?$char_traits@D@std@@V?$allocator@D@2@@std@@AEAVToken@12@PEBD@Z ; Json::Reader::addError
	npad	1
	lea	rcx, QWORD PTR $T25[rsp]
	call	??1?$basic_string@DU?$char_traits@D@std@@V?$allocator@D@2@@std@@QEAA@XZ ; std::basic_string<char,std::char_traits<char>,std::allocator<char> >::~basic_string<char,std::char_traits<char>,std::allocator<char> >

	xor	al, al
	jmp	SHORT $LN1@parse
$LN7@parse:

	movzx	eax, dil
$LN1@parse:

	mov	rcx, QWORD PTR __$ArrayPad$[rsp]
	xor	rcx, rsp
	call	__security_check_cookie
	add	rsp, 120				; 00000078H
	pop	r15
	pop	r14
	pop	rdi
	pop	rsi
	pop	rbp
	pop	rbx
	ret	0
?parse@Reader@Json@@QEAA_NPEBD0AEAVValue@2@_N@Z ENDP	; Json::Reader::parse
_TEXT	ENDS
;	COMDAT text$x
text$x	SEGMENT
token$ = 32
$T24 = 56
$T26 = 64
$T25 = 72
__$ArrayPad$ = 104
this$ = 176
beginDoc$ = 184
endDoc$ = 192
root$ = 200
collectComments$ = 208
?dtor$0@?0??parse@Reader@Json@@QEAA_NPEBD0AEAVValue@2@_N@Z@4HA PROC ; `Json::Reader::parse'::`1'::dtor$0
	lea	rcx, QWORD PTR $T25[rdx]
	jmp	??1?$basic_string@DU?$char_traits@D@std@@V?$allocator@D@2@@std@@QEAA@XZ ; std::basic_string<char,std::char_traits<char>,std::allocator<char> >::~basic_string<char,std::char_traits<char>,std::allocator<char> >
?dtor$0@?0??parse@Reader@Json@@QEAA_NPEBD0AEAVValue@2@_N@Z@4HA ENDP ; `Json::Reader::parse'::`1'::dtor$0
text$x	ENDS
; Function compile flags: /Ogtpy
;	COMDAT text$x
text$x	SEGMENT
token$ = 32
$T24 = 56
$T26 = 64
$T25 = 72
__$ArrayPad$ = 104
this$ = 176
beginDoc$ = 184
endDoc$ = 192
root$ = 200
collectComments$ = 208
?dtor$0@?0??parse@Reader@Json@@QEAA_NPEBD0AEAVValue@2@_N@Z@4HA PROC ; `Json::Reader::parse'::`1'::dtor$0
	lea	rcx, QWORD PTR $T25[rdx]
	jmp	??1?$basic_string@DU?$char_traits@D@std@@V?$allocator@D@2@@std@@QEAA@XZ ; std::basic_string<char,std::char_traits<char>,std::allocator<char> >::~basic_string<char,std::char_traits<char>,std::allocator<char> >
?dtor$0@?0??parse@Reader@Json@@QEAA_NPEBD0AEAVValue@2@_N@Z@4HA ENDP ; `Json::Reader::parse'::`1'::dtor$0
text$x	ENDS
; Function compile flags: /Ogtpy
; File d:\code\libshared\jsoncpp-src-0.5.0\src\lib_json\json_reader.cpp
; File c:\program files (x86)\microsoft visual studio\2017\enterprise\vc\tools\msvc\14.16.27023\include\deque
; File c:\program files (x86)\microsoft visual studio\2017\enterprise\vc\tools\msvc\14.16.27023\include\xutility
; File c:\program files (x86)\microsoft visual studio\2017\enterprise\vc\tools\msvc\14.16.27023\include\deque
; File c:\program files (x86)\microsoft visual studio\2017\enterprise\vc\tools\msvc\14.16.27023\include\xutility
; File c:\program files (x86)\microsoft visual studio\2017\enterprise\vc\tools\msvc\14.16.27023\include\deque
; File d:\code\libshared\jsoncpp-src-0.5.0\src\lib_json\json_reader.cpp
; File d:\code\libshared\jsoncpp-src-0.5.0\src\lib_json\json_value.cpp
; File c:\program files (x86)\microsoft visual studio\2017\enterprise\vc\tools\msvc\14.16.27023\include\deque
; File c:\program files (x86)\microsoft visual studio\2017\enterprise\vc\tools\msvc\14.16.27023\include\xutility
; File c:\program files (x86)\microsoft visual studio\2017\enterprise\vc\tools\msvc\14.16.27023\include\deque
; File c:\program files (x86)\microsoft visual studio\2017\enterprise\vc\tools\msvc\14.16.27023\include\xutility
; File c:\program files (x86)\microsoft visual studio\2017\enterprise\vc\tools\msvc\14.16.27023\include\deque
; File d:\code\libshared\jsoncpp-src-0.5.0\src\lib_json\json_reader.cpp
; File d:\code\libshared\jsoncpp-src-0.5.0\src\lib_json\json_value.cpp
; File c:\program files (x86)\microsoft visual studio\2017\enterprise\vc\tools\msvc\14.16.27023\include\deque
; File c:\program files (x86)\microsoft visual studio\2017\enterprise\vc\tools\msvc\14.16.27023\include\xutility
; File c:\program files (x86)\microsoft visual studio\2017\enterprise\vc\tools\msvc\14.16.27023\include\deque
; File c:\program files (x86)\microsoft visual studio\2017\enterprise\vc\tools\msvc\14.16.27023\include\xutility
; File c:\program files (x86)\microsoft visual studio\2017\enterprise\vc\tools\msvc\14.16.27023\include\deque
; File d:\code\libshared\jsoncpp-src-0.5.0\src\lib_json\json_reader.cpp
; File d:\code\libshared\jsoncpp-src-0.5.0\src\lib_json\json_value.cpp
; File c:\program files (x86)\microsoft visual studio\2017\enterprise\vc\tools\msvc\14.16.27023\include\deque
; File c:\program files (x86)\microsoft visual studio\2017\enterprise\vc\tools\msvc\14.16.27023\include\xutility
; File c:\program files (x86)\microsoft visual studio\2017\enterprise\vc\tools\msvc\14.16.27023\include\deque
; File c:\program files (x86)\microsoft visual studio\2017\enterprise\vc\tools\msvc\14.16.27023\include\xutility
; File c:\program files (x86)\microsoft visual studio\2017\enterprise\vc\tools\msvc\14.16.27023\include\deque
; File d:\code\libshared\jsoncpp-src-0.5.0\src\lib_json\json_reader.cpp
; File c:\program files (x86)\microsoft visual studio\2017\enterprise\vc\tools\msvc\14.16.27023\include\deque
; File c:\program files (x86)\microsoft visual studio\2017\enterprise\vc\tools\msvc\14.16.27023\include\xutility
; File c:\program files (x86)\microsoft visual studio\2017\enterprise\vc\tools\msvc\14.16.27023\include\deque
; File c:\program files (x86)\microsoft visual studio\2017\enterprise\vc\tools\msvc\14.16.27023\include\xutility
; File c:\program files (x86)\microsoft visual studio\2017\enterprise\vc\tools\msvc\14.16.27023\include\deque
; File d:\code\libshared\jsoncpp-src-0.5.0\src\lib_json\json_reader.cpp
; File c:\program files (x86)\microsoft visual studio\2017\enterprise\vc\tools\msvc\14.16.27023\include\deque
; File d:\code\libshared\jsoncpp-src-0.5.0\src\lib_json\json_reader.cpp
;	COMDAT ?readValue@Reader@Json@@AEAA_NXZ
_TEXT	SEGMENT
$T45 = 32
$T30 = 32
$T15 = 32
token$ = 32
$T87 = 56
$T66 = 64
__$ArrayPad$ = 96
this$ = 144
?readValue@Reader@Json@@AEAA_NXZ PROC			; Json::Reader::readValue, COMDAT

$LN652:
	mov	rax, rsp
	push	rbp
	push	r14
	push	r15
	mov	rbp, rsp
	sub	rsp, 112				; 00000070H
	mov	QWORD PTR $T87[rbp-112], -2
	mov	QWORD PTR [rax+16], rbx
	mov	QWORD PTR [rax+24], rsi
	mov	QWORD PTR [rax+32], rdi
	mov	rax, QWORD PTR __security_cookie
	xor	rax, rsp
	mov	QWORD PTR __$ArrayPad$[rbp-112], rax
	mov	rbx, rcx

	cmp	BYTE PTR [rcx+184], 0
	je	SHORT $LN23@readValue
	npad	3
$LL22@readValue:

	lea	rdx, QWORD PTR token$[rbp-112]
	mov	rcx, rbx
	call	?readToken@Reader@Json@@AEAA_NAEAVToken@12@@Z ; Json::Reader::readToken

	mov	esi, DWORD PTR token$[rbp-112]
	cmp	esi, 12
	je	SHORT $LL22@readValue

	jmp	SHORT $LN24@readValue
$LN23@readValue:

	lea	rdx, QWORD PTR token$[rbp-112]
	call	?readToken@Reader@Json@@AEAA_NAEAVToken@12@@Z ; Json::Reader::readToken
	mov	esi, DWORD PTR token$[rbp-112]
$LN24@readValue:

	mov	r14b, 1

	xor	edi, edi
	cmp	BYTE PTR [rbx+186], dil
	je	$LN4@readValue
	lea	rcx, QWORD PTR [rbx+152]
	call	?empty@?$basic_string@DU?$char_traits@D@std@@V?$allocator@D@2@@std@@QEBA_NXZ ; std::basic_string<char,std::char_traits<char>,std::allocator<char> >::empty
	test	al, al
	jne	$LN4@readValue
; File c:\program files (x86)\microsoft visual studio\2017\enterprise\vc\tools\msvc\14.16.27023\include\deque

; 1244 : 		return (iterator(this->_Myoff() + this->_Mysize(),

	mov	rcx, QWORD PTR [rbx+24]
	add	rcx, QWORD PTR [rbx+32]
; File c:\program files (x86)\microsoft visual studio\2017\enterprise\vc\tools\msvc\14.16.27023\include\xutility

; 170  : 			_Myproxy = _Parent_proxy;

	mov	rdx, QWORD PTR [rbx]

; 113  : 		: _Myproxy(nullptr), _Mynextiter(nullptr)

	mov	eax, edi
	test	rdx, rdx

; 120  : 		if (_Myproxy != _Right._Myproxy)

	je	SHORT $LN82@readValue

; 121  : 			{
; 122  : 			if (_Right._Myproxy == nullptr)
; 123  : 				{	// becoming invalid, disown current parent
; 124  :  #if _ITERATOR_DEBUG_LEVEL == 2
; 125  : 				_Lockit _Lock(_LOCK_DEBUG);
; 126  : 				_Orphan_me();
; 127  :  #endif /* _ITERATOR_DEBUG_LEVEL == 2 */
; 128  : 				}
; 129  : 			else
; 130  : 				{
; 131  : 				_Adopt(_Right._Myproxy->_Mycont);

	mov	rdx, QWORD PTR [rdx]

; 148  : 		if (_Parent == nullptr)

	test	rdx, rdx
	je	SHORT $LN82@readValue

; 170  : 			_Myproxy = _Parent_proxy;

	mov	rax, QWORD PTR [rdx]
$LN82@readValue:
; File c:\program files (x86)\microsoft visual studio\2017\enterprise\vc\tools\msvc\14.16.27023\include\deque

; 571  : 		this->_Myoff += _Off;

	lea	r9, QWORD PTR [rcx-1]
; File c:\program files (x86)\microsoft visual studio\2017\enterprise\vc\tools\msvc\14.16.27023\include\xutility

; 120  : 		if (_Myproxy != _Right._Myproxy)

	test	rax, rax
	je	SHORT $LN643@readValue

; 121  : 			{
; 122  : 			if (_Right._Myproxy == nullptr)
; 123  : 				{	// becoming invalid, disown current parent
; 124  :  #if _ITERATOR_DEBUG_LEVEL == 2
; 125  : 				_Lockit _Lock(_LOCK_DEBUG);
; 126  : 				_Orphan_me();
; 127  :  #endif /* _ITERATOR_DEBUG_LEVEL == 2 */
; 128  : 				}
; 129  : 			else
; 130  : 				{
; 131  : 				_Adopt(_Right._Myproxy->_Mycont);

	mov	rcx, QWORD PTR [rax]

; 148  : 		if (_Parent == nullptr)

	test	rcx, rcx
	je	SHORT $LN643@readValue

; 170  : 			_Myproxy = _Parent_proxy;

	mov	rax, QWORD PTR [rcx]

; 182  : 		return (_Myproxy == nullptr ? nullptr : _Myproxy->_Mycont);

	test	rax, rax
	je	SHORT $LN643@readValue
	mov	rdx, QWORD PTR [rax]
	jmp	SHORT $LN120@readValue
$LN643@readValue:
	mov	rdx, rdi
$LN120@readValue:
; File c:\program files (x86)\microsoft visual studio\2017\enterprise\vc\tools\msvc\14.16.27023\include\deque

; 690  : 		return ((_Off / _DEQUESIZ) & (_Mapsize - 1));

	mov	rcx, QWORD PTR [rdx+16]
	dec	rcx
	mov	rax, r9
	shr	rax, 1
	and	rcx, rax

; 322  : 		_Size_type _Off = _Myoff % _DEQUESIZ;

	and	r9d, 1

; 323  : 		return (_Mycont->_Map[_Block][_Off]);

	mov	rax, QWORD PTR [rdx+8]
	mov	rcx, QWORD PTR [rax+rcx*8]
; File d:\code\libshared\jsoncpp-src-0.5.0\src\lib_json\json_reader.cpp

	xor	r8d, r8d
	lea	rdx, QWORD PTR [rbx+152]
	mov	rcx, QWORD PTR [rcx+r9*8]
	call	?setComment@Value@Json@@QEAAXAEBV?$basic_string@DU?$char_traits@D@std@@V?$allocator@D@2@@std@@W4CommentPlacement@2@@Z ; Json::Value::setComment

	lea	rdx, OFFSET FLAT:??_C@_00CNPNBAHC@@
	lea	rcx, QWORD PTR [rbx+152]
	call	??4?$basic_string@DU?$char_traits@D@std@@V?$allocator@D@2@@std@@QEAAAEAV01@QEBD@Z ; std::basic_string<char,std::char_traits<char>,std::allocator<char> >::operator=
$LN4@readValue:

	dec	esi
	cmp	esi, 8
	ja	$LN12@readValue
	movsxd	rax, esi
	lea	rdx, OFFSET FLAT:__ImageBase
	mov	ecx, DWORD PTR $LN648@readValue[rdx+rax*4]
	add	rcx, rdx
	jmp	rcx
$LN5@readValue:

	mov	rcx, rbx
	call	?readObject@Reader@Json@@AEAA_NAEAVToken@12@@Z ; Json::Reader::readObject
	movzx	r14d, al

	jmp	$LN2@readValue
$LN6@readValue:

	mov	rcx, rbx
	call	?readArray@Reader@Json@@AEAA_NAEAVToken@12@@Z ; Json::Reader::readArray
	movzx	r14d, al

	jmp	$LN2@readValue
$LN7@readValue:

	lea	rdx, QWORD PTR token$[rbp-112]
	mov	rcx, rbx
	call	?decodeNumber@Reader@Json@@AEAA_NAEAVToken@12@@Z ; Json::Reader::decodeNumber
	movzx	r14d, al

	jmp	$LN2@readValue
$LN8@readValue:

	lea	rdx, QWORD PTR token$[rbp-112]
	mov	rcx, rbx
	call	?decodeString@Reader@Json@@AEAA_NAEAVToken@12@@Z ; Json::Reader::decodeString
	movzx	r14d, al

	jmp	$LN2@readValue
$LN9@readValue:
; File d:\code\libshared\jsoncpp-src-0.5.0\src\lib_json\json_value.cpp

; 408  : #endif

	mov	eax, DWORD PTR $T15[rbp-104]
	and	eax, -251				; ffffffffffffff05H
	or	eax, 5
	mov	DWORD PTR $T15[rbp-104], eax

; 409  : {

	mov	QWORD PTR $T15[rbp-96], rdi

; 410  :    value_.string_ = valueAllocator()->duplicateStringValue( value, value.length() );
; 411  : }
; 412  : # endif
; 413  : 
; 414  : Value::Value( bool value )

	mov	BYTE PTR $T15[rbp-112], 1
; File c:\program files (x86)\microsoft visual studio\2017\enterprise\vc\tools\msvc\14.16.27023\include\deque

; 1244 : 		return (iterator(this->_Myoff() + this->_Mysize(),

	mov	rdx, QWORD PTR [rbx+24]
	add	rdx, QWORD PTR [rbx+32]
; File c:\program files (x86)\microsoft visual studio\2017\enterprise\vc\tools\msvc\14.16.27023\include\xutility

; 170  : 			_Myproxy = _Parent_proxy;

	mov	rcx, QWORD PTR [rbx]

; 113  : 		: _Myproxy(nullptr), _Mynextiter(nullptr)

	mov	rax, rdi
	test	rcx, rcx

; 120  : 		if (_Myproxy != _Right._Myproxy)

	je	SHORT $LN197@readValue

; 121  : 			{
; 122  : 			if (_Right._Myproxy == nullptr)
; 123  : 				{	// becoming invalid, disown current parent
; 124  :  #if _ITERATOR_DEBUG_LEVEL == 2
; 125  : 				_Lockit _Lock(_LOCK_DEBUG);
; 126  : 				_Orphan_me();
; 127  :  #endif /* _ITERATOR_DEBUG_LEVEL == 2 */
; 128  : 				}
; 129  : 			else
; 130  : 				{
; 131  : 				_Adopt(_Right._Myproxy->_Mycont);

	mov	rcx, QWORD PTR [rcx]

; 148  : 		if (_Parent == nullptr)

	test	rcx, rcx
	je	SHORT $LN197@readValue

; 170  : 			_Myproxy = _Parent_proxy;

	mov	rax, QWORD PTR [rcx]
$LN197@readValue:
; File c:\program files (x86)\microsoft visual studio\2017\enterprise\vc\tools\msvc\14.16.27023\include\deque

; 571  : 		this->_Myoff += _Off;

	lea	r8, QWORD PTR [rdx-1]
; File c:\program files (x86)\microsoft visual studio\2017\enterprise\vc\tools\msvc\14.16.27023\include\xutility

; 120  : 		if (_Myproxy != _Right._Myproxy)

	test	rax, rax
	je	SHORT $LN644@readValue

; 121  : 			{
; 122  : 			if (_Right._Myproxy == nullptr)
; 123  : 				{	// becoming invalid, disown current parent
; 124  :  #if _ITERATOR_DEBUG_LEVEL == 2
; 125  : 				_Lockit _Lock(_LOCK_DEBUG);
; 126  : 				_Orphan_me();
; 127  :  #endif /* _ITERATOR_DEBUG_LEVEL == 2 */
; 128  : 				}
; 129  : 			else
; 130  : 				{
; 131  : 				_Adopt(_Right._Myproxy->_Mycont);

	mov	rcx, QWORD PTR [rax]

; 148  : 		if (_Parent == nullptr)

	test	rcx, rcx
	je	SHORT $LN644@readValue

; 170  : 			_Myproxy = _Parent_proxy;

	mov	rax, QWORD PTR [rcx]

; 182  : 		return (_Myproxy == nullptr ? nullptr : _Myproxy->_Mycont);

	test	rax, rax
	je	SHORT $LN644@readValue
	mov	rdx, QWORD PTR [rax]
	jmp	SHORT $LN235@readValue
$LN644@readValue:
	mov	rdx, rdi
$LN235@readValue:
; File c:\program files (x86)\microsoft visual studio\2017\enterprise\vc\tools\msvc\14.16.27023\include\deque

; 690  : 		return ((_Off / _DEQUESIZ) & (_Mapsize - 1));

	mov	rcx, QWORD PTR [rdx+16]
	dec	rcx
	mov	rax, r8
	shr	rax, 1
	and	rcx, rax

; 322  : 		_Size_type _Off = _Myoff % _DEQUESIZ;

	and	r8d, 1

; 323  : 		return (_Mycont->_Map[_Block][_Off]);

	mov	rax, QWORD PTR [rdx+8]
	mov	rcx, QWORD PTR [rax+rcx*8]
; File d:\code\libshared\jsoncpp-src-0.5.0\src\lib_json\json_reader.cpp

	lea	rdx, QWORD PTR $T15[rbp-112]
	mov	rcx, QWORD PTR [rcx+r8*8]
	call	??4Value@Json@@QEAAAEAV01@AEBV01@@Z	; Json::Value::operator=
	npad	1

	jmp	$LN649@readValue
$LN10@readValue:
; File d:\code\libshared\jsoncpp-src-0.5.0\src\lib_json\json_value.cpp

; 408  : #endif

	mov	eax, DWORD PTR $T30[rbp-104]
	and	eax, -251				; ffffffffffffff05H
	or	eax, 5
	mov	DWORD PTR $T30[rbp-104], eax

; 409  : {

	mov	QWORD PTR $T30[rbp-96], rdi

; 410  :    value_.string_ = valueAllocator()->duplicateStringValue( value, value.length() );
; 411  : }
; 412  : # endif
; 413  : 
; 414  : Value::Value( bool value )

	mov	BYTE PTR $T30[rbp-112], dil
; File c:\program files (x86)\microsoft visual studio\2017\enterprise\vc\tools\msvc\14.16.27023\include\deque

; 1244 : 		return (iterator(this->_Myoff() + this->_Mysize(),

	mov	rdx, QWORD PTR [rbx+32]
	add	rdx, QWORD PTR [rbx+24]
; File c:\program files (x86)\microsoft visual studio\2017\enterprise\vc\tools\msvc\14.16.27023\include\xutility

; 170  : 			_Myproxy = _Parent_proxy;

	mov	rcx, QWORD PTR [rbx]

; 113  : 		: _Myproxy(nullptr), _Mynextiter(nullptr)

	mov	rax, rdi
	test	rcx, rcx

; 120  : 		if (_Myproxy != _Right._Myproxy)

	je	SHORT $LN312@readValue

; 121  : 			{
; 122  : 			if (_Right._Myproxy == nullptr)
; 123  : 				{	// becoming invalid, disown current parent
; 124  :  #if _ITERATOR_DEBUG_LEVEL == 2
; 125  : 				_Lockit _Lock(_LOCK_DEBUG);
; 126  : 				_Orphan_me();
; 127  :  #endif /* _ITERATOR_DEBUG_LEVEL == 2 */
; 128  : 				}
; 129  : 			else
; 130  : 				{
; 131  : 				_Adopt(_Right._Myproxy->_Mycont);

	mov	rcx, QWORD PTR [rcx]

; 148  : 		if (_Parent == nullptr)

	test	rcx, rcx
	je	SHORT $LN312@readValue

; 170  : 			_Myproxy = _Parent_proxy;

	mov	rax, QWORD PTR [rcx]
$LN312@readValue:
; File c:\program files (x86)\microsoft visual studio\2017\enterprise\vc\tools\msvc\14.16.27023\include\deque

; 571  : 		this->_Myoff += _Off;

	lea	r8, QWORD PTR [rdx-1]
; File c:\program files (x86)\microsoft visual studio\2017\enterprise\vc\tools\msvc\14.16.27023\include\xutility

; 120  : 		if (_Myproxy != _Right._Myproxy)

	test	rax, rax
	je	SHORT $LN645@readValue

; 121  : 			{
; 122  : 			if (_Right._Myproxy == nullptr)
; 123  : 				{	// becoming invalid, disown current parent
; 124  :  #if _ITERATOR_DEBUG_LEVEL == 2
; 125  : 				_Lockit _Lock(_LOCK_DEBUG);
; 126  : 				_Orphan_me();
; 127  :  #endif /* _ITERATOR_DEBUG_LEVEL == 2 */
; 128  : 				}
; 129  : 			else
; 130  : 				{
; 131  : 				_Adopt(_Right._Myproxy->_Mycont);

	mov	rcx, QWORD PTR [rax]

; 148  : 		if (_Parent == nullptr)

	test	rcx, rcx
	je	SHORT $LN645@readValue

; 170  : 			_Myproxy = _Parent_proxy;

	mov	rax, QWORD PTR [rcx]

; 182  : 		return (_Myproxy == nullptr ? nullptr : _Myproxy->_Mycont);

	test	rax, rax
	je	SHORT $LN645@readValue
	mov	rdx, QWORD PTR [rax]
	jmp	SHORT $LN350@readValue
$LN645@readValue:
	mov	rdx, rdi
$LN350@readValue:
; File c:\program files (x86)\microsoft visual studio\2017\enterprise\vc\tools\msvc\14.16.27023\include\deque

; 690  : 		return ((_Off / _DEQUESIZ) & (_Mapsize - 1));

	mov	rcx, QWORD PTR [rdx+16]
	dec	rcx
	mov	rax, r8
	shr	rax, 1
	and	rcx, rax

; 322  : 		_Size_type _Off = _Myoff % _DEQUESIZ;

	and	r8d, 1

; 323  : 		return (_Mycont->_Map[_Block][_Off]);

	mov	rax, QWORD PTR [rdx+8]
	mov	rcx, QWORD PTR [rax+rcx*8]
; File d:\code\libshared\jsoncpp-src-0.5.0\src\lib_json\json_reader.cpp

	lea	rdx, QWORD PTR $T30[rbp-112]
	mov	rcx, QWORD PTR [rcx+r8*8]
	call	??4Value@Json@@QEAAAEAV01@AEBV01@@Z	; Json::Value::operator=
	npad	1

	jmp	SHORT $LN649@readValue
$LN11@readValue:
; File d:\code\libshared\jsoncpp-src-0.5.0\src\lib_json\json_value.cpp

; 270  : 

	and	DWORD PTR $T45[rbp-104], -512		; fffffffffffffe00H

; 271  : /*! \internal Default constructor initialization must be equivalent to:

	mov	QWORD PTR $T45[rbp-96], rdi
; File c:\program files (x86)\microsoft visual studio\2017\enterprise\vc\tools\msvc\14.16.27023\include\deque

; 1244 : 		return (iterator(this->_Myoff() + this->_Mysize(),

	mov	rcx, QWORD PTR [rbx+24]
	add	rcx, QWORD PTR [rbx+32]
; File c:\program files (x86)\microsoft visual studio\2017\enterprise\vc\tools\msvc\14.16.27023\include\xutility

; 170  : 			_Myproxy = _Parent_proxy;

	mov	rdx, QWORD PTR [rbx]

; 113  : 		: _Myproxy(nullptr), _Mynextiter(nullptr)

	mov	rax, rdi
	test	rdx, rdx

; 120  : 		if (_Myproxy != _Right._Myproxy)

	je	SHORT $LN465@readValue

; 121  : 			{
; 122  : 			if (_Right._Myproxy == nullptr)
; 123  : 				{	// becoming invalid, disown current parent
; 124  :  #if _ITERATOR_DEBUG_LEVEL == 2
; 125  : 				_Lockit _Lock(_LOCK_DEBUG);
; 126  : 				_Orphan_me();
; 127  :  #endif /* _ITERATOR_DEBUG_LEVEL == 2 */
; 128  : 				}
; 129  : 			else
; 130  : 				{
; 131  : 				_Adopt(_Right._Myproxy->_Mycont);

	mov	rdx, QWORD PTR [rdx]

; 148  : 		if (_Parent == nullptr)

	test	rdx, rdx
	je	SHORT $LN465@readValue

; 170  : 			_Myproxy = _Parent_proxy;

	mov	rax, QWORD PTR [rdx]
$LN465@readValue:
; File c:\program files (x86)\microsoft visual studio\2017\enterprise\vc\tools\msvc\14.16.27023\include\deque

; 571  : 		this->_Myoff += _Off;

	lea	r8, QWORD PTR [rcx-1]
; File c:\program files (x86)\microsoft visual studio\2017\enterprise\vc\tools\msvc\14.16.27023\include\xutility

; 120  : 		if (_Myproxy != _Right._Myproxy)

	test	rax, rax
	je	SHORT $LN646@readValue

; 121  : 			{
; 122  : 			if (_Right._Myproxy == nullptr)
; 123  : 				{	// becoming invalid, disown current parent
; 124  :  #if _ITERATOR_DEBUG_LEVEL == 2
; 125  : 				_Lockit _Lock(_LOCK_DEBUG);
; 126  : 				_Orphan_me();
; 127  :  #endif /* _ITERATOR_DEBUG_LEVEL == 2 */
; 128  : 				}
; 129  : 			else
; 130  : 				{
; 131  : 				_Adopt(_Right._Myproxy->_Mycont);

	mov	rcx, QWORD PTR [rax]

; 148  : 		if (_Parent == nullptr)

	test	rcx, rcx
	je	SHORT $LN646@readValue

; 170  : 			_Myproxy = _Parent_proxy;

	mov	rax, QWORD PTR [rcx]

; 182  : 		return (_Myproxy == nullptr ? nullptr : _Myproxy->_Mycont);

	test	rax, rax
	je	SHORT $LN646@readValue
	mov	rdx, QWORD PTR [rax]
	jmp	SHORT $LN503@readValue
$LN646@readValue:
	mov	rdx, rdi
$LN503@readValue:
; File c:\program files (x86)\microsoft visual studio\2017\enterprise\vc\tools\msvc\14.16.27023\include\deque

; 690  : 		return ((_Off / _DEQUESIZ) & (_Mapsize - 1));

	mov	rcx, QWORD PTR [rdx+16]
	dec	rcx
	mov	rax, r8
	shr	rax, 1
	and	rcx, rax

; 322  : 		_Size_type _Off = _Myoff % _DEQUESIZ;

	and	r8d, 1

; 323  : 		return (_Mycont->_Map[_Block][_Off]);

	mov	rax, QWORD PTR [rdx+8]
	mov	rcx, QWORD PTR [rax+rcx*8]
; File d:\code\libshared\jsoncpp-src-0.5.0\src\lib_json\json_reader.cpp

	lea	rdx, QWORD PTR $T45[rbp-112]
	mov	rcx, QWORD PTR [rcx+r8*8]
	call	??4Value@Json@@QEAAAEAV01@AEBV01@@Z	; Json::Value::operator=
	npad	1
$LN649@readValue:

	lea	rcx, QWORD PTR $T45[rbp-112]
	call	??1Value@Json@@QEAA@XZ			; Json::Value::~Value
$LN2@readValue:
	cmp	BYTE PTR [rbx+186], 0
	je	SHORT $LN13@readValue

	mov	rax, QWORD PTR [rbx+128]
	mov	QWORD PTR [rbx+136], rax
; File c:\program files (x86)\microsoft visual studio\2017\enterprise\vc\tools\msvc\14.16.27023\include\deque

; 1244 : 		return (iterator(this->_Myoff() + this->_Mysize(),

	mov	rdx, QWORD PTR [rbx+32]
	dec	rdx
; File c:\program files (x86)\microsoft visual studio\2017\enterprise\vc\tools\msvc\14.16.27023\include\xutility

; 170  : 			_Myproxy = _Parent_proxy;

	mov	rcx, QWORD PTR [rbx]

; 113  : 		: _Myproxy(nullptr), _Mynextiter(nullptr)

	mov	rax, rdi
	test	rcx, rcx

; 120  : 		if (_Myproxy != _Right._Myproxy)

	je	SHORT $LN578@readValue

; 121  : 			{
; 122  : 			if (_Right._Myproxy == nullptr)
; 123  : 				{	// becoming invalid, disown current parent
; 124  :  #if _ITERATOR_DEBUG_LEVEL == 2
; 125  : 				_Lockit _Lock(_LOCK_DEBUG);
; 126  : 				_Orphan_me();
; 127  :  #endif /* _ITERATOR_DEBUG_LEVEL == 2 */
; 128  : 				}
; 129  : 			else
; 130  : 				{
; 131  : 				_Adopt(_Right._Myproxy->_Mycont);

	mov	rcx, QWORD PTR [rcx]

; 148  : 		if (_Parent == nullptr)

	test	rcx, rcx
	je	SHORT $LN578@readValue

; 170  : 			_Myproxy = _Parent_proxy;

	mov	rax, QWORD PTR [rcx]
$LN578@readValue:
; File c:\program files (x86)\microsoft visual studio\2017\enterprise\vc\tools\msvc\14.16.27023\include\deque

; 571  : 		this->_Myoff += _Off;

	add	rdx, QWORD PTR [rbx+24]
; File c:\program files (x86)\microsoft visual studio\2017\enterprise\vc\tools\msvc\14.16.27023\include\xutility

; 120  : 		if (_Myproxy != _Right._Myproxy)

	test	rax, rax
	je	SHORT $LN616@readValue

; 121  : 			{
; 122  : 			if (_Right._Myproxy == nullptr)
; 123  : 				{	// becoming invalid, disown current parent
; 124  :  #if _ITERATOR_DEBUG_LEVEL == 2
; 125  : 				_Lockit _Lock(_LOCK_DEBUG);
; 126  : 				_Orphan_me();
; 127  :  #endif /* _ITERATOR_DEBUG_LEVEL == 2 */
; 128  : 				}
; 129  : 			else
; 130  : 				{
; 131  : 				_Adopt(_Right._Myproxy->_Mycont);

	mov	rax, QWORD PTR [rax]

; 148  : 		if (_Parent == nullptr)

	test	rax, rax
	je	SHORT $LN616@readValue

; 170  : 			_Myproxy = _Parent_proxy;

	mov	rax, QWORD PTR [rax]

; 182  : 		return (_Myproxy == nullptr ? nullptr : _Myproxy->_Mycont);

	test	rax, rax
	je	SHORT $LN616@readValue
	mov	rdi, QWORD PTR [rax]
$LN616@readValue:
; File c:\program files (x86)\microsoft visual studio\2017\enterprise\vc\tools\msvc\14.16.27023\include\deque

; 690  : 		return ((_Off / _DEQUESIZ) & (_Mapsize - 1));

	mov	rcx, rdx
	shr	rcx, 1
	mov	rax, QWORD PTR [rdi+16]
	dec	rax
	and	rcx, rax
; File d:\code\libshared\jsoncpp-src-0.5.0\src\lib_json\json_reader.cpp

	mov	rax, QWORD PTR [rdi+8]
; File c:\program files (x86)\microsoft visual studio\2017\enterprise\vc\tools\msvc\14.16.27023\include\deque

; 322  : 		_Size_type _Off = _Myoff % _DEQUESIZ;

	and	edx, 1
; File d:\code\libshared\jsoncpp-src-0.5.0\src\lib_json\json_reader.cpp

	mov	rax, QWORD PTR [rax+rcx*8]
	mov	rcx, QWORD PTR [rax+rdx*8]
	mov	QWORD PTR [rbx+144], rcx
$LN13@readValue:

	movzx	eax, r14b
	jmp	SHORT $LN1@readValue
$LN12@readValue:

	lea	rdx, OFFSET FLAT:??_C@_0CP@GDDNKEK@Syntax?5error?3?5value?0?5object?5or?5@
	lea	rcx, QWORD PTR $T66[rbp-112]
	call	??0?$basic_string@DU?$char_traits@D@std@@V?$allocator@D@2@@std@@QEAA@QEBD@Z ; std::basic_string<char,std::char_traits<char>,std::allocator<char> >::basic_string<char,std::char_traits<char>,std::allocator<char> >
	npad	1
	xor	r9d, r9d
	lea	r8, QWORD PTR token$[rbp-112]
	lea	rdx, QWORD PTR $T66[rbp-112]
	mov	rcx, rbx
	call	?addError@Reader@Json@@AEAA_NAEBV?$basic_string@DU?$char_traits@D@std@@V?$allocator@D@2@@std@@AEAVToken@12@PEBD@Z ; Json::Reader::addError
	movzx	ebx, al
	lea	rcx, QWORD PTR $T66[rbp-112]
	call	??1?$basic_string@DU?$char_traits@D@std@@V?$allocator@D@2@@std@@QEAA@XZ ; std::basic_string<char,std::char_traits<char>,std::allocator<char> >::~basic_string<char,std::char_traits<char>,std::allocator<char> >
	movzx	eax, bl
$LN1@readValue:

	mov	rcx, QWORD PTR __$ArrayPad$[rbp-112]
	xor	rcx, rsp
	call	__security_check_cookie
	lea	r11, QWORD PTR [rsp+112]
	mov	rbx, QWORD PTR [r11+40]
	mov	rsi, QWORD PTR [r11+48]
	mov	rdi, QWORD PTR [r11+56]
	mov	rsp, r11
	pop	r15
	pop	r14
	pop	rbp
	ret	0
$LN648@readValue:
	DD	$LN5@readValue
	DD	$LN12@readValue
	DD	$LN6@readValue
	DD	$LN12@readValue
	DD	$LN8@readValue
	DD	$LN7@readValue
	DD	$LN9@readValue
	DD	$LN10@readValue
	DD	$LN11@readValue
?readValue@Reader@Json@@AEAA_NXZ ENDP			; Json::Reader::readValue
_TEXT	ENDS
;	COMDAT text$x
text$x	SEGMENT
$T45 = 32
$T30 = 32
$T15 = 32
token$ = 32
$T87 = 56
$T66 = 64
__$ArrayPad$ = 96
this$ = 144
?dtor$0@?0??readValue@Reader@Json@@AEAA_NXZ@4HA PROC	; `Json::Reader::readValue'::`1'::dtor$0
	lea	rcx, QWORD PTR $T15[rdx]
	jmp	??1Value@Json@@QEAA@XZ			; Json::Value::~Value
?dtor$0@?0??readValue@Reader@Json@@AEAA_NXZ@4HA ENDP	; `Json::Reader::readValue'::`1'::dtor$0
$T45 = 32
$T30 = 32
$T15 = 32
token$ = 32
$T87 = 56
$T66 = 64
__$ArrayPad$ = 96
this$ = 144
?dtor$1@?0??readValue@Reader@Json@@AEAA_NXZ@4HA PROC	; `Json::Reader::readValue'::`1'::dtor$1
	lea	rcx, QWORD PTR $T30[rdx]
	jmp	??1Value@Json@@QEAA@XZ			; Json::Value::~Value
?dtor$1@?0??readValue@Reader@Json@@AEAA_NXZ@4HA ENDP	; `Json::Reader::readValue'::`1'::dtor$1
$T45 = 32
$T30 = 32
$T15 = 32
token$ = 32
$T87 = 56
$T66 = 64
__$ArrayPad$ = 96
this$ = 144
?dtor$2@?0??readValue@Reader@Json@@AEAA_NXZ@4HA PROC	; `Json::Reader::readValue'::`1'::dtor$2
	lea	rcx, QWORD PTR $T45[rdx]
	jmp	??1Value@Json@@QEAA@XZ			; Json::Value::~Value
?dtor$2@?0??readValue@Reader@Json@@AEAA_NXZ@4HA ENDP	; `Json::Reader::readValue'::`1'::dtor$2
$T45 = 32
$T30 = 32
$T15 = 32
token$ = 32
$T87 = 56
$T66 = 64
__$ArrayPad$ = 96
this$ = 144
?dtor$3@?0??readValue@Reader@Json@@AEAA_NXZ@4HA PROC	; `Json::Reader::readValue'::`1'::dtor$3
	lea	rcx, QWORD PTR $T66[rdx]
	jmp	??1?$basic_string@DU?$char_traits@D@std@@V?$allocator@D@2@@std@@QEAA@XZ ; std::basic_string<char,std::char_traits<char>,std::allocator<char> >::~basic_string<char,std::char_traits<char>,std::allocator<char> >
?dtor$3@?0??readValue@Reader@Json@@AEAA_NXZ@4HA ENDP	; `Json::Reader::readValue'::`1'::dtor$3
text$x	ENDS
; Function compile flags: /Ogtpy
;	COMDAT text$x
text$x	SEGMENT
$T45 = 32
$T30 = 32
$T15 = 32
token$ = 32
$T87 = 56
$T66 = 64
__$ArrayPad$ = 96
this$ = 144
?dtor$0@?0??readValue@Reader@Json@@AEAA_NXZ@4HA PROC	; `Json::Reader::readValue'::`1'::dtor$0
	lea	rcx, QWORD PTR $T15[rdx]
	jmp	??1Value@Json@@QEAA@XZ			; Json::Value::~Value
?dtor$0@?0??readValue@Reader@Json@@AEAA_NXZ@4HA ENDP	; `Json::Reader::readValue'::`1'::dtor$0
text$x	ENDS
; Function compile flags: /Ogtpy
;	COMDAT text$x
text$x	SEGMENT
$T45 = 32
$T30 = 32
$T15 = 32
token$ = 32
$T87 = 56
$T66 = 64
__$ArrayPad$ = 96
this$ = 144
?dtor$1@?0??readValue@Reader@Json@@AEAA_NXZ@4HA PROC	; `Json::Reader::readValue'::`1'::dtor$1
	lea	rcx, QWORD PTR $T30[rdx]
	jmp	??1Value@Json@@QEAA@XZ			; Json::Value::~Value
?dtor$1@?0??readValue@Reader@Json@@AEAA_NXZ@4HA ENDP	; `Json::Reader::readValue'::`1'::dtor$1
text$x	ENDS
; Function compile flags: /Ogtpy
;	COMDAT text$x
text$x	SEGMENT
$T45 = 32
$T30 = 32
$T15 = 32
token$ = 32
$T87 = 56
$T66 = 64
__$ArrayPad$ = 96
this$ = 144
?dtor$2@?0??readValue@Reader@Json@@AEAA_NXZ@4HA PROC	; `Json::Reader::readValue'::`1'::dtor$2
	lea	rcx, QWORD PTR $T45[rdx]
	jmp	??1Value@Json@@QEAA@XZ			; Json::Value::~Value
?dtor$2@?0??readValue@Reader@Json@@AEAA_NXZ@4HA ENDP	; `Json::Reader::readValue'::`1'::dtor$2
text$x	ENDS
; Function compile flags: /Ogtpy
;	COMDAT text$x
text$x	SEGMENT
$T45 = 32
$T30 = 32
$T15 = 32
token$ = 32
$T87 = 56
$T66 = 64
__$ArrayPad$ = 96
this$ = 144
?dtor$3@?0??readValue@Reader@Json@@AEAA_NXZ@4HA PROC	; `Json::Reader::readValue'::`1'::dtor$3
	lea	rcx, QWORD PTR $T66[rdx]
	jmp	??1?$basic_string@DU?$char_traits@D@std@@V?$allocator@D@2@@std@@QEAA@XZ ; std::basic_string<char,std::char_traits<char>,std::allocator<char> >::~basic_string<char,std::char_traits<char>,std::allocator<char> >
?dtor$3@?0??readValue@Reader@Json@@AEAA_NXZ@4HA ENDP	; `Json::Reader::readValue'::`1'::dtor$3
text$x	ENDS
; Function compile flags: /Ogtpy
; File d:\code\libshared\jsoncpp-src-0.5.0\src\lib_json\json_reader.cpp
;	COMDAT ?skipCommentTokens@Reader@Json@@AEAAXAEAVToken@12@@Z
_TEXT	SEGMENT
this$ = 48
token$ = 56
?skipCommentTokens@Reader@Json@@AEAAXAEAVToken@12@@Z PROC ; Json::Reader::skipCommentTokens, COMDAT

$LN12:
	mov	QWORD PTR [rsp+8], rbx
	push	rdi
	sub	rsp, 32					; 00000020H

	cmp	BYTE PTR [rcx+184], 0
	mov	rbx, rdx
	mov	rdi, rcx
	je	SHORT $LN5@skipCommen
	npad	7
$LL4@skipCommen:

	mov	rdx, rbx
	mov	rcx, rdi
	call	?readToken@Reader@Json@@AEAA_NAEAVToken@12@@Z ; Json::Reader::readToken

	cmp	DWORD PTR [rbx], 12
	je	SHORT $LL4@skipCommen

	mov	rbx, QWORD PTR [rsp+48]
	add	rsp, 32					; 00000020H
	pop	rdi
	ret	0
$LN5@skipCommen:
	mov	rbx, QWORD PTR [rsp+48]
	add	rsp, 32					; 00000020H
	pop	rdi

	jmp	?readToken@Reader@Json@@AEAA_NAEAVToken@12@@Z ; Json::Reader::readToken
?skipCommentTokens@Reader@Json@@AEAAXAEAVToken@12@@Z ENDP ; Json::Reader::skipCommentTokens
_TEXT	ENDS
; Function compile flags: /Ogtpy
; File d:\code\libshared\jsoncpp-src-0.5.0\src\lib_json\json_reader.cpp
;	COMDAT ?readToken@Reader@Json@@AEAA_NAEAVToken@12@@Z
_TEXT	SEGMENT
this$ = 48
token$ = 56
?readToken@Reader@Json@@AEAA_NAEAVToken@12@@Z PROC	; Json::Reader::readToken, COMDAT

$LN113:
	mov	QWORD PTR [rsp+8], rbx
	push	rdi
	sub	rsp, 32					; 00000020H
	mov	rbx, rcx
	mov	rdi, rdx

	mov	rcx, QWORD PTR [rcx+128]
	mov	r9, QWORD PTR [rbx+120]
	cmp	rcx, r9
	je	SHORT $LN107@readToken
	mov	r8, rcx
	mov	r10, 4294976000				; 0000000100002200H
	npad	3
$LL21@readToken:

	movzx	edx, BYTE PTR [r8]

	cmp	dl, 32					; 00000020H
	ja	SHORT $LN101@readToken
	bt	r10, rdx
	jb	SHORT $LN25@readToken
$LN101@readToken:
	cmp	dl, 10
	jne	SHORT $LN107@readToken
$LN25@readToken:

	lea	rcx, QWORD PTR [r8+1]
	mov	QWORD PTR [rbx+128], rcx
	mov	r8, rcx
	cmp	rcx, r9
	jne	SHORT $LL21@readToken
$LN107@readToken:

	mov	QWORD PTR [rdi+8], rcx

	mov	rax, QWORD PTR [rbx+128]
	cmp	rax, QWORD PTR [rbx+120]
	jne	SHORT $LN28@readToken

	xor	cl, cl
	jmp	SHORT $LN27@readToken
$LN28@readToken:

	movzx	ecx, BYTE PTR [rax]
	inc	rax
	mov	QWORD PTR [rbx+128], rax
$LN27@readToken:

	movsx	rax, cl
	cmp	eax, 125				; 0000007dH
	ja	$LN98@readToken
	lea	r10, OFFSET FLAT:__ImageBase
	movzx	eax, BYTE PTR $LN105@readToken[r10+rax]
	mov	ecx, DWORD PTR $LN106@readToken[r10+rax*4]
	add	rcx, r10
	jmp	rcx
$LN4@readToken:

	mov	DWORD PTR [rdi], 1

	jmp	SHORT $LN18@readToken
$LN5@readToken:

	mov	DWORD PTR [rdi], 2

	jmp	SHORT $LN18@readToken
$LN6@readToken:

	mov	edx, 3
	mov	DWORD PTR [rdi], edx

	jmp	SHORT $LN18@readToken
$LN7@readToken:

	mov	edx, 4
	mov	DWORD PTR [rdi], edx

	jmp	SHORT $LN18@readToken
$LN8@readToken:

	mov	DWORD PTR [rdi], 5

	xor	cl, cl

	mov	rax, QWORD PTR [rbx+128]
	mov	rdx, QWORD PTR [rbx+120]
	cmp	rax, rdx
	je	SHORT $LN108@readToken
$LN38@readToken:

	movzx	ecx, BYTE PTR [rax]
	inc	rax
	mov	QWORD PTR [rbx+128], rax

	cmp	cl, 92					; 0000005cH
	jne	SHORT $LN33@readToken

	cmp	rax, rdx
	je	SHORT $LN108@readToken

	inc	rax
	mov	QWORD PTR [rbx+128], rax

	jmp	SHORT $LN35@readToken
$LN33@readToken:
	cmp	cl, 34					; 00000022H
	je	SHORT $LN110@readToken
$LN35@readToken:

	cmp	rax, rdx
	jne	SHORT $LN38@readToken
$LN108@readToken:

	cmp	cl, 34					; 00000022H
$LN110@readToken:
	sete	al

	jmp	SHORT $LN2@readToken
$LN9@readToken:

	mov	rcx, rbx
	mov	DWORD PTR [rdi], 12
	call	?readComment@Reader@Json@@AEAA_NXZ	; Json::Reader::readComment
$LN2@readToken:

	test	al, al
	jne	SHORT $LN18@readToken
$LN98@readToken:

	mov	DWORD PTR [rdi], 13
$LN18@readToken:

	mov	rax, QWORD PTR [rbx+128]

	mov	rbx, QWORD PTR [rsp+48]
	mov	QWORD PTR [rdi+16], rax
	mov	al, 1
	add	rsp, 32					; 00000020H
	pop	rdi
	ret	0
$LN10@readToken:

	mov	DWORD PTR [rdi], 6

	mov	rcx, QWORD PTR [rbx+128]
	mov	r8, QWORD PTR [rbx+120]
	cmp	rcx, r8
	je	SHORT $LN18@readToken
	mov	r9, 288230376218820621			; 040000000400000dH
$LL44@readToken:

	movzx	edx, BYTE PTR [rcx]
	lea	eax, DWORD PTR [rdx-48]
	cmp	al, 9
	jbe	SHORT $LN51@readToken

	sub	dl, 43					; 0000002bH
	cmp	dl, 58					; 0000003aH
	ja	SHORT $LN18@readToken
	bt	r9, rdx
	jae	SHORT $LN18@readToken
$LN51@readToken:

	inc	rcx
	mov	QWORD PTR [rbx+128], rcx
	cmp	rcx, r8
	jne	SHORT $LL44@readToken

	jmp	SHORT $LN18@readToken
$LN11@readToken:

	mov	DWORD PTR [rdi], 7

	mov	r8, QWORD PTR [rbx+128]
	mov	rax, QWORD PTR [rbx+120]
	sub	rax, r8
	cmp	rax, 3
	jl	$LN98@readToken

	lea	rcx, OFFSET FLAT:??_C@_03FFDNHNKN@rue@+3
	mov	r9, r8
	sub	r9, rcx
	mov	edx, 3
	npad	5
$LL54@readToken:

	dec	rdx

	lea	rcx, QWORD PTR ??_C@_03FFDNHNKN@rue@[r10]
	add	rcx, rdx
	movzx	eax, BYTE PTR [rcx]
	cmp	BYTE PTR [r9+rcx+3], al
	jne	$LN98@readToken

	test	rdx, rdx
	jne	SHORT $LL54@readToken

	lea	rax, QWORD PTR [r8+3]
	mov	QWORD PTR [rbx+128], rax

	jmp	$LN18@readToken
$LN12@readToken:

	mov	DWORD PTR [rdi], 8

	mov	r8, QWORD PTR [rbx+128]
	mov	rax, QWORD PTR [rbx+120]
	sub	rax, r8
	cmp	rax, 4
	jl	$LN98@readToken

	lea	rcx, OFFSET FLAT:??_C@_04KCECFHEP@alse@+4
	mov	r9, r8
	sub	r9, rcx
	mov	edx, 4
$LL60@readToken:

	dec	rdx

	lea	rcx, QWORD PTR ??_C@_04KCECFHEP@alse@[r10]
	add	rcx, rdx
	movzx	eax, BYTE PTR [rcx]
	cmp	BYTE PTR [r9+rcx+4], al
	jne	$LN98@readToken

	test	rdx, rdx
	jne	SHORT $LL60@readToken

	lea	rax, QWORD PTR [r8+4]
	mov	QWORD PTR [rbx+128], rax

	jmp	$LN18@readToken
$LN13@readToken:

	mov	DWORD PTR [rdi], 9

	mov	r8, QWORD PTR [rbx+128]
	mov	rax, QWORD PTR [rbx+120]
	sub	rax, r8
	cmp	rax, 3
	jl	$LN98@readToken

	lea	rcx, OFFSET FLAT:??_C@_03KNPGGKC@ull@+3
	mov	r9, r8
	sub	r9, rcx
	mov	edx, 3
$LL66@readToken:

	dec	rdx

	lea	rcx, QWORD PTR ??_C@_03KNPGGKC@ull@[r10]
	add	rcx, rdx
	movzx	eax, BYTE PTR [rcx]
	cmp	BYTE PTR [r9+rcx+3], al
	jne	$LN98@readToken

	test	rdx, rdx
	jne	SHORT $LL66@readToken

	lea	rax, QWORD PTR [r8+3]
	mov	QWORD PTR [rbx+128], rax

	jmp	$LN18@readToken
$LN14@readToken:

	mov	DWORD PTR [rdi], 10

	jmp	$LN18@readToken
$LN15@readToken:

	mov	DWORD PTR [rdi], 11

	jmp	$LN18@readToken
$LN16@readToken:

	mov	DWORD PTR [rdi], 0

	jmp	$LN18@readToken
	npad	3
$LN106@readToken:

	DD	$LN16@readToken
	DD	$LN8@readToken
	DD	$LN14@readToken
	DD	$LN10@readToken
	DD	$LN9@readToken
	DD	$LN15@readToken
	DD	$LN6@readToken
	DD	$LN7@readToken
	DD	$LN12@readToken
	DD	$LN13@readToken
	DD	$LN11@readToken
	DD	$LN4@readToken
	DD	$LN5@readToken
	DD	$LN98@readToken
$LN105@readToken:
	DB	0
	DB	13
	DB	13
	DB	13
	DB	13
	DB	13
	DB	13
	DB	13
	DB	13
	DB	13
	DB	13
	DB	13
	DB	13
	DB	13
	DB	13
	DB	13
	DB	13
	DB	13
	DB	13
	DB	13
	DB	13
	DB	13
	DB	13
	DB	13
	DB	13
	DB	13
	DB	13
	DB	13
	DB	13
	DB	13
	DB	13
	DB	13
	DB	13
	DB	13
	DB	1
	DB	13
	DB	13
	DB	13
	DB	13
	DB	13
	DB	13
	DB	13
	DB	13
	DB	13
	DB	2
	DB	3
	DB	13
	DB	4
	DB	3
	DB	3
	DB	3
	DB	3
	DB	3
	DB	3
	DB	3
	DB	3
	DB	3
	DB	3
	DB	5
	DB	13
	DB	13
	DB	13
	DB	13
	DB	13
	DB	13
	DB	13
	DB	13
	DB	13
	DB	13
	DB	13
	DB	13
	DB	13
	DB	13
	DB	13
	DB	13
	DB	13
	DB	13
	DB	13
	DB	13
	DB	13
	DB	13
	DB	13
	DB	13
	DB	13
	DB	13
	DB	13
	DB	13
	DB	13
	DB	13
	DB	13
	DB	13
	DB	6
	DB	13
	DB	7
	DB	13
	DB	13
	DB	13
	DB	13
	DB	13
	DB	13
	DB	13
	DB	13
	DB	8
	DB	13
	DB	13
	DB	13
	DB	13
	DB	13
	DB	13
	DB	13
	DB	9
	DB	13
	DB	13
	DB	13
	DB	13
	DB	13
	DB	10
	DB	13
	DB	13
	DB	13
	DB	13
	DB	13
	DB	13
	DB	11
	DB	13
	DB	12
?readToken@Reader@Json@@AEAA_NAEAVToken@12@@Z ENDP	; Json::Reader::readToken
_TEXT	ENDS
; Function compile flags: /Ogtpy
; File d:\code\libshared\jsoncpp-src-0.5.0\src\lib_json\json_reader.cpp
;	COMDAT ?skipSpaces@Reader@Json@@AEAAXXZ
_TEXT	SEGMENT
this$ = 8
?skipSpaces@Reader@Json@@AEAAXXZ PROC			; Json::Reader::skipSpaces, COMDAT

	mov	rax, QWORD PTR [rcx+128]
	mov	r8, rcx
	mov	r9, QWORD PTR [rcx+120]
	cmp	rax, r9
	je	SHORT $LN4@skipSpaces
	mov	r10, 4294977024				; 0000000100002600H
	npad	3
$LL2@skipSpaces:

	movzx	edx, BYTE PTR [rax]

	cmp	dl, 32					; 00000020H
	ja	SHORT $LN4@skipSpaces
	bt	r10, rdx
	jae	SHORT $LN4@skipSpaces

	inc	rax
	mov	QWORD PTR [r8+128], rax
	cmp	rax, r9
	jne	SHORT $LL2@skipSpaces
$LN4@skipSpaces:

	ret	0
?skipSpaces@Reader@Json@@AEAAXXZ ENDP			; Json::Reader::skipSpaces
_TEXT	ENDS
; Function compile flags: /Ogtpy
; File d:\code\libshared\jsoncpp-src-0.5.0\src\lib_json\json_reader.cpp
;	COMDAT ?match@Reader@Json@@AEAA_NPEBDH@Z
_TEXT	SEGMENT
this$ = 8
pattern$ = 16
patternLength$ = 24
?match@Reader@Json@@AEAA_NPEBDH@Z PROC			; Json::Reader::match, COMDAT

$LN13:
	mov	QWORD PTR [rsp+8], rbx

	mov	r10, QWORD PTR [rcx+128]
	mov	r9, rdx
	mov	rax, QWORD PTR [rcx+120]
	mov	rbx, rcx
	sub	rax, r10
	movsxd	r11, r8d
	cmp	rax, r11
	jl	SHORT $LN8@match

	test	r8d, r8d
	je	SHORT $LN9@match

	add	rdx, r11
	mov	r8, r10
	sub	r8, r9
	npad	1
$LL2@match:
	movzx	eax, BYTE PTR [rdx-1]
	mov	rcx, rdx
	dec	rdx
	cmp	BYTE PTR [rcx+r8-1], al
	jne	SHORT $LN8@match

	mov	rax, rdx
	sub	rax, r9
	jne	SHORT $LL2@match
$LN9@match:

	lea	rax, QWORD PTR [r11+r10]
	mov	QWORD PTR [rbx+128], rax

	mov	al, 1

	mov	rbx, QWORD PTR [rsp+8]
	ret	0
$LN8@match:
	mov	rbx, QWORD PTR [rsp+8]
	xor	al, al
	ret	0
?match@Reader@Json@@AEAA_NPEBDH@Z ENDP			; Json::Reader::match
_TEXT	ENDS
; Function compile flags: /Ogtpy
; File d:\code\libshared\jsoncpp-src-0.5.0\src\lib_json\json_reader.cpp
; File c:\program files (x86)\microsoft visual studio\2017\enterprise\vc\tools\msvc\14.16.27023\include\xstring
; File d:\code\libshared\jsoncpp-src-0.5.0\src\lib_json\json_reader.cpp
; File c:\program files (x86)\microsoft visual studio\2017\enterprise\vc\tools\msvc\14.16.27023\include\xstring
; File d:\code\libshared\jsoncpp-src-0.5.0\src\lib_json\json_reader.cpp
;	COMDAT ?readComment@Reader@Json@@AEAA_NXZ
_TEXT	SEGMENT
$T11 = 32
$T7 = 32
$T8 = 32
$T4 = 32
$T12 = 40
$T9 = 48
$T5 = 48
__$ArrayPad$ = 80
this$ = 112
?readComment@Reader@Json@@AEAA_NXZ PROC			; Json::Reader::readComment, COMDAT

$LN111:
	push	rdi
	sub	rsp, 96					; 00000060H
	mov	QWORD PTR $T12[rsp], -2
	mov	QWORD PTR [rsp+120], rbx
	mov	QWORD PTR [rsp+128], rsi
	mov	rax, QWORD PTR __security_cookie
	xor	rax, rsp
	mov	QWORD PTR __$ArrayPad$[rsp], rax
	mov	rbx, rcx

	mov	rax, QWORD PTR [rcx+128]
	lea	rdi, QWORD PTR [rax-1]

	mov	r8, QWORD PTR [rcx+120]
	cmp	rax, r8
	je	SHORT $LN95@readCommen

	movzx	r9d, BYTE PTR [rax]
	inc	rax
	mov	QWORD PTR [rcx+128], rax

	cmp	r9b, 42					; 0000002aH
	jne	SHORT $LN2@readCommen

	cmp	rax, r8
	je	SHORT $LN102@readCommen

	mov	rdx, rax
	cmp	rax, r8
	je	SHORT $LN17@readCommen
$LN104@readCommen:

	movzx	ecx, BYTE PTR [rdx]
	lea	rax, QWORD PTR [rdx+1]
	mov	QWORD PTR [rbx+128], rax

	mov	rdx, rax
	cmp	cl, 42					; 0000002aH
	jne	SHORT $LN17@readCommen
	cmp	BYTE PTR [rax], 47			; 0000002fH
	je	SHORT $LN81@readCommen
$LN17@readCommen:

	mov	rax, rdx
	cmp	rdx, r8
	jne	SHORT $LN104@readCommen
$LN81@readCommen:

	cmp	rax, r8
	jne	SHORT $LN23@readCommen
$LN102@readCommen:

	xor	cl, cl
	jmp	SHORT $LN22@readCommen
$LN23@readCommen:

	movzx	ecx, BYTE PTR [rax]
	inc	rax
	mov	QWORD PTR [rbx+128], rax
$LN22@readCommen:

	cmp	cl, 47					; 0000002fH
	je	SHORT $LN5@readCommen
$LN95@readCommen:

	xor	al, al
$LN1@readCommen:

	mov	rcx, QWORD PTR __$ArrayPad$[rsp]
	xor	rcx, rsp
	call	__security_check_cookie
	mov	rbx, QWORD PTR [rsp+120]
	mov	rsi, QWORD PTR [rsp+128]
	add	rsp, 96					; 00000060H
	pop	rdi
	ret	0
$LN2@readCommen:

	cmp	r9b, 47					; 0000002fH
	jne	SHORT $LN95@readCommen

	cmp	rax, r8
	je	SHORT $LN5@readCommen
$LN107@readCommen:

	movzx	ecx, BYTE PTR [rax]
	inc	rax
	mov	QWORD PTR [rbx+128], rax

	cmp	cl, 13
	je	SHORT $LN5@readCommen
	cmp	cl, 10
	je	SHORT $LN5@readCommen

	cmp	rax, r8
	jne	SHORT $LN107@readCommen
$LN5@readCommen:

	cmp	BYTE PTR [rbx+186], 0
	je	$LN50@readCommen

	xor	r8d, r8d

	mov	rax, QWORD PTR [rbx+136]
	test	rax, rax
	je	SHORT $LN8@readCommen

	cmp	rax, rdi
	jae	SHORT $LN36@readCommen
	npad	5
$LL37@readCommen:

	movzx	ecx, BYTE PTR [rax]
	cmp	cl, 10
	je	SHORT $LN8@readCommen
	cmp	cl, 13
	je	SHORT $LN8@readCommen

	inc	rax
	cmp	rax, rdi
	jb	SHORT $LL37@readCommen
$LN36@readCommen:

	cmp	r9b, 42					; 0000002aH
	jne	SHORT $LN43@readCommen
	mov	rax, rdi

	mov	rdx, QWORD PTR [rbx+128]
	cmp	rdi, rdx
	jae	SHORT $LN43@readCommen
	npad	6
$LL44@readCommen:

	movzx	ecx, BYTE PTR [rax]
	cmp	cl, 10
	je	SHORT $LN8@readCommen
	cmp	cl, 13
	je	SHORT $LN8@readCommen

	inc	rax
	cmp	rax, rdx
	jb	SHORT $LL44@readCommen
$LN43@readCommen:

	mov	r8d, 1
$LN8@readCommen:

	mov	rsi, QWORD PTR [rbx+128]

	cmp	r8d, 1
	jne	SHORT $LN49@readCommen

	lea	rcx, QWORD PTR $T4[rsp]
	call	??0?$allocator@D@std@@QEAA@XZ		; std::allocator<char>::allocator<char>
; File c:\program files (x86)\microsoft visual studio\2017\enterprise\vc\tools\msvc\14.16.27023\include\xstring

; 2220 : 		: _Mybase(_Al)

	mov	rdx, rax
	lea	rcx, QWORD PTR $T5[rsp]
	call	??$?0AEBV?$allocator@D@std@@X@?$_String_alloc@U?$_String_base_types@DV?$allocator@D@std@@@std@@@std@@QEAA@AEBV?$allocator@D@1@@Z ; std::_String_alloc<std::_String_base_types<char,std::allocator<char> > >::_String_alloc<std::_String_base_types<char,std::allocator<char> > ><std::allocator<char> const &,void>
	npad	1

; 2221 : 		{	// construct from [_First, _Last) with optional allocator
; 2222 : 		_Tidy_init();

	lea	rcx, QWORD PTR $T5[rsp]
	call	?_Tidy_init@?$basic_string@DU?$char_traits@D@std@@V?$allocator@D@2@@std@@QEAAXXZ ; std::basic_string<char,std::char_traits<char>,std::allocator<char> >::_Tidy_init

; 2223 : 		_Adl_verify_range(_First, _Last);
; 2224 : 		_Construct(_Get_unwrapped(_First), _Get_unwrapped(_Last), _Iter_cat_t<_Iter>());

	movzx	r9d, BYTE PTR $T7[rsp]
	mov	r8, rsi
	mov	rdx, rdi
	lea	rcx, QWORD PTR $T5[rsp]
	call	?_Construct@?$basic_string@DU?$char_traits@D@std@@V?$allocator@D@2@@std@@QEAAXQEBD0Urandom_access_iterator_tag@2@@Z ; std::basic_string<char,std::char_traits<char>,std::allocator<char> >::_Construct
	npad	1
; File d:\code\libshared\jsoncpp-src-0.5.0\src\lib_json\json_reader.cpp

	mov	r8d, 1
	lea	rdx, QWORD PTR $T5[rsp]
	mov	rcx, QWORD PTR [rbx+144]
	call	?setComment@Value@Json@@QEAAXAEBV?$basic_string@DU?$char_traits@D@std@@V?$allocator@D@2@@std@@W4CommentPlacement@2@@Z ; Json::Value::setComment
	npad	1

	lea	rcx, QWORD PTR $T9[rsp]
	call	??1?$basic_string@DU?$char_traits@D@std@@V?$allocator@D@2@@std@@QEAA@XZ ; std::basic_string<char,std::char_traits<char>,std::allocator<char> >::~basic_string<char,std::char_traits<char>,std::allocator<char> >
	mov	al, 1
	jmp	$LN1@readCommen
$LN49@readCommen:

	add	rbx, 152				; 00000098H
	mov	rcx, rbx
	call	?empty@?$basic_string@DU?$char_traits@D@std@@V?$allocator@D@2@@std@@QEBA_NXZ ; std::basic_string<char,std::char_traits<char>,std::allocator<char> >::empty
	test	al, al
	jne	SHORT $LN51@readCommen

	lea	rdx, OFFSET FLAT:??_C@_01EEMJAFIK@?6@
	mov	rcx, rbx
	call	??Y?$basic_string@DU?$char_traits@D@std@@V?$allocator@D@2@@std@@QEAAAEAV01@QEBD@Z ; std::basic_string<char,std::char_traits<char>,std::allocator<char> >::operator+=
$LN51@readCommen:

	lea	rcx, QWORD PTR $T8[rsp]
	call	??0?$allocator@D@std@@QEAA@XZ		; std::allocator<char>::allocator<char>
; File c:\program files (x86)\microsoft visual studio\2017\enterprise\vc\tools\msvc\14.16.27023\include\xstring

; 2220 : 		: _Mybase(_Al)

	mov	rdx, rax
	lea	rcx, QWORD PTR $T9[rsp]
	call	??$?0AEBV?$allocator@D@std@@X@?$_String_alloc@U?$_String_base_types@DV?$allocator@D@std@@@std@@@std@@QEAA@AEBV?$allocator@D@1@@Z ; std::_String_alloc<std::_String_base_types<char,std::allocator<char> > >::_String_alloc<std::_String_base_types<char,std::allocator<char> > ><std::allocator<char> const &,void>
	npad	1

; 2221 : 		{	// construct from [_First, _Last) with optional allocator
; 2222 : 		_Tidy_init();

	lea	rcx, QWORD PTR $T9[rsp]
	call	?_Tidy_init@?$basic_string@DU?$char_traits@D@std@@V?$allocator@D@2@@std@@QEAAXXZ ; std::basic_string<char,std::char_traits<char>,std::allocator<char> >::_Tidy_init

; 2223 : 		_Adl_verify_range(_First, _Last);
; 2224 : 		_Construct(_Get_unwrapped(_First), _Get_unwrapped(_Last), _Iter_cat_t<_Iter>());

	movzx	r9d, BYTE PTR $T11[rsp]
	mov	r8, rsi
	mov	rdx, rdi
	lea	rcx, QWORD PTR $T9[rsp]
	call	?_Construct@?$basic_string@DU?$char_traits@D@std@@V?$allocator@D@2@@std@@QEAAXQEBD0Urandom_access_iterator_tag@2@@Z ; std::basic_string<char,std::char_traits<char>,std::allocator<char> >::_Construct
	npad	1
; File d:\code\libshared\jsoncpp-src-0.5.0\src\lib_json\json_reader.cpp

	lea	rdx, QWORD PTR $T9[rsp]
	mov	rcx, rbx
	call	??Y?$basic_string@DU?$char_traits@D@std@@V?$allocator@D@2@@std@@QEAAAEAV01@AEBV01@@Z ; std::basic_string<char,std::char_traits<char>,std::allocator<char> >::operator+=
	npad	1

	lea	rcx, QWORD PTR $T9[rsp]
	call	??1?$basic_string@DU?$char_traits@D@std@@V?$allocator@D@2@@std@@QEAA@XZ ; std::basic_string<char,std::char_traits<char>,std::allocator<char> >::~basic_string<char,std::char_traits<char>,std::allocator<char> >
$LN50@readCommen:
	mov	al, 1
	jmp	$LN1@readCommen
?readComment@Reader@Json@@AEAA_NXZ ENDP			; Json::Reader::readComment
_TEXT	ENDS
;	COMDAT text$x
text$x	SEGMENT
$T11 = 32
$T7 = 32
$T8 = 32
$T4 = 32
$T12 = 40
$T9 = 48
$T5 = 48
__$ArrayPad$ = 80
this$ = 112
?dtor$2@?0??readComment@Reader@Json@@AEAA_NXZ@4HA PROC	; `Json::Reader::readComment'::`1'::dtor$2
	lea	rcx, QWORD PTR $T5[rdx]
	jmp	??1?$_String_alloc@U?$_String_base_types@DV?$allocator@D@std@@@std@@@std@@QEAA@XZ
?dtor$2@?0??readComment@Reader@Json@@AEAA_NXZ@4HA ENDP	; `Json::Reader::readComment'::`1'::dtor$2
$T11 = 32
$T7 = 32
$T8 = 32
$T4 = 32
$T12 = 40
$T9 = 48
$T5 = 48
__$ArrayPad$ = 80
this$ = 112
?dtor$0@?0??readComment@Reader@Json@@AEAA_NXZ@4HA PROC	; `Json::Reader::readComment'::`1'::dtor$0
	lea	rcx, QWORD PTR $T5[rdx]
	jmp	??1?$basic_string@DU?$char_traits@D@std@@V?$allocator@D@2@@std@@QEAA@XZ ; std::basic_string<char,std::char_traits<char>,std::allocator<char> >::~basic_string<char,std::char_traits<char>,std::allocator<char> >
?dtor$0@?0??readComment@Reader@Json@@AEAA_NXZ@4HA ENDP	; `Json::Reader::readComment'::`1'::dtor$0
$T11 = 32
$T7 = 32
$T8 = 32
$T4 = 32
$T12 = 40
$T9 = 48
$T5 = 48
__$ArrayPad$ = 80
this$ = 112
?dtor$3@?0??readComment@Reader@Json@@AEAA_NXZ@4HA PROC	; `Json::Reader::readComment'::`1'::dtor$3
	lea	rcx, QWORD PTR $T9[rdx]
	jmp	??1?$_String_alloc@U?$_String_base_types@DV?$allocator@D@std@@@std@@@std@@QEAA@XZ
?dtor$3@?0??readComment@Reader@Json@@AEAA_NXZ@4HA ENDP	; `Json::Reader::readComment'::`1'::dtor$3
$T11 = 32
$T7 = 32
$T8 = 32
$T4 = 32
$T12 = 40
$T9 = 48
$T5 = 48
__$ArrayPad$ = 80
this$ = 112
?dtor$1@?0??readComment@Reader@Json@@AEAA_NXZ@4HA PROC	; `Json::Reader::readComment'::`1'::dtor$1
	lea	rcx, QWORD PTR $T9[rdx]
	jmp	??1?$basic_string@DU?$char_traits@D@std@@V?$allocator@D@2@@std@@QEAA@XZ ; std::basic_string<char,std::char_traits<char>,std::allocator<char> >::~basic_string<char,std::char_traits<char>,std::allocator<char> >
?dtor$1@?0??readComment@Reader@Json@@AEAA_NXZ@4HA ENDP	; `Json::Reader::readComment'::`1'::dtor$1
text$x	ENDS
; Function compile flags: /Ogtpy
;	COMDAT text$x
text$x	SEGMENT
$T11 = 32
$T7 = 32
$T8 = 32
$T4 = 32
$T12 = 40
$T9 = 48
$T5 = 48
__$ArrayPad$ = 80
this$ = 112
?dtor$2@?0??readComment@Reader@Json@@AEAA_NXZ@4HA PROC	; `Json::Reader::readComment'::`1'::dtor$2
	lea	rcx, QWORD PTR $T5[rdx]
	jmp	??1?$_String_alloc@U?$_String_base_types@DV?$allocator@D@std@@@std@@@std@@QEAA@XZ
?dtor$2@?0??readComment@Reader@Json@@AEAA_NXZ@4HA ENDP	; `Json::Reader::readComment'::`1'::dtor$2
text$x	ENDS
; Function compile flags: /Ogtpy
;	COMDAT text$x
text$x	SEGMENT
$T11 = 32
$T7 = 32
$T8 = 32
$T4 = 32
$T12 = 40
$T9 = 48
$T5 = 48
__$ArrayPad$ = 80
this$ = 112
?dtor$0@?0??readComment@Reader@Json@@AEAA_NXZ@4HA PROC	; `Json::Reader::readComment'::`1'::dtor$0
	lea	rcx, QWORD PTR $T5[rdx]
	jmp	??1?$basic_string@DU?$char_traits@D@std@@V?$allocator@D@2@@std@@QEAA@XZ ; std::basic_string<char,std::char_traits<char>,std::allocator<char> >::~basic_string<char,std::char_traits<char>,std::allocator<char> >
?dtor$0@?0??readComment@Reader@Json@@AEAA_NXZ@4HA ENDP	; `Json::Reader::readComment'::`1'::dtor$0
text$x	ENDS
; Function compile flags: /Ogtpy
;	COMDAT text$x
text$x	SEGMENT
$T11 = 32
$T7 = 32
$T8 = 32
$T4 = 32
$T12 = 40
$T9 = 48
$T5 = 48
__$ArrayPad$ = 80
this$ = 112
?dtor$3@?0??readComment@Reader@Json@@AEAA_NXZ@4HA PROC	; `Json::Reader::readComment'::`1'::dtor$3
	lea	rcx, QWORD PTR $T9[rdx]
	jmp	??1?$_String_alloc@U?$_String_base_types@DV?$allocator@D@std@@@std@@@std@@QEAA@XZ
?dtor$3@?0??readComment@Reader@Json@@AEAA_NXZ@4HA ENDP	; `Json::Reader::readComment'::`1'::dtor$3
text$x	ENDS
; Function compile flags: /Ogtpy
;	COMDAT text$x
text$x	SEGMENT
$T11 = 32
$T7 = 32
$T8 = 32
$T4 = 32
$T12 = 40
$T9 = 48
$T5 = 48
__$ArrayPad$ = 80
this$ = 112
?dtor$1@?0??readComment@Reader@Json@@AEAA_NXZ@4HA PROC	; `Json::Reader::readComment'::`1'::dtor$1
	lea	rcx, QWORD PTR $T9[rdx]
	jmp	??1?$basic_string@DU?$char_traits@D@std@@V?$allocator@D@2@@std@@QEAA@XZ ; std::basic_string<char,std::char_traits<char>,std::allocator<char> >::~basic_string<char,std::char_traits<char>,std::allocator<char> >
?dtor$1@?0??readComment@Reader@Json@@AEAA_NXZ@4HA ENDP	; `Json::Reader::readComment'::`1'::dtor$1
text$x	ENDS
; Function compile flags: /Ogtpy
; File d:\code\libshared\jsoncpp-src-0.5.0\src\lib_json\json_reader.cpp
; File c:\program files (x86)\microsoft visual studio\2017\enterprise\vc\tools\msvc\14.16.27023\include\xstring
; File d:\code\libshared\jsoncpp-src-0.5.0\src\lib_json\json_reader.cpp
; File c:\program files (x86)\microsoft visual studio\2017\enterprise\vc\tools\msvc\14.16.27023\include\xstring
; File d:\code\libshared\jsoncpp-src-0.5.0\src\lib_json\json_reader.cpp
;	COMDAT ?addComment@Reader@Json@@AEAAXPEBD0W4CommentPlacement@2@@Z
_TEXT	SEGMENT
$T8 = 32
$T4 = 32
$T5 = 32
$T1 = 32
$T9 = 40
$T6 = 48
$T2 = 48
__$ArrayPad$ = 80
this$ = 128
begin$ = 136
end$ = 144
placement$ = 152
?addComment@Reader@Json@@AEAAXPEBD0W4CommentPlacement@2@@Z PROC ; Json::Reader::addComment, COMDAT

$LN33:
	push	rbx
	push	rsi
	push	rdi
	sub	rsp, 96					; 00000060H
	mov	QWORD PTR $T9[rsp], -2
	mov	rax, QWORD PTR __security_cookie
	xor	rax, rsp
	mov	QWORD PTR __$ArrayPad$[rsp], rax
	mov	rsi, r8
	mov	rdi, rdx
	mov	rbx, rcx

	cmp	r9d, 1
	jne	SHORT $LN2@addComment

	lea	rcx, QWORD PTR $T1[rsp]
	call	??0?$allocator@D@std@@QEAA@XZ		; std::allocator<char>::allocator<char>
; File c:\program files (x86)\microsoft visual studio\2017\enterprise\vc\tools\msvc\14.16.27023\include\xstring

; 2220 : 		: _Mybase(_Al)

	mov	rdx, rax
	lea	rcx, QWORD PTR $T2[rsp]
	call	??$?0AEBV?$allocator@D@std@@X@?$_String_alloc@U?$_String_base_types@DV?$allocator@D@std@@@std@@@std@@QEAA@AEBV?$allocator@D@1@@Z ; std::_String_alloc<std::_String_base_types<char,std::allocator<char> > >::_String_alloc<std::_String_base_types<char,std::allocator<char> > ><std::allocator<char> const &,void>
	npad	1

; 2221 : 		{	// construct from [_First, _Last) with optional allocator
; 2222 : 		_Tidy_init();

	lea	rcx, QWORD PTR $T2[rsp]
	call	?_Tidy_init@?$basic_string@DU?$char_traits@D@std@@V?$allocator@D@2@@std@@QEAAXXZ ; std::basic_string<char,std::char_traits<char>,std::allocator<char> >::_Tidy_init

; 2223 : 		_Adl_verify_range(_First, _Last);
; 2224 : 		_Construct(_Get_unwrapped(_First), _Get_unwrapped(_Last), _Iter_cat_t<_Iter>());

	movzx	r9d, BYTE PTR $T4[rsp]
	mov	r8, rsi
	mov	rdx, rdi
	lea	rcx, QWORD PTR $T2[rsp]
	call	?_Construct@?$basic_string@DU?$char_traits@D@std@@V?$allocator@D@2@@std@@QEAAXQEBD0Urandom_access_iterator_tag@2@@Z ; std::basic_string<char,std::char_traits<char>,std::allocator<char> >::_Construct
	npad	1
; File d:\code\libshared\jsoncpp-src-0.5.0\src\lib_json\json_reader.cpp

	mov	r8d, 1
	lea	rdx, QWORD PTR $T2[rsp]
	mov	rcx, QWORD PTR [rbx+144]
	call	?setComment@Value@Json@@QEAAXAEBV?$basic_string@DU?$char_traits@D@std@@V?$allocator@D@2@@std@@W4CommentPlacement@2@@Z ; Json::Value::setComment
	npad	1

	jmp	SHORT $LN30@addComment
$LN2@addComment:

	add	rbx, 152				; 00000098H
	mov	rcx, rbx
	call	?empty@?$basic_string@DU?$char_traits@D@std@@V?$allocator@D@2@@std@@QEBA_NXZ ; std::basic_string<char,std::char_traits<char>,std::allocator<char> >::empty
	test	al, al
	jne	SHORT $LN4@addComment

	lea	rdx, OFFSET FLAT:??_C@_01EEMJAFIK@?6@
	mov	rcx, rbx
	call	??Y?$basic_string@DU?$char_traits@D@std@@V?$allocator@D@2@@std@@QEAAAEAV01@QEBD@Z ; std::basic_string<char,std::char_traits<char>,std::allocator<char> >::operator+=
$LN4@addComment:

	lea	rcx, QWORD PTR $T5[rsp]
	call	??0?$allocator@D@std@@QEAA@XZ		; std::allocator<char>::allocator<char>
; File c:\program files (x86)\microsoft visual studio\2017\enterprise\vc\tools\msvc\14.16.27023\include\xstring

; 2220 : 		: _Mybase(_Al)

	mov	rdx, rax
	lea	rcx, QWORD PTR $T6[rsp]
	call	??$?0AEBV?$allocator@D@std@@X@?$_String_alloc@U?$_String_base_types@DV?$allocator@D@std@@@std@@@std@@QEAA@AEBV?$allocator@D@1@@Z ; std::_String_alloc<std::_String_base_types<char,std::allocator<char> > >::_String_alloc<std::_String_base_types<char,std::allocator<char> > ><std::allocator<char> const &,void>
	npad	1

; 2221 : 		{	// construct from [_First, _Last) with optional allocator
; 2222 : 		_Tidy_init();

	lea	rcx, QWORD PTR $T6[rsp]
	call	?_Tidy_init@?$basic_string@DU?$char_traits@D@std@@V?$allocator@D@2@@std@@QEAAXXZ ; std::basic_string<char,std::char_traits<char>,std::allocator<char> >::_Tidy_init

; 2223 : 		_Adl_verify_range(_First, _Last);
; 2224 : 		_Construct(_Get_unwrapped(_First), _Get_unwrapped(_Last), _Iter_cat_t<_Iter>());

	movzx	r9d, BYTE PTR $T8[rsp]
	mov	r8, rsi
	mov	rdx, rdi
	lea	rcx, QWORD PTR $T6[rsp]
	call	?_Construct@?$basic_string@DU?$char_traits@D@std@@V?$allocator@D@2@@std@@QEAAXQEBD0Urandom_access_iterator_tag@2@@Z ; std::basic_string<char,std::char_traits<char>,std::allocator<char> >::_Construct
	npad	1
; File d:\code\libshared\jsoncpp-src-0.5.0\src\lib_json\json_reader.cpp

	lea	rdx, QWORD PTR $T6[rsp]
	mov	rcx, rbx
	call	??Y?$basic_string@DU?$char_traits@D@std@@V?$allocator@D@2@@std@@QEAAAEAV01@AEBV01@@Z ; std::basic_string<char,std::char_traits<char>,std::allocator<char> >::operator+=
	npad	1
$LN30@addComment:

	lea	rcx, QWORD PTR $T6[rsp]
	call	??1?$basic_string@DU?$char_traits@D@std@@V?$allocator@D@2@@std@@QEAA@XZ ; std::basic_string<char,std::char_traits<char>,std::allocator<char> >::~basic_string<char,std::char_traits<char>,std::allocator<char> >
	mov	rcx, QWORD PTR __$ArrayPad$[rsp]
	xor	rcx, rsp
	call	__security_check_cookie
	add	rsp, 96					; 00000060H
	pop	rdi
	pop	rsi
	pop	rbx
	ret	0
?addComment@Reader@Json@@AEAAXPEBD0W4CommentPlacement@2@@Z ENDP ; Json::Reader::addComment
_TEXT	ENDS
;	COMDAT text$x
text$x	SEGMENT
$T8 = 32
$T4 = 32
$T5 = 32
$T1 = 32
$T9 = 40
$T6 = 48
$T2 = 48
__$ArrayPad$ = 80
this$ = 128
begin$ = 136
end$ = 144
placement$ = 152
?dtor$2@?0??addComment@Reader@Json@@AEAAXPEBD0W4CommentPlacement@2@@Z@4HA PROC ; `Json::Reader::addComment'::`1'::dtor$2
	lea	rcx, QWORD PTR $T2[rdx]
	jmp	??1?$_String_alloc@U?$_String_base_types@DV?$allocator@D@std@@@std@@@std@@QEAA@XZ
?dtor$2@?0??addComment@Reader@Json@@AEAAXPEBD0W4CommentPlacement@2@@Z@4HA ENDP ; `Json::Reader::addComment'::`1'::dtor$2
$T8 = 32
$T4 = 32
$T5 = 32
$T1 = 32
$T9 = 40
$T6 = 48
$T2 = 48
__$ArrayPad$ = 80
this$ = 128
begin$ = 136
end$ = 144
placement$ = 152
?dtor$0@?0??addComment@Reader@Json@@AEAAXPEBD0W4CommentPlacement@2@@Z@4HA PROC ; `Json::Reader::addComment'::`1'::dtor$0
	lea	rcx, QWORD PTR $T2[rdx]
	jmp	??1?$basic_string@DU?$char_traits@D@std@@V?$allocator@D@2@@std@@QEAA@XZ ; std::basic_string<char,std::char_traits<char>,std::allocator<char> >::~basic_string<char,std::char_traits<char>,std::allocator<char> >
?dtor$0@?0??addComment@Reader@Json@@AEAAXPEBD0W4CommentPlacement@2@@Z@4HA ENDP ; `Json::Reader::addComment'::`1'::dtor$0
$T8 = 32
$T4 = 32
$T5 = 32
$T1 = 32
$T9 = 40
$T6 = 48
$T2 = 48
__$ArrayPad$ = 80
this$ = 128
begin$ = 136
end$ = 144
placement$ = 152
?dtor$3@?0??addComment@Reader@Json@@AEAAXPEBD0W4CommentPlacement@2@@Z@4HA PROC ; `Json::Reader::addComment'::`1'::dtor$3
	lea	rcx, QWORD PTR $T6[rdx]
	jmp	??1?$_String_alloc@U?$_String_base_types@DV?$allocator@D@std@@@std@@@std@@QEAA@XZ
?dtor$3@?0??addComment@Reader@Json@@AEAAXPEBD0W4CommentPlacement@2@@Z@4HA ENDP ; `Json::Reader::addComment'::`1'::dtor$3
$T8 = 32
$T4 = 32
$T5 = 32
$T1 = 32
$T9 = 40
$T6 = 48
$T2 = 48
__$ArrayPad$ = 80
this$ = 128
begin$ = 136
end$ = 144
placement$ = 152
?dtor$1@?0??addComment@Reader@Json@@AEAAXPEBD0W4CommentPlacement@2@@Z@4HA PROC ; `Json::Reader::addComment'::`1'::dtor$1
	lea	rcx, QWORD PTR $T6[rdx]
	jmp	??1?$basic_string@DU?$char_traits@D@std@@V?$allocator@D@2@@std@@QEAA@XZ ; std::basic_string<char,std::char_traits<char>,std::allocator<char> >::~basic_string<char,std::char_traits<char>,std::allocator<char> >
?dtor$1@?0??addComment@Reader@Json@@AEAAXPEBD0W4CommentPlacement@2@@Z@4HA ENDP ; `Json::Reader::addComment'::`1'::dtor$1
text$x	ENDS
; Function compile flags: /Ogtpy
;	COMDAT text$x
text$x	SEGMENT
$T8 = 32
$T4 = 32
$T5 = 32
$T1 = 32
$T9 = 40
$T6 = 48
$T2 = 48
__$ArrayPad$ = 80
this$ = 128
begin$ = 136
end$ = 144
placement$ = 152
?dtor$2@?0??addComment@Reader@Json@@AEAAXPEBD0W4CommentPlacement@2@@Z@4HA PROC ; `Json::Reader::addComment'::`1'::dtor$2
	lea	rcx, QWORD PTR $T2[rdx]
	jmp	??1?$_String_alloc@U?$_String_base_types@DV?$allocator@D@std@@@std@@@std@@QEAA@XZ
?dtor$2@?0??addComment@Reader@Json@@AEAAXPEBD0W4CommentPlacement@2@@Z@4HA ENDP ; `Json::Reader::addComment'::`1'::dtor$2
text$x	ENDS
; Function compile flags: /Ogtpy
;	COMDAT text$x
text$x	SEGMENT
$T8 = 32
$T4 = 32
$T5 = 32
$T1 = 32
$T9 = 40
$T6 = 48
$T2 = 48
__$ArrayPad$ = 80
this$ = 128
begin$ = 136
end$ = 144
placement$ = 152
?dtor$0@?0??addComment@Reader@Json@@AEAAXPEBD0W4CommentPlacement@2@@Z@4HA PROC ; `Json::Reader::addComment'::`1'::dtor$0
	lea	rcx, QWORD PTR $T2[rdx]
	jmp	??1?$basic_string@DU?$char_traits@D@std@@V?$allocator@D@2@@std@@QEAA@XZ ; std::basic_string<char,std::char_traits<char>,std::allocator<char> >::~basic_string<char,std::char_traits<char>,std::allocator<char> >
?dtor$0@?0??addComment@Reader@Json@@AEAAXPEBD0W4CommentPlacement@2@@Z@4HA ENDP ; `Json::Reader::addComment'::`1'::dtor$0
text$x	ENDS
; Function compile flags: /Ogtpy
;	COMDAT text$x
text$x	SEGMENT
$T8 = 32
$T4 = 32
$T5 = 32
$T1 = 32
$T9 = 40
$T6 = 48
$T2 = 48
__$ArrayPad$ = 80
this$ = 128
begin$ = 136
end$ = 144
placement$ = 152
?dtor$3@?0??addComment@Reader@Json@@AEAAXPEBD0W4CommentPlacement@2@@Z@4HA PROC ; `Json::Reader::addComment'::`1'::dtor$3
	lea	rcx, QWORD PTR $T6[rdx]
	jmp	??1?$_String_alloc@U?$_String_base_types@DV?$allocator@D@std@@@std@@@std@@QEAA@XZ
?dtor$3@?0??addComment@Reader@Json@@AEAAXPEBD0W4CommentPlacement@2@@Z@4HA ENDP ; `Json::Reader::addComment'::`1'::dtor$3
text$x	ENDS
; Function compile flags: /Ogtpy
;	COMDAT text$x
text$x	SEGMENT
$T8 = 32
$T4 = 32
$T5 = 32
$T1 = 32
$T9 = 40
$T6 = 48
$T2 = 48
__$ArrayPad$ = 80
this$ = 128
begin$ = 136
end$ = 144
placement$ = 152
?dtor$1@?0??addComment@Reader@Json@@AEAAXPEBD0W4CommentPlacement@2@@Z@4HA PROC ; `Json::Reader::addComment'::`1'::dtor$1
	lea	rcx, QWORD PTR $T6[rdx]
	jmp	??1?$basic_string@DU?$char_traits@D@std@@V?$allocator@D@2@@std@@QEAA@XZ ; std::basic_string<char,std::char_traits<char>,std::allocator<char> >::~basic_string<char,std::char_traits<char>,std::allocator<char> >
?dtor$1@?0??addComment@Reader@Json@@AEAAXPEBD0W4CommentPlacement@2@@Z@4HA ENDP ; `Json::Reader::addComment'::`1'::dtor$1
text$x	ENDS
; Function compile flags: /Ogtpy
; File d:\code\libshared\jsoncpp-src-0.5.0\src\lib_json\json_reader.cpp
;	COMDAT ?readCStyleComment@Reader@Json@@AEAA_NXZ
_TEXT	SEGMENT
this$ = 8
?readCStyleComment@Reader@Json@@AEAA_NXZ PROC		; Json::Reader::readCStyleComment, COMDAT

	mov	rax, QWORD PTR [rcx+128]
	mov	r8, rcx
	mov	rdx, QWORD PTR [rcx+120]
	cmp	rax, rdx
	je	SHORT $LN16@readCStyle
$LN21@readCStyle:

	movzx	ecx, BYTE PTR [rax]
	inc	rax
	mov	QWORD PTR [r8+128], rax

	cmp	cl, 42					; 0000002aH
	jne	SHORT $LN4@readCStyle
	cmp	BYTE PTR [rax], 47			; 0000002fH
	je	SHORT $LN13@readCStyle
$LN4@readCStyle:

	cmp	rax, rdx
	jne	SHORT $LN21@readCStyle

	xor	cl, cl

	cmp	cl, 47					; 0000002fH
	sete	al

	ret	0
$LN13@readCStyle:

	cmp	rax, rdx
	jne	SHORT $LN10@readCStyle
$LN16@readCStyle:

	xor	cl, cl

	cmp	cl, 47					; 0000002fH
	sete	al

	ret	0
$LN10@readCStyle:

	movzx	ecx, BYTE PTR [rax]
	inc	rax

	cmp	cl, 47					; 0000002fH

	mov	QWORD PTR [r8+128], rax

	sete	al

	ret	0
?readCStyleComment@Reader@Json@@AEAA_NXZ ENDP		; Json::Reader::readCStyleComment
_TEXT	ENDS
; Function compile flags: /Ogtpy
; File d:\code\libshared\jsoncpp-src-0.5.0\src\lib_json\json_reader.cpp
;	COMDAT ?readCppStyleComment@Reader@Json@@AEAA_NXZ
_TEXT	SEGMENT
this$ = 8
?readCppStyleComment@Reader@Json@@AEAA_NXZ PROC		; Json::Reader::readCppStyleComment, COMDAT

	mov	rax, QWORD PTR [rcx+128]
	mov	r8, rcx
	mov	rdx, QWORD PTR [rcx+120]
	cmp	rax, rdx
	je	SHORT $LN18@readCppSty
$LN22@readCppSty:

	movzx	ecx, BYTE PTR [rax]
	inc	rax
	mov	QWORD PTR [r8+128], rax

	cmp	cl, 13
	je	SHORT $LN18@readCppSty
	cmp	cl, 10
	je	SHORT $LN18@readCppSty

	cmp	rax, rdx
	jne	SHORT $LN22@readCppSty
$LN18@readCppSty:

	mov	al, 1
	ret	0
?readCppStyleComment@Reader@Json@@AEAA_NXZ ENDP		; Json::Reader::readCppStyleComment
_TEXT	ENDS
; Function compile flags: /Ogtpy
; File d:\code\libshared\jsoncpp-src-0.5.0\src\lib_json\json_reader.cpp
;	COMDAT ?readNumber@Reader@Json@@AEAAXXZ
_TEXT	SEGMENT
this$ = 8
?readNumber@Reader@Json@@AEAAXXZ PROC			; Json::Reader::readNumber, COMDAT

	mov	rax, QWORD PTR [rcx+128]
	mov	r9, rcx
	mov	r10, QWORD PTR [rcx+120]
	cmp	rax, r10
	je	SHORT $LN16@readNumber
	mov	r11, 288230376218820621			; 040000000400000dH
	npad	3
$LL2@readNumber:

	movzx	r8d, BYTE PTR [rax]
	lea	edx, DWORD PTR [r8-48]
	cmp	dl, 9
	jbe	SHORT $LN9@readNumber

	sub	r8b, 43					; 0000002bH
	cmp	r8b, 58					; 0000003aH
	ja	SHORT $LN16@readNumber
	bt	r11, r8
	jae	SHORT $LN16@readNumber
$LN9@readNumber:

	inc	rax
	mov	QWORD PTR [r9+128], rax
	cmp	rax, r10
	jne	SHORT $LL2@readNumber
$LN16@readNumber:

	ret	0
?readNumber@Reader@Json@@AEAAXXZ ENDP			; Json::Reader::readNumber
_TEXT	ENDS
; Function compile flags: /Ogtpy
; File d:\code\libshared\jsoncpp-src-0.5.0\src\lib_json\json_reader.cpp
;	COMDAT ?readString@Reader@Json@@AEAA_NXZ
_TEXT	SEGMENT
this$ = 8
?readString@Reader@Json@@AEAA_NXZ PROC			; Json::Reader::readString, COMDAT

	mov	rax, QWORD PTR [rcx+128]
	xor	dl, dl
	mov	r8, QWORD PTR [rcx+120]
	cmp	rax, r8
	je	SHORT $LN15@readString
$LN9@readString:

	movzx	edx, BYTE PTR [rax]
	inc	rax
	mov	QWORD PTR [rcx+128], rax

	cmp	dl, 92					; 0000005cH
	jne	SHORT $LN4@readString

	cmp	rax, r8
	je	SHORT $LN15@readString

	inc	rax
	mov	QWORD PTR [rcx+128], rax

	jmp	SHORT $LN6@readString
$LN4@readString:

	cmp	dl, 34					; 00000022H
	je	SHORT $LN20@readString
$LN6@readString:

	cmp	rax, r8
	jne	SHORT $LN9@readString
$LN15@readString:

	cmp	dl, 34					; 00000022H
$LN20@readString:
	sete	al

	ret	0
?readString@Reader@Json@@AEAA_NXZ ENDP			; Json::Reader::readString
_TEXT	ENDS
; Function compile flags: /Ogtpy
; File d:\code\libshared\jsoncpp-src-0.5.0\src\lib_json\json_reader.cpp
; File d:\code\libshared\jsoncpp-src-0.5.0\src\lib_json\json_value.cpp
; File c:\program files (x86)\microsoft visual studio\2017\enterprise\vc\tools\msvc\14.16.27023\include\xutility
; File c:\program files (x86)\microsoft visual studio\2017\enterprise\vc\tools\msvc\14.16.27023\include\xtree
; File d:\code\libshared\jsoncpp-src-0.5.0\src\lib_json\json_value.cpp
; File c:\program files (x86)\microsoft visual studio\2017\enterprise\vc\tools\msvc\14.16.27023\include\deque
; File c:\program files (x86)\microsoft visual studio\2017\enterprise\vc\tools\msvc\14.16.27023\include\xutility
; File c:\program files (x86)\microsoft visual studio\2017\enterprise\vc\tools\msvc\14.16.27023\include\deque
; File c:\program files (x86)\microsoft visual studio\2017\enterprise\vc\tools\msvc\14.16.27023\include\xutility
; File c:\program files (x86)\microsoft visual studio\2017\enterprise\vc\tools\msvc\14.16.27023\include\deque
; File d:\code\libshared\jsoncpp-src-0.5.0\src\lib_json\json_reader.cpp
; File c:\program files (x86)\microsoft visual studio\2017\enterprise\vc\tools\msvc\14.16.27023\include\deque
; File c:\program files (x86)\microsoft visual studio\2017\enterprise\vc\tools\msvc\14.16.27023\include\xutility
; File c:\program files (x86)\microsoft visual studio\2017\enterprise\vc\tools\msvc\14.16.27023\include\deque
; File c:\program files (x86)\microsoft visual studio\2017\enterprise\vc\tools\msvc\14.16.27023\include\xutility
; File c:\program files (x86)\microsoft visual studio\2017\enterprise\vc\tools\msvc\14.16.27023\include\deque
; File d:\code\libshared\jsoncpp-src-0.5.0\src\lib_json\json_reader.cpp
; File d:\code\libshared\jsoncpp-src-0.5.0\src\lib_json\json_value.cpp
; File c:\program files (x86)\microsoft visual studio\2017\enterprise\vc\tools\msvc\14.16.27023\include\deque
; File c:\program files (x86)\microsoft visual studio\2017\enterprise\vc\tools\msvc\14.16.27023\include\xmemory0
; File c:\program files (x86)\microsoft visual studio\2017\enterprise\vc\tools\msvc\14.16.27023\include\deque
; File c:\program files (x86)\microsoft visual studio\2017\enterprise\vc\tools\msvc\14.16.27023\include\xmemory0
; File c:\program files (x86)\microsoft visual studio\2017\enterprise\vc\tools\msvc\14.16.27023\include\deque
; File d:\code\libshared\jsoncpp-src-0.5.0\src\lib_json\json_reader.cpp
; File c:\program files (x86)\microsoft visual studio\2017\enterprise\vc\tools\msvc\14.16.27023\include\deque
; File d:\code\libshared\jsoncpp-src-0.5.0\src\lib_json\json_reader.cpp
; File c:\program files (x86)\microsoft visual studio\2017\enterprise\vc\tools\msvc\14.16.27023\include\xutility
; File c:\program files (x86)\microsoft visual studio\2017\enterprise\vc\tools\msvc\14.16.27023\include\deque
; File d:\code\libshared\jsoncpp-src-0.5.0\src\lib_json\json_reader.cpp
; File c:\program files (x86)\microsoft visual studio\2017\enterprise\vc\tools\msvc\14.16.27023\include\xutility
; File c:\program files (x86)\microsoft visual studio\2017\enterprise\vc\tools\msvc\14.16.27023\include\deque
; File d:\code\libshared\jsoncpp-src-0.5.0\src\lib_json\json_reader.cpp
; File c:\program files (x86)\microsoft visual studio\2017\enterprise\vc\tools\msvc\14.16.27023\include\xutility
; File c:\program files (x86)\microsoft visual studio\2017\enterprise\vc\tools\msvc\14.16.27023\include\deque
; File d:\code\libshared\jsoncpp-src-0.5.0\src\lib_json\json_reader.cpp
;	COMDAT ?readObject@Reader@Json@@AEAA_NAEAVToken@12@@Z
_TEXT	SEGMENT
$T3 = 32
skip$129 = 40
skip$130 = 40
skip$131 = 40
colon$132 = 40
$T133 = 64
$T2 = 72
$T115 = 80
tokenName$ = 80
$T1 = 80
$T122 = 112
comma$134 = 112
$T25 = 112
name$ = 144
__$ArrayPad$ = 176
this$ = 224
tokenStart$dead$ = 232
?readObject@Reader@Json@@AEAA_NAEAVToken@12@@Z PROC	; Json::Reader::readObject, COMDAT

$LN567:
	mov	rax, rsp
	push	rbp
	push	r14
	push	r15
	lea	rbp, QWORD PTR [rax-95]
	sub	rsp, 192				; 000000c0H
	mov	QWORD PTR $T133[rbp-121], -2
	mov	QWORD PTR [rax+16], rbx
	mov	QWORD PTR [rax+24], rsi
	mov	QWORD PTR [rax+32], rdi
	mov	rax, QWORD PTR __security_cookie
	xor	rax, rsp
	mov	QWORD PTR __$ArrayPad$[rbp-121], rax
	mov	rdi, rcx

	lea	rcx, QWORD PTR name$[rbp-121]
	call	??0?$basic_string@DU?$char_traits@D@std@@V?$allocator@D@2@@std@@QEAA@XZ ; std::basic_string<char,std::char_traits<char>,std::allocator<char> >::basic_string<char,std::char_traits<char>,std::allocator<char> >
	npad	1
; File d:\code\libshared\jsoncpp-src-0.5.0\src\lib_json\json_value.cpp

; 269  : // //////////////////////////////////////////////////////////////////

	mov	eax, DWORD PTR $T1[rbp-113]
	and	eax, -505				; fffffffffffffe07H

; 270  : 

	or	eax, 7
	mov	DWORD PTR $T1[rbp-113], eax

; 271  : /*! \internal Default constructor initialization must be equivalent to:

	xor	r15d, r15d
	mov	QWORD PTR $T1[rbp-105], r15

; 293  :       break;

	lea	ecx, QWORD PTR [r15+16]
	call	??2@YAPEAX_K@Z				; operator new
	mov	rbx, rax
	mov	QWORD PTR $T2[rbp-121], rax
; File c:\program files (x86)\microsoft visual studio\2017\enterprise\vc\tools\msvc\14.16.27023\include\xutility

; 286  : 			_Myval2(_STD forward<_Other2>(_Val2)...)

	lea	rcx, QWORD PTR $T3[rbp-121]
	call	??$forward@U_Zero_then_variadic_args_t@std@@@std@@YA$$QEAU_Zero_then_variadic_args_t@0@AEAU10@@Z ; std::forward<std::_Zero_then_variadic_args_t>
; File c:\program files (x86)\microsoft visual studio\2017\enterprise\vc\tools\msvc\14.16.27023\include\xtree

; 468  : 		: _Myhead(),

	mov	QWORD PTR [rbx], r15

; 469  : 		_Mysize(0)

	mov	QWORD PTR [rbx+8], r15

; 808  : 		_Get_data()._Myhead = _Buyheadnode();

